---
triple:          'arm64-apple-darwin'
binary-path:     '/Users/joakimwennergren/Projects/Entropy-Application/build-ios/Entropy/Debug-iphoneos/libEntropy.dylib'
relocations:
  - { offset: 0x17D1, size: 0x8, addend: 0x0, symName: __ZN3glm6lookAtIfLNS_9qualifierE0EEENS_3matILi4ELi4ET_XT0_EEERKNS_3vecILi3ES3_XT0_EEES8_S8_, symObjAddr: 0x184, symBinAddr: 0x8184, symSize: 0x34 }
  - { offset: 0x182C, size: 0x8, addend: 0x0, symName: __ZN3glm5orthoIfEENS_3matILi4ELi4ET_LNS_9qualifierE0EEES2_S2_S2_S2_S2_S2_, symObjAddr: 0x318, symBinAddr: 0x8318, symSize: 0x4C }
  - { offset: 0x18A7, size: 0x8, addend: 0x0, symName: __ZN3glm8lookAtRHIfLNS_9qualifierE0EEENS_3matILi4ELi4ET_XT0_EEERKNS_3vecILi3ES3_XT0_EEES8_S8_, symObjAddr: 0x444, symBinAddr: 0x8444, symSize: 0x2E4 }
  - { offset: 0x193C, size: 0x8, addend: 0x0, symName: __ZN3glm9normalizeILi3EfLNS_9qualifierE0EEENS_3vecIXT_ET0_XT1_EEERKS4_, symObjAddr: 0x728, symBinAddr: 0x8728, symSize: 0x3C }
  - { offset: 0x1985, size: 0x8, addend: 0x0, symName: __ZN3glmmiIfLNS_9qualifierE0EEENS_3vecILi3ET_XT0_EEERKS4_S6_, symObjAddr: 0x764, symBinAddr: 0x8764, symSize: 0x5C }
  - { offset: 0x19D5, size: 0x8, addend: 0x0, symName: __ZN3glm5crossIfLNS_9qualifierE0EEENS_3vecILi3ET_XT0_EEERKS4_S6_, symObjAddr: 0x7C0, symBinAddr: 0x87C0, symSize: 0x44 }
  - { offset: 0x1A22, size: 0x8, addend: 0x0, symName: __ZN3glm3dotILi3EfLNS_9qualifierE0EEET0_RKNS_3vecIXT_ES2_XT1_EEES6_, symObjAddr: 0x9C4, symBinAddr: 0x89C4, symSize: 0x2C }
  - { offset: 0x1C95, size: 0x8, addend: 0x0, symName: __ZN3glmmlIfLNS_9qualifierE0EEENS_3vecILi3ET_XT0_EEERKS4_S3_, symObjAddr: 0xA44, symBinAddr: 0x8A44, symSize: 0x5C }
  - { offset: 0x1CE5, size: 0x8, addend: 0x0, symName: __ZN3glm11inversesqrtIfEET_S1_, symObjAddr: 0xAA0, symBinAddr: 0x8AA0, symSize: 0x30 }
  - { offset: 0x1D1A, size: 0x8, addend: 0x0, symName: __ZN3glmmlIfLNS_9qualifierE0EEENS_3vecILi3ET_XT0_EEERKS4_S6_, symObjAddr: 0xF24, symBinAddr: 0x8F24, symSize: 0x5C }
  - { offset: 0x1D6A, size: 0x8, addend: 0x0, symName: __ZN3glm10orthoRH_ZOIfEENS_3matILi4ELi4ET_LNS_9qualifierE0EEES2_S2_S2_S2_S2_S2_, symObjAddr: 0xFE4, symBinAddr: 0x8FE4, symSize: 0x1D4 }
  - { offset: 0x2286, size: 0x8, addend: 0x0, symName: __ZN7Entropy7Cameras18OrthographicCameraC2Ev, symObjAddr: 0x0, symBinAddr: 0x8000, symSize: 0x10C }
  - { offset: 0x22B0, size: 0x8, addend: 0x0, symName: __ZN7Entropy7Cameras10BaseCameraC2Ev, symObjAddr: 0x10C, symBinAddr: 0x810C, symSize: 0x34 }
  - { offset: 0x22DA, size: 0x8, addend: 0x0, symName: __ZN3glm3vecILi3EfLNS_9qualifierE0EEC1Efff, symObjAddr: 0x140, symBinAddr: 0x8140, symSize: 0x44 }
  - { offset: 0x232C, size: 0x8, addend: 0x0, symName: __ZN7Entropy7Cameras10BaseCameraD2Ev, symObjAddr: 0x1B8, symBinAddr: 0x81B8, symSize: 0x14 }
  - { offset: 0x2354, size: 0x8, addend: 0x0, symName: __ZN7Entropy7Cameras18OrthographicCameraC1Ev, symObjAddr: 0x1CC, symBinAddr: 0x81CC, symSize: 0x2C }
  - { offset: 0x237E, size: 0x8, addend: 0x0, symName: __ZN7Entropy7Cameras18OrthographicCamera4ZoomEf, symObjAddr: 0x1F8, symBinAddr: 0x81F8, symSize: 0x60 }
  - { offset: 0x23B2, size: 0x8, addend: 0x0, symName: __ZN7Entropy7Cameras18OrthographicCamera3PanEff, symObjAddr: 0x258, symBinAddr: 0x8258, symSize: 0x2C }
  - { offset: 0x23F4, size: 0x8, addend: 0x0, symName: __ZN7Entropy7Cameras18OrthographicCamera14SetPerspectiveEjjff, symObjAddr: 0x284, symBinAddr: 0x8284, symSize: 0x94 }
  - { offset: 0x2452, size: 0x8, addend: 0x0, symName: __ZN7Entropy7Cameras18OrthographicCameraD1Ev, symObjAddr: 0x364, symBinAddr: 0x8364, symSize: 0x2C }
  - { offset: 0x247C, size: 0x8, addend: 0x0, symName: __ZN7Entropy7Cameras18OrthographicCameraD0Ev, symObjAddr: 0x390, symBinAddr: 0x8390, symSize: 0x30 }
  - { offset: 0x24A6, size: 0x8, addend: 0x0, symName: __ZN7Entropy7Cameras10BaseCameraD1Ev, symObjAddr: 0x3C0, symBinAddr: 0x83C0, symSize: 0x14 }
  - { offset: 0x24CE, size: 0x8, addend: 0x0, symName: __ZN7Entropy7Cameras10BaseCameraD0Ev, symObjAddr: 0x3D4, symBinAddr: 0x83D4, symSize: 0xC }
  - { offset: 0x24F6, size: 0x8, addend: 0x0, symName: __ZN3glm3vecILi3EfLNS_9qualifierE0EEC2Efff, symObjAddr: 0x3E0, symBinAddr: 0x83E0, symSize: 0x38 }
  - { offset: 0x2548, size: 0x8, addend: 0x0, symName: __ZN7Entropy7Cameras18OrthographicCameraD2Ev, symObjAddr: 0x418, symBinAddr: 0x8418, symSize: 0x2C }
  - { offset: 0x2572, size: 0x8, addend: 0x0, symName: __ZN3glm3matILi4ELi4EfLNS_9qualifierE0EEixEi, symObjAddr: 0x804, symBinAddr: 0x8804, symSize: 0xB0 }
  - { offset: 0x25A7, size: 0x8, addend: 0x0, symName: __ZN3glm3vecILi4EfLNS_9qualifierE0EEixEi, symObjAddr: 0x8B4, symBinAddr: 0x88B4, symSize: 0x110 }
  - { offset: 0x25E3, size: 0x8, addend: 0x0, symName: __ZN3glm6detail17compute_normalizeILi3EfLNS_9qualifierE0ELb0EE4callERKNS_3vecILi3EfLS2_0EEE, symObjAddr: 0x9F0, symBinAddr: 0x89F0, symSize: 0x54 }
  - { offset: 0x2605, size: 0x8, addend: 0x0, symName: __ZN3glm3vecILi3EfLNS_9qualifierE0EEmLIfEERS2_T_, symObjAddr: 0xAD0, symBinAddr: 0x8AD0, symSize: 0x64 }
  - { offset: 0x2640, size: 0x8, addend: 0x0, symName: __ZN3glm6detail15compute_vec_mulILi3EfLNS_9qualifierE0ELb0EE4callERKNS_3vecILi3EfLS2_0EEES7_, symObjAddr: 0xB34, symBinAddr: 0x8B34, symSize: 0x44 }
  - { offset: 0x2670, size: 0x8, addend: 0x0, symName: __ZN3glm3vecILi3EfLNS_9qualifierE0EEC1Ef, symObjAddr: 0xB78, symBinAddr: 0x8B78, symSize: 0x34 }
  - { offset: 0x2729, size: 0x8, addend: 0x0, symName: __ZNSt3__16__math4sqrtB8de200100Ef, symObjAddr: 0xC94, symBinAddr: 0x8C94, symSize: 0x18 }
  - { offset: 0x330B, size: 0x8, addend: 0x0, symName: __ZN3glm6detail8functor2INS_3vecELi3EfLNS_9qualifierE0EE4callINSt3__110multipliesIfEEEENS2_ILi3EfLS3_0EEET_RKS9_SC_, symObjAddr: 0xBAC, symBinAddr: 0x8BAC, symSize: 0x8C }
  - { offset: 0x3352, size: 0x8, addend: 0x0, symName: __ZNKSt3__110multipliesIfEclB8de200100ERKfS3_, symObjAddr: 0xC38, symBinAddr: 0x8C38, symSize: 0x2C }
  - { offset: 0x3392, size: 0x8, addend: 0x0, symName: __ZN3glm3vecILi3EfLNS_9qualifierE0EEC2Ef, symObjAddr: 0xC64, symBinAddr: 0x8C64, symSize: 0x30 }
  - { offset: 0x33CA, size: 0x8, addend: 0x0, symName: __ZN3glm3vecILi3EfLNS_9qualifierE0EEmIIfEERS2_RKNS0_ILi3ET_LS1_0EEE, symObjAddr: 0xCAC, symBinAddr: 0x8CAC, symSize: 0x64 }
  - { offset: 0x3405, size: 0x8, addend: 0x0, symName: __ZN3glm6detail15compute_vec_subILi3EfLNS_9qualifierE0ELb0EE4callERKNS_3vecILi3EfLS2_0EEES7_, symObjAddr: 0xD10, symBinAddr: 0x8D10, symSize: 0x44 }
  - { offset: 0x343F, size: 0x8, addend: 0x0, symName: __ZN3glm6detail8functor2INS_3vecELi3EfLNS_9qualifierE0EE4callINSt3__15minusIfEEEENS2_ILi3EfLS3_0EEET_RKS9_SC_, symObjAddr: 0xD54, symBinAddr: 0x8D54, symSize: 0x8C }
  - { offset: 0x3486, size: 0x8, addend: 0x0, symName: __ZNKSt3__15minusIfEclB8de200100ERKfS3_, symObjAddr: 0xDE0, symBinAddr: 0x8DE0, symSize: 0x2C }
  - { offset: 0x34C6, size: 0x8, addend: 0x0, symName: __ZN3glm6detail13compute_crossIfLNS_9qualifierE0ELb0EE4callERKNS_3vecILi3EfLS2_0EEES7_, symObjAddr: 0xE0C, symBinAddr: 0x8E0C, symSize: 0xAC }
  - { offset: 0x34F6, size: 0x8, addend: 0x0, symName: __ZN3glm3matILi4ELi4EfLNS_9qualifierE0EE6lengthEv, symObjAddr: 0xEB8, symBinAddr: 0x8EB8, symSize: 0x8 }
  - { offset: 0x3509, size: 0x8, addend: 0x0, symName: __ZN3glm3vecILi4EfLNS_9qualifierE0EE6lengthEv, symObjAddr: 0xED0, symBinAddr: 0x8ED0, symSize: 0x8 }
  - { offset: 0x351C, size: 0x8, addend: 0x0, symName: __ZN3glm6detail11compute_dotINS_3vecILi3EfLNS_9qualifierE0EEEfLb0EE4callERKS4_S7_, symObjAddr: 0xED8, symBinAddr: 0x8ED8, symSize: 0x4C }
  - { offset: 0x355A, size: 0x8, addend: 0x0, symName: __ZN3glm3vecILi3EfLNS_9qualifierE0EEmLIfEERS2_RKNS0_ILi3ET_LS1_0EEE, symObjAddr: 0xF80, symBinAddr: 0x8F80, symSize: 0x64 }
  - { offset: 0x58D3, size: 0x8, addend: 0x0, symName: __ZN5flecsL5OnSetE, symObjAddr: 0x15F6A8, symBinAddr: 0x858E00, symSize: 0x0 }
  - { offset: 0x58F6, size: 0x8, addend: 0x0, symName: __ZN5flecs1_9type_implI12EcsComponentE7s_indexE, symObjAddr: 0x2A4B0, symBinAddr: 0x843800, symSize: 0x0 }
  - { offset: 0x59F7, size: 0x8, addend: 0x0, symName: __ZN5flecs1_9type_implI12EcsComponentE11s_allow_tagE, symObjAddr: 0x2A4B4, symBinAddr: 0x843804, symSize: 0x0 }
  - { offset: 0x5A0A, size: 0x8, addend: 0x0, symName: __ZN5flecs1_9type_implI12EcsComponentE6s_sizeE, symObjAddr: 0x2A4B8, symBinAddr: 0x843808, symSize: 0x0 }
  - { offset: 0x5A1D, size: 0x8, addend: 0x0, symName: __ZN5flecs1_9type_implI12EcsComponentE11s_alignmentE, symObjAddr: 0x2A4C0, symBinAddr: 0x843810, symSize: 0x0 }
  - { offset: 0x5A2A, size: 0x8, addend: 0x0, symName: __ZN5flecs1_9type_nameI12EcsComponentEEPKcv, symObjAddr: 0x3894, symBinAddr: 0xCA3C, symSize: 0xB4 }
  - { offset: 0x5A53, size: 0x8, addend: 0x0, symName: __ZZN5flecs1_9type_nameI12EcsComponentEEPKcvE3len, symObjAddr: 0x29940, symBinAddr: 0x6D1B68, symSize: 0x0 }
  - { offset: 0x5A68, size: 0x8, addend: 0x0, symName: __ZZN5flecs1_9type_nameI12EcsComponentEEPKcvE6result, symObjAddr: 0x2A4C8, symBinAddr: 0x843818, symSize: 0x0 }
  - { offset: 0x5A7D, size: 0x8, addend: 0x0, symName: __ZZN5flecs1_9type_nameI12EcsComponentEEPKcvE9front_len, symObjAddr: 0x29948, symBinAddr: 0x6D1B70, symSize: 0x0 }
  - { offset: 0x5A92, size: 0x8, addend: 0x0, symName: __ZZN5flecs1_9type_nameI12EcsComponentEEPKcvE11cppTypeName, symObjAddr: 0x2A4D8, symBinAddr: 0x843828, symSize: 0x0 }
  - { offset: 0x5AA5, size: 0x8, addend: 0x0, symName: __ZN5flecs1_11symbol_nameI12EcsComponentEEPKcv, symObjAddr: 0x3948, symBinAddr: 0xCAF0, symSize: 0xB8 }
  - { offset: 0x5ACE, size: 0x8, addend: 0x0, symName: __ZZN5flecs1_11symbol_nameI12EcsComponentEEPKcvE3len, symObjAddr: 0x29950, symBinAddr: 0x6D1B78, symSize: 0x0 }
  - { offset: 0x5AE3, size: 0x8, addend: 0x0, symName: __ZZN5flecs1_11symbol_nameI12EcsComponentEEPKcvE6result, symObjAddr: 0x2A4E8, symBinAddr: 0x843838, symSize: 0x0 }
  - { offset: 0x5AF8, size: 0x8, addend: 0x0, symName: __ZZN5flecs1_11symbol_nameI12EcsComponentEEPKcvE13cppSymbolName, symObjAddr: 0x2A4F8, symBinAddr: 0x843848, symSize: 0x0 }
  - { offset: 0x5B11, size: 0x8, addend: 0x0, symName: __ZN5flecs1_9type_implI13EcsIdentifierE7s_indexE, symObjAddr: 0x2A508, symBinAddr: 0x843858, symSize: 0x0 }
  - { offset: 0x5C12, size: 0x8, addend: 0x0, symName: __ZN5flecs1_9type_implI13EcsIdentifierE11s_allow_tagE, symObjAddr: 0x2A50C, symBinAddr: 0x84385C, symSize: 0x0 }
  - { offset: 0x5C25, size: 0x8, addend: 0x0, symName: __ZN5flecs1_9type_implI13EcsIdentifierE6s_sizeE, symObjAddr: 0x2A510, symBinAddr: 0x843860, symSize: 0x0 }
  - { offset: 0x5C38, size: 0x8, addend: 0x0, symName: __ZN5flecs1_9type_implI13EcsIdentifierE11s_alignmentE, symObjAddr: 0x2A518, symBinAddr: 0x843868, symSize: 0x0 }
  - { offset: 0x5C45, size: 0x8, addend: 0x0, symName: __ZN5flecs1_9type_nameI13EcsIdentifierEEPKcv, symObjAddr: 0x3EC4, symBinAddr: 0xD06C, symSize: 0xB4 }
  - { offset: 0x5C6E, size: 0x8, addend: 0x0, symName: __ZZN5flecs1_9type_nameI13EcsIdentifierEEPKcvE3len, symObjAddr: 0x29958, symBinAddr: 0x6D1B80, symSize: 0x0 }
  - { offset: 0x5C83, size: 0x8, addend: 0x0, symName: __ZZN5flecs1_9type_nameI13EcsIdentifierEEPKcvE6result, symObjAddr: 0x2A520, symBinAddr: 0x843870, symSize: 0x0 }
  - { offset: 0x5C98, size: 0x8, addend: 0x0, symName: __ZZN5flecs1_9type_nameI13EcsIdentifierEEPKcvE9front_len, symObjAddr: 0x29960, symBinAddr: 0x6D1B88, symSize: 0x0 }
  - { offset: 0x5CAD, size: 0x8, addend: 0x0, symName: __ZZN5flecs1_9type_nameI13EcsIdentifierEEPKcvE11cppTypeName, symObjAddr: 0x2A530, symBinAddr: 0x843880, symSize: 0x0 }
  - { offset: 0x5CC0, size: 0x8, addend: 0x0, symName: __ZN5flecs1_11symbol_nameI13EcsIdentifierEEPKcv, symObjAddr: 0x3F78, symBinAddr: 0xD120, symSize: 0xB8 }
  - { offset: 0x5CE9, size: 0x8, addend: 0x0, symName: __ZZN5flecs1_11symbol_nameI13EcsIdentifierEEPKcvE3len, symObjAddr: 0x29968, symBinAddr: 0x6D1B90, symSize: 0x0 }
  - { offset: 0x5CFE, size: 0x8, addend: 0x0, symName: __ZZN5flecs1_11symbol_nameI13EcsIdentifierEEPKcvE6result, symObjAddr: 0x2A540, symBinAddr: 0x843890, symSize: 0x0 }
  - { offset: 0x5D13, size: 0x8, addend: 0x0, symName: __ZZN5flecs1_11symbol_nameI13EcsIdentifierEEPKcvE13cppSymbolName, symObjAddr: 0x2A550, symBinAddr: 0x8438A0, symSize: 0x0 }
  - { offset: 0x5D2C, size: 0x8, addend: 0x0, symName: __ZN5flecs1_9type_implI7EcsPolyE7s_indexE, symObjAddr: 0x2A560, symBinAddr: 0x8438B0, symSize: 0x0 }
  - { offset: 0x5E2D, size: 0x8, addend: 0x0, symName: __ZN5flecs1_9type_implI7EcsPolyE11s_allow_tagE, symObjAddr: 0x2A564, symBinAddr: 0x8438B4, symSize: 0x0 }
  - { offset: 0x5E40, size: 0x8, addend: 0x0, symName: __ZN5flecs1_9type_implI7EcsPolyE6s_sizeE, symObjAddr: 0x2A568, symBinAddr: 0x8438B8, symSize: 0x0 }
  - { offset: 0x5E53, size: 0x8, addend: 0x0, symName: __ZN5flecs1_9type_implI7EcsPolyE11s_alignmentE, symObjAddr: 0x2A570, symBinAddr: 0x8438C0, symSize: 0x0 }
  - { offset: 0x5E60, size: 0x8, addend: 0x0, symName: __ZN5flecs1_9type_nameI7EcsPolyEEPKcv, symObjAddr: 0x44F0, symBinAddr: 0xD698, symSize: 0xB4 }
  - { offset: 0x5E89, size: 0x8, addend: 0x0, symName: __ZZN5flecs1_9type_nameI7EcsPolyEEPKcvE3len, symObjAddr: 0x29970, symBinAddr: 0x6D1B98, symSize: 0x0 }
  - { offset: 0x5E9E, size: 0x8, addend: 0x0, symName: __ZZN5flecs1_9type_nameI7EcsPolyEEPKcvE6result, symObjAddr: 0x2A578, symBinAddr: 0x8438C8, symSize: 0x0 }
  - { offset: 0x5EB3, size: 0x8, addend: 0x0, symName: __ZZN5flecs1_9type_nameI7EcsPolyEEPKcvE9front_len, symObjAddr: 0x29978, symBinAddr: 0x6D1BA0, symSize: 0x0 }
  - { offset: 0x5EC8, size: 0x8, addend: 0x0, symName: __ZZN5flecs1_9type_nameI7EcsPolyEEPKcvE11cppTypeName, symObjAddr: 0x2A580, symBinAddr: 0x8438D0, symSize: 0x0 }
  - { offset: 0x5EDB, size: 0x8, addend: 0x0, symName: __ZN5flecs1_11symbol_nameI7EcsPolyEEPKcv, symObjAddr: 0x45A4, symBinAddr: 0xD74C, symSize: 0xB8 }
  - { offset: 0x5F04, size: 0x8, addend: 0x0, symName: __ZZN5flecs1_11symbol_nameI7EcsPolyEEPKcvE3len, symObjAddr: 0x29980, symBinAddr: 0x6D1BA8, symSize: 0x0 }
  - { offset: 0x5F19, size: 0x8, addend: 0x0, symName: __ZZN5flecs1_11symbol_nameI7EcsPolyEEPKcvE6result, symObjAddr: 0x2A590, symBinAddr: 0x8438E0, symSize: 0x0 }
  - { offset: 0x5F2E, size: 0x8, addend: 0x0, symName: __ZZN5flecs1_11symbol_nameI7EcsPolyEEPKcvE13cppSymbolName, symObjAddr: 0x2A598, symBinAddr: 0x8438E8, symSize: 0x0 }
  - { offset: 0x5F47, size: 0x8, addend: 0x0, symName: __ZN5flecs1_9type_implI13EcsTickSourceE7s_indexE, symObjAddr: 0x2A5A8, symBinAddr: 0x8438F8, symSize: 0x0 }
  - { offset: 0x6048, size: 0x8, addend: 0x0, symName: __ZN5flecs1_9type_implI13EcsTickSourceE11s_allow_tagE, symObjAddr: 0x2A5AC, symBinAddr: 0x8438FC, symSize: 0x0 }
  - { offset: 0x605B, size: 0x8, addend: 0x0, symName: __ZN5flecs1_9type_implI13EcsTickSourceE6s_sizeE, symObjAddr: 0x2A5B0, symBinAddr: 0x843900, symSize: 0x0 }
  - { offset: 0x606E, size: 0x8, addend: 0x0, symName: __ZN5flecs1_9type_implI13EcsTickSourceE11s_alignmentE, symObjAddr: 0x2A5B8, symBinAddr: 0x843908, symSize: 0x0 }
  - { offset: 0x607B, size: 0x8, addend: 0x0, symName: __ZN5flecs1_9type_nameI13EcsTickSourceEEPKcv, symObjAddr: 0x4B68, symBinAddr: 0xDD10, symSize: 0xB4 }
  - { offset: 0x60A4, size: 0x8, addend: 0x0, symName: __ZZN5flecs1_9type_nameI13EcsTickSourceEEPKcvE3len, symObjAddr: 0x29988, symBinAddr: 0x6D1BB0, symSize: 0x0 }
  - { offset: 0x60B9, size: 0x8, addend: 0x0, symName: __ZZN5flecs1_9type_nameI13EcsTickSourceEEPKcvE6result, symObjAddr: 0x2A5C0, symBinAddr: 0x843910, symSize: 0x0 }
  - { offset: 0x60CE, size: 0x8, addend: 0x0, symName: __ZZN5flecs1_9type_nameI13EcsTickSourceEEPKcvE9front_len, symObjAddr: 0x29990, symBinAddr: 0x6D1BB8, symSize: 0x0 }
  - { offset: 0x60E3, size: 0x8, addend: 0x0, symName: __ZZN5flecs1_9type_nameI13EcsTickSourceEEPKcvE11cppTypeName, symObjAddr: 0x2A5D0, symBinAddr: 0x843920, symSize: 0x0 }
  - { offset: 0x60F6, size: 0x8, addend: 0x0, symName: __ZN5flecs1_11symbol_nameI13EcsTickSourceEEPKcv, symObjAddr: 0x4C1C, symBinAddr: 0xDDC4, symSize: 0xB8 }
  - { offset: 0x611F, size: 0x8, addend: 0x0, symName: __ZZN5flecs1_11symbol_nameI13EcsTickSourceEEPKcvE3len, symObjAddr: 0x29998, symBinAddr: 0x6D1BC0, symSize: 0x0 }
  - { offset: 0x6134, size: 0x8, addend: 0x0, symName: __ZZN5flecs1_11symbol_nameI13EcsTickSourceEEPKcvE6result, symObjAddr: 0x2A5E0, symBinAddr: 0x843930, symSize: 0x0 }
  - { offset: 0x6149, size: 0x8, addend: 0x0, symName: __ZZN5flecs1_11symbol_nameI13EcsTickSourceEEPKcvE13cppSymbolName, symObjAddr: 0x2A5F0, symBinAddr: 0x843940, symSize: 0x0 }
  - { offset: 0x6162, size: 0x8, addend: 0x0, symName: __ZN5flecs1_9type_implI13EcsRateFilterE7s_indexE, symObjAddr: 0x2A600, symBinAddr: 0x843950, symSize: 0x0 }
  - { offset: 0x6263, size: 0x8, addend: 0x0, symName: __ZN5flecs1_9type_implI13EcsRateFilterE11s_allow_tagE, symObjAddr: 0x2A604, symBinAddr: 0x843954, symSize: 0x0 }
  - { offset: 0x6276, size: 0x8, addend: 0x0, symName: __ZN5flecs1_9type_implI13EcsRateFilterE6s_sizeE, symObjAddr: 0x2A608, symBinAddr: 0x843958, symSize: 0x0 }
  - { offset: 0x6289, size: 0x8, addend: 0x0, symName: __ZN5flecs1_9type_implI13EcsRateFilterE11s_alignmentE, symObjAddr: 0x2A610, symBinAddr: 0x843960, symSize: 0x0 }
  - { offset: 0x6296, size: 0x8, addend: 0x0, symName: __ZN5flecs1_9type_nameI13EcsRateFilterEEPKcv, symObjAddr: 0x5228, symBinAddr: 0xE3D0, symSize: 0xB4 }
  - { offset: 0x62BF, size: 0x8, addend: 0x0, symName: __ZZN5flecs1_9type_nameI13EcsRateFilterEEPKcvE3len, symObjAddr: 0x299A0, symBinAddr: 0x6D1BC8, symSize: 0x0 }
  - { offset: 0x62D4, size: 0x8, addend: 0x0, symName: __ZZN5flecs1_9type_nameI13EcsRateFilterEEPKcvE6result, symObjAddr: 0x2A618, symBinAddr: 0x843968, symSize: 0x0 }
  - { offset: 0x62E9, size: 0x8, addend: 0x0, symName: __ZZN5flecs1_9type_nameI13EcsRateFilterEEPKcvE9front_len, symObjAddr: 0x299A8, symBinAddr: 0x6D1BD0, symSize: 0x0 }
  - { offset: 0x62FE, size: 0x8, addend: 0x0, symName: __ZZN5flecs1_9type_nameI13EcsRateFilterEEPKcvE11cppTypeName, symObjAddr: 0x2A628, symBinAddr: 0x843978, symSize: 0x0 }
  - { offset: 0x6311, size: 0x8, addend: 0x0, symName: __ZN5flecs1_11symbol_nameI13EcsRateFilterEEPKcv, symObjAddr: 0x52DC, symBinAddr: 0xE484, symSize: 0xB8 }
  - { offset: 0x633A, size: 0x8, addend: 0x0, symName: __ZZN5flecs1_11symbol_nameI13EcsRateFilterEEPKcvE3len, symObjAddr: 0x299B0, symBinAddr: 0x6D1BD8, symSize: 0x0 }
  - { offset: 0x634F, size: 0x8, addend: 0x0, symName: __ZZN5flecs1_11symbol_nameI13EcsRateFilterEEPKcvE6result, symObjAddr: 0x2A638, symBinAddr: 0x843988, symSize: 0x0 }
  - { offset: 0x6364, size: 0x8, addend: 0x0, symName: __ZZN5flecs1_11symbol_nameI13EcsRateFilterEEPKcvE13cppSymbolName, symObjAddr: 0x2A648, symBinAddr: 0x843998, symSize: 0x0 }
  - { offset: 0x637D, size: 0x8, addend: 0x0, symName: __ZN5flecs1_9type_implI8EcsTimerE7s_indexE, symObjAddr: 0x2A658, symBinAddr: 0x8439A8, symSize: 0x0 }
  - { offset: 0x647E, size: 0x8, addend: 0x0, symName: __ZN5flecs1_9type_implI8EcsTimerE11s_allow_tagE, symObjAddr: 0x2A65C, symBinAddr: 0x8439AC, symSize: 0x0 }
  - { offset: 0x6491, size: 0x8, addend: 0x0, symName: __ZN5flecs1_9type_implI8EcsTimerE6s_sizeE, symObjAddr: 0x2A660, symBinAddr: 0x8439B0, symSize: 0x0 }
  - { offset: 0x64A4, size: 0x8, addend: 0x0, symName: __ZN5flecs1_9type_implI8EcsTimerE11s_alignmentE, symObjAddr: 0x2A668, symBinAddr: 0x8439B8, symSize: 0x0 }
  - { offset: 0x64B1, size: 0x8, addend: 0x0, symName: __ZN5flecs1_9type_nameI8EcsTimerEEPKcv, symObjAddr: 0x5858, symBinAddr: 0xEA00, symSize: 0xB4 }
  - { offset: 0x64DA, size: 0x8, addend: 0x0, symName: __ZZN5flecs1_9type_nameI8EcsTimerEEPKcvE3len, symObjAddr: 0x299B8, symBinAddr: 0x6D1BE0, symSize: 0x0 }
  - { offset: 0x64EF, size: 0x8, addend: 0x0, symName: __ZZN5flecs1_9type_nameI8EcsTimerEEPKcvE6result, symObjAddr: 0x2A670, symBinAddr: 0x8439C0, symSize: 0x0 }
  - { offset: 0x6504, size: 0x8, addend: 0x0, symName: __ZZN5flecs1_9type_nameI8EcsTimerEEPKcvE9front_len, symObjAddr: 0x299C0, symBinAddr: 0x6D1BE8, symSize: 0x0 }
  - { offset: 0x6519, size: 0x8, addend: 0x0, symName: __ZZN5flecs1_9type_nameI8EcsTimerEEPKcvE11cppTypeName, symObjAddr: 0x2A680, symBinAddr: 0x8439D0, symSize: 0x0 }
  - { offset: 0x652C, size: 0x8, addend: 0x0, symName: __ZN5flecs1_11symbol_nameI8EcsTimerEEPKcv, symObjAddr: 0x590C, symBinAddr: 0xEAB4, symSize: 0xB8 }
  - { offset: 0x6555, size: 0x8, addend: 0x0, symName: __ZZN5flecs1_11symbol_nameI8EcsTimerEEPKcvE3len, symObjAddr: 0x299C8, symBinAddr: 0x6D1BF0, symSize: 0x0 }
  - { offset: 0x656A, size: 0x8, addend: 0x0, symName: __ZZN5flecs1_11symbol_nameI8EcsTimerEEPKcvE6result, symObjAddr: 0x2A690, symBinAddr: 0x8439E0, symSize: 0x0 }
  - { offset: 0x657F, size: 0x8, addend: 0x0, symName: __ZZN5flecs1_11symbol_nameI8EcsTimerEEPKcvE13cppSymbolName, symObjAddr: 0x2A6A0, symBinAddr: 0x8439F0, symSize: 0x0 }
  - { offset: 0x6598, size: 0x8, addend: 0x0, symName: __ZN5flecs1_9type_implI17EcsDocDescriptionE7s_indexE, symObjAddr: 0x2A6B0, symBinAddr: 0x843A00, symSize: 0x0 }
  - { offset: 0x6699, size: 0x8, addend: 0x0, symName: __ZN5flecs1_9type_implI17EcsDocDescriptionE11s_allow_tagE, symObjAddr: 0x2A6B4, symBinAddr: 0x843A04, symSize: 0x0 }
  - { offset: 0x66AC, size: 0x8, addend: 0x0, symName: __ZN5flecs1_9type_implI17EcsDocDescriptionE6s_sizeE, symObjAddr: 0x2A6B8, symBinAddr: 0x843A08, symSize: 0x0 }
  - { offset: 0x66BF, size: 0x8, addend: 0x0, symName: __ZN5flecs1_9type_implI17EcsDocDescriptionE11s_alignmentE, symObjAddr: 0x2A6C0, symBinAddr: 0x843A10, symSize: 0x0 }
  - { offset: 0x66CC, size: 0x8, addend: 0x0, symName: __ZN5flecs1_9type_nameI17EcsDocDescriptionEEPKcv, symObjAddr: 0x5ECC, symBinAddr: 0xF074, symSize: 0xB4 }
  - { offset: 0x66F5, size: 0x8, addend: 0x0, symName: __ZZN5flecs1_9type_nameI17EcsDocDescriptionEEPKcvE3len, symObjAddr: 0x299D0, symBinAddr: 0x6D1BF8, symSize: 0x0 }
  - { offset: 0x670A, size: 0x8, addend: 0x0, symName: __ZZN5flecs1_9type_nameI17EcsDocDescriptionEEPKcvE6result, symObjAddr: 0x2A6C8, symBinAddr: 0x843A18, symSize: 0x0 }
  - { offset: 0x671F, size: 0x8, addend: 0x0, symName: __ZZN5flecs1_9type_nameI17EcsDocDescriptionEEPKcvE9front_len, symObjAddr: 0x299D8, symBinAddr: 0x6D1C00, symSize: 0x0 }
  - { offset: 0x6734, size: 0x8, addend: 0x0, symName: __ZZN5flecs1_9type_nameI17EcsDocDescriptionEEPKcvE11cppTypeName, symObjAddr: 0x2A6E0, symBinAddr: 0x843A30, symSize: 0x0 }
  - { offset: 0x6747, size: 0x8, addend: 0x0, symName: __ZN5flecs1_11symbol_nameI17EcsDocDescriptionEEPKcv, symObjAddr: 0x5F80, symBinAddr: 0xF128, symSize: 0xB8 }
  - { offset: 0x6770, size: 0x8, addend: 0x0, symName: __ZZN5flecs1_11symbol_nameI17EcsDocDescriptionEEPKcvE3len, symObjAddr: 0x299E0, symBinAddr: 0x6D1C08, symSize: 0x0 }
  - { offset: 0x6785, size: 0x8, addend: 0x0, symName: __ZZN5flecs1_11symbol_nameI17EcsDocDescriptionEEPKcvE6result, symObjAddr: 0x2A6F0, symBinAddr: 0x843A40, symSize: 0x0 }
  - { offset: 0x679A, size: 0x8, addend: 0x0, symName: __ZZN5flecs1_11symbol_nameI17EcsDocDescriptionEEPKcvE13cppSymbolName, symObjAddr: 0x2A708, symBinAddr: 0x843A58, symSize: 0x0 }
  - { offset: 0x67B3, size: 0x8, addend: 0x0, symName: __ZN5flecs1_9type_implI7EcsRestE7s_indexE, symObjAddr: 0x2A718, symBinAddr: 0x843A68, symSize: 0x0 }
  - { offset: 0x68B4, size: 0x8, addend: 0x0, symName: __ZN5flecs1_9type_implI7EcsRestE11s_allow_tagE, symObjAddr: 0x2A71C, symBinAddr: 0x843A6C, symSize: 0x0 }
  - { offset: 0x68C7, size: 0x8, addend: 0x0, symName: __ZN5flecs1_9type_implI7EcsRestE6s_sizeE, symObjAddr: 0x2A720, symBinAddr: 0x843A70, symSize: 0x0 }
  - { offset: 0x68DA, size: 0x8, addend: 0x0, symName: __ZN5flecs1_9type_implI7EcsRestE11s_alignmentE, symObjAddr: 0x2A728, symBinAddr: 0x843A78, symSize: 0x0 }
  - { offset: 0x68E7, size: 0x8, addend: 0x0, symName: __ZN5flecs1_9type_nameI7EcsRestEEPKcv, symObjAddr: 0x6544, symBinAddr: 0xF6EC, symSize: 0xB4 }
  - { offset: 0x6910, size: 0x8, addend: 0x0, symName: __ZZN5flecs1_9type_nameI7EcsRestEEPKcvE3len, symObjAddr: 0x299E8, symBinAddr: 0x6D1C10, symSize: 0x0 }
  - { offset: 0x6925, size: 0x8, addend: 0x0, symName: __ZZN5flecs1_9type_nameI7EcsRestEEPKcvE6result, symObjAddr: 0x2A730, symBinAddr: 0x843A80, symSize: 0x0 }
  - { offset: 0x693A, size: 0x8, addend: 0x0, symName: __ZZN5flecs1_9type_nameI7EcsRestEEPKcvE9front_len, symObjAddr: 0x299F0, symBinAddr: 0x6D1C18, symSize: 0x0 }
  - { offset: 0x694F, size: 0x8, addend: 0x0, symName: __ZZN5flecs1_9type_nameI7EcsRestEEPKcvE11cppTypeName, symObjAddr: 0x2A738, symBinAddr: 0x843A88, symSize: 0x0 }
  - { offset: 0x6962, size: 0x8, addend: 0x0, symName: __ZN5flecs1_11symbol_nameI7EcsRestEEPKcv, symObjAddr: 0x65F8, symBinAddr: 0xF7A0, symSize: 0xB8 }
  - { offset: 0x698B, size: 0x8, addend: 0x0, symName: __ZZN5flecs1_11symbol_nameI7EcsRestEEPKcvE3len, symObjAddr: 0x299F8, symBinAddr: 0x6D1C20, symSize: 0x0 }
  - { offset: 0x69A0, size: 0x8, addend: 0x0, symName: __ZZN5flecs1_11symbol_nameI7EcsRestEEPKcvE6result, symObjAddr: 0x2A748, symBinAddr: 0x843A98, symSize: 0x0 }
  - { offset: 0x69B5, size: 0x8, addend: 0x0, symName: __ZZN5flecs1_11symbol_nameI7EcsRestEEPKcvE13cppSymbolName, symObjAddr: 0x2A750, symBinAddr: 0x843AA0, symSize: 0x0 }
  - { offset: 0x69CE, size: 0x8, addend: 0x0, symName: __ZN5flecs1_9type_implIbE7s_indexE, symObjAddr: 0x2A760, symBinAddr: 0x843AB0, symSize: 0x0 }
  - { offset: 0x6ACF, size: 0x8, addend: 0x0, symName: __ZN5flecs1_9type_implIbE11s_allow_tagE, symObjAddr: 0x2A764, symBinAddr: 0x843AB4, symSize: 0x0 }
  - { offset: 0x6AE2, size: 0x8, addend: 0x0, symName: __ZN5flecs1_9type_implIbE6s_sizeE, symObjAddr: 0x2A768, symBinAddr: 0x843AB8, symSize: 0x0 }
  - { offset: 0x6AF5, size: 0x8, addend: 0x0, symName: __ZN5flecs1_9type_implIbE11s_alignmentE, symObjAddr: 0x2A770, symBinAddr: 0x843AC0, symSize: 0x0 }
  - { offset: 0x6B02, size: 0x8, addend: 0x0, symName: __ZN5flecs1_9type_nameIbEEPKcv, symObjAddr: 0x74CC, symBinAddr: 0x10674, symSize: 0xB4 }
  - { offset: 0x6B2B, size: 0x8, addend: 0x0, symName: __ZZN5flecs1_9type_nameIbEEPKcvE3len, symObjAddr: 0x29A00, symBinAddr: 0x6D1C28, symSize: 0x0 }
  - { offset: 0x6B40, size: 0x8, addend: 0x0, symName: __ZZN5flecs1_9type_nameIbEEPKcvE6result, symObjAddr: 0x2A778, symBinAddr: 0x843AC8, symSize: 0x0 }
  - { offset: 0x6B55, size: 0x8, addend: 0x0, symName: __ZZN5flecs1_9type_nameIbEEPKcvE9front_len, symObjAddr: 0x29A08, symBinAddr: 0x6D1C30, symSize: 0x0 }
  - { offset: 0x6B6A, size: 0x8, addend: 0x0, symName: __ZZN5flecs1_9type_nameIbEEPKcvE11cppTypeName, symObjAddr: 0x2A780, symBinAddr: 0x843AD0, symSize: 0x0 }
  - { offset: 0x6B7D, size: 0x8, addend: 0x0, symName: __ZN5flecs1_11symbol_nameIbEEPKcv, symObjAddr: 0x7580, symBinAddr: 0x10728, symSize: 0xB8 }
  - { offset: 0x6BA6, size: 0x8, addend: 0x0, symName: __ZZN5flecs1_11symbol_nameIbEEPKcvE3len, symObjAddr: 0x29A10, symBinAddr: 0x6D1C38, symSize: 0x0 }
  - { offset: 0x6BBB, size: 0x8, addend: 0x0, symName: __ZZN5flecs1_11symbol_nameIbEEPKcvE6result, symObjAddr: 0x2A790, symBinAddr: 0x843AE0, symSize: 0x0 }
  - { offset: 0x6BD0, size: 0x8, addend: 0x0, symName: __ZZN5flecs1_11symbol_nameIbEEPKcvE13cppSymbolName, symObjAddr: 0x2A798, symBinAddr: 0x843AE8, symSize: 0x0 }
  - { offset: 0x6BE9, size: 0x8, addend: 0x0, symName: __ZN5flecs1_9type_implIcE7s_indexE, symObjAddr: 0x2A7A8, symBinAddr: 0x843AF8, symSize: 0x0 }
  - { offset: 0x6CEA, size: 0x8, addend: 0x0, symName: __ZN5flecs1_9type_implIcE11s_allow_tagE, symObjAddr: 0x2A7AC, symBinAddr: 0x843AFC, symSize: 0x0 }
  - { offset: 0x6CFD, size: 0x8, addend: 0x0, symName: __ZN5flecs1_9type_implIcE6s_sizeE, symObjAddr: 0x2A7B0, symBinAddr: 0x843B00, symSize: 0x0 }
  - { offset: 0x6D10, size: 0x8, addend: 0x0, symName: __ZN5flecs1_9type_implIcE11s_alignmentE, symObjAddr: 0x2A7B8, symBinAddr: 0x843B08, symSize: 0x0 }
  - { offset: 0x6D1D, size: 0x8, addend: 0x0, symName: __ZN5flecs1_9type_nameIcEEPKcv, symObjAddr: 0x7AF8, symBinAddr: 0x10CA0, symSize: 0xB4 }
  - { offset: 0x6D46, size: 0x8, addend: 0x0, symName: __ZZN5flecs1_9type_nameIcEEPKcvE3len, symObjAddr: 0x29A18, symBinAddr: 0x6D1C40, symSize: 0x0 }
  - { offset: 0x6D5B, size: 0x8, addend: 0x0, symName: __ZZN5flecs1_9type_nameIcEEPKcvE6result, symObjAddr: 0x2A7C0, symBinAddr: 0x843B10, symSize: 0x0 }
  - { offset: 0x6D70, size: 0x8, addend: 0x0, symName: __ZZN5flecs1_9type_nameIcEEPKcvE9front_len, symObjAddr: 0x29A20, symBinAddr: 0x6D1C48, symSize: 0x0 }
  - { offset: 0x6D85, size: 0x8, addend: 0x0, symName: __ZZN5flecs1_9type_nameIcEEPKcvE11cppTypeName, symObjAddr: 0x2A7C8, symBinAddr: 0x843B18, symSize: 0x0 }
  - { offset: 0x6D98, size: 0x8, addend: 0x0, symName: __ZN5flecs1_11symbol_nameIcEEPKcv, symObjAddr: 0x7BAC, symBinAddr: 0x10D54, symSize: 0xB8 }
  - { offset: 0x6DC1, size: 0x8, addend: 0x0, symName: __ZZN5flecs1_11symbol_nameIcEEPKcvE3len, symObjAddr: 0x29A28, symBinAddr: 0x6D1C50, symSize: 0x0 }
  - { offset: 0x6DD6, size: 0x8, addend: 0x0, symName: __ZZN5flecs1_11symbol_nameIcEEPKcvE6result, symObjAddr: 0x2A7D8, symBinAddr: 0x843B28, symSize: 0x0 }
  - { offset: 0x6DEB, size: 0x8, addend: 0x0, symName: __ZZN5flecs1_11symbol_nameIcEEPKcvE13cppSymbolName, symObjAddr: 0x2A7E0, symBinAddr: 0x843B30, symSize: 0x0 }
  - { offset: 0x6E04, size: 0x8, addend: 0x0, symName: __ZN5flecs1_9type_implIhE7s_indexE, symObjAddr: 0x2A7F0, symBinAddr: 0x843B40, symSize: 0x0 }
  - { offset: 0x6F05, size: 0x8, addend: 0x0, symName: __ZN5flecs1_9type_implIhE11s_allow_tagE, symObjAddr: 0x2A7F4, symBinAddr: 0x843B44, symSize: 0x0 }
  - { offset: 0x6F18, size: 0x8, addend: 0x0, symName: __ZN5flecs1_9type_implIhE6s_sizeE, symObjAddr: 0x2A7F8, symBinAddr: 0x843B48, symSize: 0x0 }
  - { offset: 0x6F2B, size: 0x8, addend: 0x0, symName: __ZN5flecs1_9type_implIhE11s_alignmentE, symObjAddr: 0x2A800, symBinAddr: 0x843B50, symSize: 0x0 }
  - { offset: 0x6F38, size: 0x8, addend: 0x0, symName: __ZN5flecs1_9type_nameIhEEPKcv, symObjAddr: 0x8124, symBinAddr: 0x112CC, symSize: 0xB4 }
  - { offset: 0x6F61, size: 0x8, addend: 0x0, symName: __ZZN5flecs1_9type_nameIhEEPKcvE3len, symObjAddr: 0x29A30, symBinAddr: 0x6D1C58, symSize: 0x0 }
  - { offset: 0x6F76, size: 0x8, addend: 0x0, symName: __ZZN5flecs1_9type_nameIhEEPKcvE6result, symObjAddr: 0x2A808, symBinAddr: 0x843B58, symSize: 0x0 }
  - { offset: 0x6F8B, size: 0x8, addend: 0x0, symName: __ZZN5flecs1_9type_nameIhEEPKcvE9front_len, symObjAddr: 0x29A38, symBinAddr: 0x6D1C60, symSize: 0x0 }
  - { offset: 0x6FA0, size: 0x8, addend: 0x0, symName: __ZZN5flecs1_9type_nameIhEEPKcvE11cppTypeName, symObjAddr: 0x2A818, symBinAddr: 0x843B68, symSize: 0x0 }
  - { offset: 0x6FB9, size: 0x8, addend: 0x0, symName: __ZN5flecs1_9type_implItE7s_indexE, symObjAddr: 0x2A828, symBinAddr: 0x843B78, symSize: 0x0 }
  - { offset: 0x70BA, size: 0x8, addend: 0x0, symName: __ZN5flecs1_9type_implItE11s_allow_tagE, symObjAddr: 0x2A82C, symBinAddr: 0x843B7C, symSize: 0x0 }
  - { offset: 0x70CD, size: 0x8, addend: 0x0, symName: __ZN5flecs1_9type_implItE6s_sizeE, symObjAddr: 0x2A830, symBinAddr: 0x843B80, symSize: 0x0 }
  - { offset: 0x70E0, size: 0x8, addend: 0x0, symName: __ZN5flecs1_9type_implItE11s_alignmentE, symObjAddr: 0x2A838, symBinAddr: 0x843B88, symSize: 0x0 }
  - { offset: 0x70ED, size: 0x8, addend: 0x0, symName: __ZN5flecs1_9type_nameItEEPKcv, symObjAddr: 0x86A4, symBinAddr: 0x1184C, symSize: 0xB4 }
  - { offset: 0x7116, size: 0x8, addend: 0x0, symName: __ZZN5flecs1_9type_nameItEEPKcvE3len, symObjAddr: 0x29A40, symBinAddr: 0x6D1C68, symSize: 0x0 }
  - { offset: 0x712B, size: 0x8, addend: 0x0, symName: __ZZN5flecs1_9type_nameItEEPKcvE6result, symObjAddr: 0x2A840, symBinAddr: 0x843B90, symSize: 0x0 }
  - { offset: 0x7140, size: 0x8, addend: 0x0, symName: __ZZN5flecs1_9type_nameItEEPKcvE9front_len, symObjAddr: 0x29A48, symBinAddr: 0x6D1C70, symSize: 0x0 }
  - { offset: 0x7155, size: 0x8, addend: 0x0, symName: __ZZN5flecs1_9type_nameItEEPKcvE11cppTypeName, symObjAddr: 0x2A850, symBinAddr: 0x843BA0, symSize: 0x0 }
  - { offset: 0x716E, size: 0x8, addend: 0x0, symName: __ZN5flecs1_9type_implIjE7s_indexE, symObjAddr: 0x2A860, symBinAddr: 0x843BB0, symSize: 0x0 }
  - { offset: 0x726F, size: 0x8, addend: 0x0, symName: __ZN5flecs1_9type_implIjE11s_allow_tagE, symObjAddr: 0x2A864, symBinAddr: 0x843BB4, symSize: 0x0 }
  - { offset: 0x7282, size: 0x8, addend: 0x0, symName: __ZN5flecs1_9type_implIjE6s_sizeE, symObjAddr: 0x2A868, symBinAddr: 0x843BB8, symSize: 0x0 }
  - { offset: 0x7295, size: 0x8, addend: 0x0, symName: __ZN5flecs1_9type_implIjE11s_alignmentE, symObjAddr: 0x2A870, symBinAddr: 0x843BC0, symSize: 0x0 }
  - { offset: 0x72A2, size: 0x8, addend: 0x0, symName: __ZN5flecs1_9type_nameIjEEPKcv, symObjAddr: 0x8C24, symBinAddr: 0x11DCC, symSize: 0xB4 }
  - { offset: 0x72CB, size: 0x8, addend: 0x0, symName: __ZZN5flecs1_9type_nameIjEEPKcvE3len, symObjAddr: 0x29A50, symBinAddr: 0x6D1C78, symSize: 0x0 }
  - { offset: 0x72E0, size: 0x8, addend: 0x0, symName: __ZZN5flecs1_9type_nameIjEEPKcvE6result, symObjAddr: 0x2A878, symBinAddr: 0x843BC8, symSize: 0x0 }
  - { offset: 0x72F5, size: 0x8, addend: 0x0, symName: __ZZN5flecs1_9type_nameIjEEPKcvE9front_len, symObjAddr: 0x29A58, symBinAddr: 0x6D1C80, symSize: 0x0 }
  - { offset: 0x730A, size: 0x8, addend: 0x0, symName: __ZZN5flecs1_9type_nameIjEEPKcvE11cppTypeName, symObjAddr: 0x2A888, symBinAddr: 0x843BD8, symSize: 0x0 }
  - { offset: 0x7323, size: 0x8, addend: 0x0, symName: __ZN5flecs1_9type_implIyE7s_indexE, symObjAddr: 0x2A898, symBinAddr: 0x843BE8, symSize: 0x0 }
  - { offset: 0x7424, size: 0x8, addend: 0x0, symName: __ZN5flecs1_9type_implIyE11s_allow_tagE, symObjAddr: 0x2A89C, symBinAddr: 0x843BEC, symSize: 0x0 }
  - { offset: 0x7437, size: 0x8, addend: 0x0, symName: __ZN5flecs1_9type_implIyE6s_sizeE, symObjAddr: 0x2A8A0, symBinAddr: 0x843BF0, symSize: 0x0 }
  - { offset: 0x744A, size: 0x8, addend: 0x0, symName: __ZN5flecs1_9type_implIyE11s_alignmentE, symObjAddr: 0x2A8A8, symBinAddr: 0x843BF8, symSize: 0x0 }
  - { offset: 0x7457, size: 0x8, addend: 0x0, symName: __ZN5flecs1_9type_nameIyEEPKcv, symObjAddr: 0x91A4, symBinAddr: 0x1234C, symSize: 0xB4 }
  - { offset: 0x7480, size: 0x8, addend: 0x0, symName: __ZZN5flecs1_9type_nameIyEEPKcvE3len, symObjAddr: 0x29A60, symBinAddr: 0x6D1C88, symSize: 0x0 }
  - { offset: 0x7495, size: 0x8, addend: 0x0, symName: __ZZN5flecs1_9type_nameIyEEPKcvE6result, symObjAddr: 0x2A8B0, symBinAddr: 0x843C00, symSize: 0x0 }
  - { offset: 0x74AA, size: 0x8, addend: 0x0, symName: __ZZN5flecs1_9type_nameIyEEPKcvE9front_len, symObjAddr: 0x29A68, symBinAddr: 0x6D1C90, symSize: 0x0 }
  - { offset: 0x74BF, size: 0x8, addend: 0x0, symName: __ZZN5flecs1_9type_nameIyEEPKcvE11cppTypeName, symObjAddr: 0x2A8C8, symBinAddr: 0x843C18, symSize: 0x0 }
  - { offset: 0x74D8, size: 0x8, addend: 0x0, symName: __ZN5flecs1_9type_implIaE7s_indexE, symObjAddr: 0x2A8D8, symBinAddr: 0x843C28, symSize: 0x0 }
  - { offset: 0x75D9, size: 0x8, addend: 0x0, symName: __ZN5flecs1_9type_implIaE11s_allow_tagE, symObjAddr: 0x2A8DC, symBinAddr: 0x843C2C, symSize: 0x0 }
  - { offset: 0x75EC, size: 0x8, addend: 0x0, symName: __ZN5flecs1_9type_implIaE6s_sizeE, symObjAddr: 0x2A8E0, symBinAddr: 0x843C30, symSize: 0x0 }
  - { offset: 0x75FF, size: 0x8, addend: 0x0, symName: __ZN5flecs1_9type_implIaE11s_alignmentE, symObjAddr: 0x2A8E8, symBinAddr: 0x843C38, symSize: 0x0 }
  - { offset: 0x760C, size: 0x8, addend: 0x0, symName: __ZN5flecs1_9type_nameIaEEPKcv, symObjAddr: 0x9724, symBinAddr: 0x128CC, symSize: 0xB4 }
  - { offset: 0x7635, size: 0x8, addend: 0x0, symName: __ZZN5flecs1_9type_nameIaEEPKcvE3len, symObjAddr: 0x29A70, symBinAddr: 0x6D1C98, symSize: 0x0 }
  - { offset: 0x764A, size: 0x8, addend: 0x0, symName: __ZZN5flecs1_9type_nameIaEEPKcvE6result, symObjAddr: 0x2A8F0, symBinAddr: 0x843C40, symSize: 0x0 }
  - { offset: 0x765F, size: 0x8, addend: 0x0, symName: __ZZN5flecs1_9type_nameIaEEPKcvE9front_len, symObjAddr: 0x29A78, symBinAddr: 0x6D1CA0, symSize: 0x0 }
  - { offset: 0x7674, size: 0x8, addend: 0x0, symName: __ZZN5flecs1_9type_nameIaEEPKcvE11cppTypeName, symObjAddr: 0x2A900, symBinAddr: 0x843C50, symSize: 0x0 }
  - { offset: 0x768D, size: 0x8, addend: 0x0, symName: __ZN5flecs1_9type_implIsE7s_indexE, symObjAddr: 0x2A910, symBinAddr: 0x843C60, symSize: 0x0 }
  - { offset: 0x778E, size: 0x8, addend: 0x0, symName: __ZN5flecs1_9type_implIsE11s_allow_tagE, symObjAddr: 0x2A914, symBinAddr: 0x843C64, symSize: 0x0 }
  - { offset: 0x77A1, size: 0x8, addend: 0x0, symName: __ZN5flecs1_9type_implIsE6s_sizeE, symObjAddr: 0x2A918, symBinAddr: 0x843C68, symSize: 0x0 }
  - { offset: 0x77B4, size: 0x8, addend: 0x0, symName: __ZN5flecs1_9type_implIsE11s_alignmentE, symObjAddr: 0x2A920, symBinAddr: 0x843C70, symSize: 0x0 }
  - { offset: 0x77C1, size: 0x8, addend: 0x0, symName: __ZN5flecs1_9type_nameIsEEPKcv, symObjAddr: 0x9CA4, symBinAddr: 0x12E4C, symSize: 0xB4 }
  - { offset: 0x77EA, size: 0x8, addend: 0x0, symName: __ZZN5flecs1_9type_nameIsEEPKcvE3len, symObjAddr: 0x29A80, symBinAddr: 0x6D1CA8, symSize: 0x0 }
  - { offset: 0x77FF, size: 0x8, addend: 0x0, symName: __ZZN5flecs1_9type_nameIsEEPKcvE6result, symObjAddr: 0x2A928, symBinAddr: 0x843C78, symSize: 0x0 }
  - { offset: 0x7814, size: 0x8, addend: 0x0, symName: __ZZN5flecs1_9type_nameIsEEPKcvE9front_len, symObjAddr: 0x29A88, symBinAddr: 0x6D1CB0, symSize: 0x0 }
  - { offset: 0x7829, size: 0x8, addend: 0x0, symName: __ZZN5flecs1_9type_nameIsEEPKcvE11cppTypeName, symObjAddr: 0x2A930, symBinAddr: 0x843C80, symSize: 0x0 }
  - { offset: 0x7842, size: 0x8, addend: 0x0, symName: __ZN5flecs1_9type_implIiE7s_indexE, symObjAddr: 0x2A940, symBinAddr: 0x843C90, symSize: 0x0 }
  - { offset: 0x7943, size: 0x8, addend: 0x0, symName: __ZN5flecs1_9type_implIiE11s_allow_tagE, symObjAddr: 0x2A944, symBinAddr: 0x843C94, symSize: 0x0 }
  - { offset: 0x7956, size: 0x8, addend: 0x0, symName: __ZN5flecs1_9type_implIiE6s_sizeE, symObjAddr: 0x2A948, symBinAddr: 0x843C98, symSize: 0x0 }
  - { offset: 0x7969, size: 0x8, addend: 0x0, symName: __ZN5flecs1_9type_implIiE11s_alignmentE, symObjAddr: 0x2A950, symBinAddr: 0x843CA0, symSize: 0x0 }
  - { offset: 0x7976, size: 0x8, addend: 0x0, symName: __ZN5flecs1_9type_nameIiEEPKcv, symObjAddr: 0xA224, symBinAddr: 0x133CC, symSize: 0xB4 }
  - { offset: 0x799F, size: 0x8, addend: 0x0, symName: __ZZN5flecs1_9type_nameIiEEPKcvE3len, symObjAddr: 0x29A90, symBinAddr: 0x6D1CB8, symSize: 0x0 }
  - { offset: 0x79B4, size: 0x8, addend: 0x0, symName: __ZZN5flecs1_9type_nameIiEEPKcvE6result, symObjAddr: 0x2A958, symBinAddr: 0x843CA8, symSize: 0x0 }
  - { offset: 0x79C9, size: 0x8, addend: 0x0, symName: __ZZN5flecs1_9type_nameIiEEPKcvE9front_len, symObjAddr: 0x29A98, symBinAddr: 0x6D1CC0, symSize: 0x0 }
  - { offset: 0x79DE, size: 0x8, addend: 0x0, symName: __ZZN5flecs1_9type_nameIiEEPKcvE11cppTypeName, symObjAddr: 0x2A960, symBinAddr: 0x843CB0, symSize: 0x0 }
  - { offset: 0x79F7, size: 0x8, addend: 0x0, symName: __ZN5flecs1_9type_implIxE7s_indexE, symObjAddr: 0x2A970, symBinAddr: 0x843CC0, symSize: 0x0 }
  - { offset: 0x7AF8, size: 0x8, addend: 0x0, symName: __ZN5flecs1_9type_implIxE11s_allow_tagE, symObjAddr: 0x2A974, symBinAddr: 0x843CC4, symSize: 0x0 }
  - { offset: 0x7B0B, size: 0x8, addend: 0x0, symName: __ZN5flecs1_9type_implIxE6s_sizeE, symObjAddr: 0x2A978, symBinAddr: 0x843CC8, symSize: 0x0 }
  - { offset: 0x7B1E, size: 0x8, addend: 0x0, symName: __ZN5flecs1_9type_implIxE11s_alignmentE, symObjAddr: 0x2A980, symBinAddr: 0x843CD0, symSize: 0x0 }
  - { offset: 0x7B2B, size: 0x8, addend: 0x0, symName: __ZN5flecs1_9type_nameIxEEPKcv, symObjAddr: 0xA7A4, symBinAddr: 0x1394C, symSize: 0xB4 }
  - { offset: 0x7B54, size: 0x8, addend: 0x0, symName: __ZZN5flecs1_9type_nameIxEEPKcvE3len, symObjAddr: 0x29AA0, symBinAddr: 0x6D1CC8, symSize: 0x0 }
  - { offset: 0x7B69, size: 0x8, addend: 0x0, symName: __ZZN5flecs1_9type_nameIxEEPKcvE6result, symObjAddr: 0x2A988, symBinAddr: 0x843CD8, symSize: 0x0 }
  - { offset: 0x7B7E, size: 0x8, addend: 0x0, symName: __ZZN5flecs1_9type_nameIxEEPKcvE9front_len, symObjAddr: 0x29AA8, symBinAddr: 0x6D1CD0, symSize: 0x0 }
  - { offset: 0x7B93, size: 0x8, addend: 0x0, symName: __ZZN5flecs1_9type_nameIxEEPKcvE11cppTypeName, symObjAddr: 0x2A998, symBinAddr: 0x843CE8, symSize: 0x0 }
  - { offset: 0x7BAC, size: 0x8, addend: 0x0, symName: __ZN5flecs1_9type_implIfE7s_indexE, symObjAddr: 0x2A9A8, symBinAddr: 0x843CF8, symSize: 0x0 }
  - { offset: 0x7CAD, size: 0x8, addend: 0x0, symName: __ZN5flecs1_9type_implIfE11s_allow_tagE, symObjAddr: 0x2A9AC, symBinAddr: 0x843CFC, symSize: 0x0 }
  - { offset: 0x7CC0, size: 0x8, addend: 0x0, symName: __ZN5flecs1_9type_implIfE6s_sizeE, symObjAddr: 0x2A9B0, symBinAddr: 0x843D00, symSize: 0x0 }
  - { offset: 0x7CD3, size: 0x8, addend: 0x0, symName: __ZN5flecs1_9type_implIfE11s_alignmentE, symObjAddr: 0x2A9B8, symBinAddr: 0x843D08, symSize: 0x0 }
  - { offset: 0x7CE0, size: 0x8, addend: 0x0, symName: __ZN5flecs1_9type_nameIfEEPKcv, symObjAddr: 0xAD24, symBinAddr: 0x13ECC, symSize: 0xB4 }
  - { offset: 0x7D09, size: 0x8, addend: 0x0, symName: __ZZN5flecs1_9type_nameIfEEPKcvE3len, symObjAddr: 0x29AB0, symBinAddr: 0x6D1CD8, symSize: 0x0 }
  - { offset: 0x7D1E, size: 0x8, addend: 0x0, symName: __ZZN5flecs1_9type_nameIfEEPKcvE6result, symObjAddr: 0x2A9C0, symBinAddr: 0x843D10, symSize: 0x0 }
  - { offset: 0x7D33, size: 0x8, addend: 0x0, symName: __ZZN5flecs1_9type_nameIfEEPKcvE9front_len, symObjAddr: 0x29AB8, symBinAddr: 0x6D1CE0, symSize: 0x0 }
  - { offset: 0x7D48, size: 0x8, addend: 0x0, symName: __ZZN5flecs1_9type_nameIfEEPKcvE11cppTypeName, symObjAddr: 0x2A9C8, symBinAddr: 0x843D18, symSize: 0x0 }
  - { offset: 0x7D61, size: 0x8, addend: 0x0, symName: __ZN5flecs1_9type_implIdE7s_indexE, symObjAddr: 0x2A9D8, symBinAddr: 0x843D28, symSize: 0x0 }
  - { offset: 0x7E62, size: 0x8, addend: 0x0, symName: __ZN5flecs1_9type_implIdE11s_allow_tagE, symObjAddr: 0x2A9DC, symBinAddr: 0x843D2C, symSize: 0x0 }
  - { offset: 0x7E75, size: 0x8, addend: 0x0, symName: __ZN5flecs1_9type_implIdE6s_sizeE, symObjAddr: 0x2A9E0, symBinAddr: 0x843D30, symSize: 0x0 }
  - { offset: 0x7E88, size: 0x8, addend: 0x0, symName: __ZN5flecs1_9type_implIdE11s_alignmentE, symObjAddr: 0x2A9E8, symBinAddr: 0x843D38, symSize: 0x0 }
  - { offset: 0x7E95, size: 0x8, addend: 0x0, symName: __ZN5flecs1_9type_nameIdEEPKcv, symObjAddr: 0xB2A4, symBinAddr: 0x1444C, symSize: 0xB4 }
  - { offset: 0x7EBE, size: 0x8, addend: 0x0, symName: __ZZN5flecs1_9type_nameIdEEPKcvE3len, symObjAddr: 0x29AC0, symBinAddr: 0x6D1CE8, symSize: 0x0 }
  - { offset: 0x7ED3, size: 0x8, addend: 0x0, symName: __ZZN5flecs1_9type_nameIdEEPKcvE6result, symObjAddr: 0x2A9F0, symBinAddr: 0x843D40, symSize: 0x0 }
  - { offset: 0x7EE8, size: 0x8, addend: 0x0, symName: __ZZN5flecs1_9type_nameIdEEPKcvE9front_len, symObjAddr: 0x29AC8, symBinAddr: 0x6D1CF0, symSize: 0x0 }
  - { offset: 0x7EFD, size: 0x8, addend: 0x0, symName: __ZZN5flecs1_9type_nameIdEEPKcvE11cppTypeName, symObjAddr: 0x2A9F8, symBinAddr: 0x843D48, symSize: 0x0 }
  - { offset: 0x7F16, size: 0x8, addend: 0x0, symName: __ZN5flecs1_9type_implI15ecs_type_kind_tE7s_indexE, symObjAddr: 0x2AA08, symBinAddr: 0x843D58, symSize: 0x0 }
  - { offset: 0x8017, size: 0x8, addend: 0x0, symName: __ZN5flecs1_9type_implI15ecs_type_kind_tE11s_allow_tagE, symObjAddr: 0x2AA0C, symBinAddr: 0x843D5C, symSize: 0x0 }
  - { offset: 0x802A, size: 0x8, addend: 0x0, symName: __ZN5flecs1_9type_implI15ecs_type_kind_tE6s_sizeE, symObjAddr: 0x2AA10, symBinAddr: 0x843D60, symSize: 0x0 }
  - { offset: 0x803D, size: 0x8, addend: 0x0, symName: __ZN5flecs1_9type_implI15ecs_type_kind_tE11s_alignmentE, symObjAddr: 0x2AA18, symBinAddr: 0x843D68, symSize: 0x0 }
  - { offset: 0x804A, size: 0x8, addend: 0x0, symName: __ZN5flecs1_9type_nameI15ecs_type_kind_tEEPKcv, symObjAddr: 0xB824, symBinAddr: 0x149CC, symSize: 0xB4 }
  - { offset: 0x8073, size: 0x8, addend: 0x0, symName: __ZZN5flecs1_9type_nameI15ecs_type_kind_tEEPKcvE3len, symObjAddr: 0x29AD0, symBinAddr: 0x6D1CF8, symSize: 0x0 }
  - { offset: 0x8088, size: 0x8, addend: 0x0, symName: __ZZN5flecs1_9type_nameI15ecs_type_kind_tEEPKcvE6result, symObjAddr: 0x2AA20, symBinAddr: 0x843D70, symSize: 0x0 }
  - { offset: 0x809D, size: 0x8, addend: 0x0, symName: __ZZN5flecs1_9type_nameI15ecs_type_kind_tEEPKcvE9front_len, symObjAddr: 0x29AD8, symBinAddr: 0x6D1D00, symSize: 0x0 }
  - { offset: 0x80B2, size: 0x8, addend: 0x0, symName: __ZZN5flecs1_9type_nameI15ecs_type_kind_tEEPKcvE11cppTypeName, symObjAddr: 0x2AA30, symBinAddr: 0x843D80, symSize: 0x0 }
  - { offset: 0x80C5, size: 0x8, addend: 0x0, symName: __ZN5flecs1_11symbol_nameI15ecs_type_kind_tEEPKcv, symObjAddr: 0xB8D8, symBinAddr: 0x14A80, symSize: 0xB8 }
  - { offset: 0x80EE, size: 0x8, addend: 0x0, symName: __ZZN5flecs1_11symbol_nameI15ecs_type_kind_tEEPKcvE3len, symObjAddr: 0x29AE0, symBinAddr: 0x6D1D08, symSize: 0x0 }
  - { offset: 0x8103, size: 0x8, addend: 0x0, symName: __ZZN5flecs1_11symbol_nameI15ecs_type_kind_tEEPKcvE6result, symObjAddr: 0x2AA40, symBinAddr: 0x843D90, symSize: 0x0 }
  - { offset: 0x8118, size: 0x8, addend: 0x0, symName: __ZZN5flecs1_11symbol_nameI15ecs_type_kind_tEEPKcvE13cppSymbolName, symObjAddr: 0x2AA50, symBinAddr: 0x843DA0, symSize: 0x0 }
  - { offset: 0x8897, size: 0x8, addend: 0x0, symName: __ZN5flecs1_L21enum_constant_to_nameI15ecs_type_kind_tLS2_6EEEPKcv, symObjAddr: 0xC9E8, symBinAddr: 0x15B90, symSize: 0x40 }
  - { offset: 0x88CB, size: 0x8, addend: 0x0, symName: __ZZN5flecs1_L21enum_constant_to_nameI15ecs_type_kind_tLS2_6EEEPKcvE6result, symObjAddr: 0x15F6C8, symBinAddr: 0x858E20, symSize: 0x0 }
  - { offset: 0x88E8, size: 0x8, addend: 0x0, symName: __ZN5flecs1_L21enum_constant_to_nameI15ecs_type_kind_tLS2_5EEEPKcv, symObjAddr: 0xCF00, symBinAddr: 0x160A8, symSize: 0x40 }
  - { offset: 0x891C, size: 0x8, addend: 0x0, symName: __ZZN5flecs1_L21enum_constant_to_nameI15ecs_type_kind_tLS2_5EEEPKcvE6result, symObjAddr: 0x15F6EB, symBinAddr: 0x858E43, symSize: 0x0 }
  - { offset: 0x8939, size: 0x8, addend: 0x0, symName: __ZN5flecs1_L21enum_constant_to_nameI15ecs_type_kind_tLS2_4EEEPKcv, symObjAddr: 0xCF40, symBinAddr: 0x160E8, symSize: 0x40 }
  - { offset: 0x896D, size: 0x8, addend: 0x0, symName: __ZZN5flecs1_L21enum_constant_to_nameI15ecs_type_kind_tLS2_4EEEPKcvE6result, symObjAddr: 0x15F70E, symBinAddr: 0x858E66, symSize: 0x0 }
  - { offset: 0x898A, size: 0x8, addend: 0x0, symName: __ZN5flecs1_L21enum_constant_to_nameI15ecs_type_kind_tLS2_3EEEPKcv, symObjAddr: 0xD4A4, symBinAddr: 0x1664C, symSize: 0x40 }
  - { offset: 0x89BE, size: 0x8, addend: 0x0, symName: __ZZN5flecs1_L21enum_constant_to_nameI15ecs_type_kind_tLS2_3EEEPKcvE6result, symObjAddr: 0x15F730, symBinAddr: 0x858E88, symSize: 0x0 }
  - { offset: 0x89DB, size: 0x8, addend: 0x0, symName: __ZN5flecs1_L21enum_constant_to_nameI15ecs_type_kind_tLS2_2EEEPKcv, symObjAddr: 0xD4E4, symBinAddr: 0x1668C, symSize: 0x40 }
  - { offset: 0x8A0F, size: 0x8, addend: 0x0, symName: __ZZN5flecs1_L21enum_constant_to_nameI15ecs_type_kind_tLS2_2EEEPKcvE6result, symObjAddr: 0x15F753, symBinAddr: 0x858EAB, symSize: 0x0 }
  - { offset: 0x8A2C, size: 0x8, addend: 0x0, symName: __ZN5flecs1_L21enum_constant_to_nameI15ecs_type_kind_tLS2_1EEEPKcv, symObjAddr: 0xD9DC, symBinAddr: 0x16B84, symSize: 0x40 }
  - { offset: 0x8A60, size: 0x8, addend: 0x0, symName: __ZZN5flecs1_L21enum_constant_to_nameI15ecs_type_kind_tLS2_1EEEPKcvE6result, symObjAddr: 0x15F774, symBinAddr: 0x858ECC, symSize: 0x0 }
  - { offset: 0x8A7D, size: 0x8, addend: 0x0, symName: __ZN5flecs1_L21enum_constant_to_nameI15ecs_type_kind_tLS2_0EEEPKcv, symObjAddr: 0xDA30, symBinAddr: 0x16BD8, symSize: 0x40 }
  - { offset: 0x8AB1, size: 0x8, addend: 0x0, symName: __ZZN5flecs1_L21enum_constant_to_nameI15ecs_type_kind_tLS2_0EEEPKcvE6result, symObjAddr: 0x15F798, symBinAddr: 0x858EF0, symSize: 0x0 }
  - { offset: 0x8AD4, size: 0x8, addend: 0x0, symName: __ZN5flecs1_9type_implI20ecs_primitive_kind_tE7s_indexE, symObjAddr: 0x2B680, symBinAddr: 0x8449D0, symSize: 0x0 }
  - { offset: 0x8BD5, size: 0x8, addend: 0x0, symName: __ZN5flecs1_9type_implI20ecs_primitive_kind_tE11s_allow_tagE, symObjAddr: 0x2B684, symBinAddr: 0x8449D4, symSize: 0x0 }
  - { offset: 0x8BE8, size: 0x8, addend: 0x0, symName: __ZN5flecs1_9type_implI20ecs_primitive_kind_tE6s_sizeE, symObjAddr: 0x2B688, symBinAddr: 0x8449D8, symSize: 0x0 }
  - { offset: 0x8BFB, size: 0x8, addend: 0x0, symName: __ZN5flecs1_9type_implI20ecs_primitive_kind_tE11s_alignmentE, symObjAddr: 0x2B690, symBinAddr: 0x8449E0, symSize: 0x0 }
  - { offset: 0x8C08, size: 0x8, addend: 0x0, symName: __ZN5flecs1_9type_nameI20ecs_primitive_kind_tEEPKcv, symObjAddr: 0xDEC4, symBinAddr: 0x1706C, symSize: 0xB4 }
  - { offset: 0x8C31, size: 0x8, addend: 0x0, symName: __ZZN5flecs1_9type_nameI20ecs_primitive_kind_tEEPKcvE3len, symObjAddr: 0x29B20, symBinAddr: 0x6D1D10, symSize: 0x0 }
  - { offset: 0x8C46, size: 0x8, addend: 0x0, symName: __ZZN5flecs1_9type_nameI20ecs_primitive_kind_tEEPKcvE6result, symObjAddr: 0x2B698, symBinAddr: 0x8449E8, symSize: 0x0 }
  - { offset: 0x8C5B, size: 0x8, addend: 0x0, symName: __ZZN5flecs1_9type_nameI20ecs_primitive_kind_tEEPKcvE9front_len, symObjAddr: 0x29B28, symBinAddr: 0x6D1D18, symSize: 0x0 }
  - { offset: 0x8C70, size: 0x8, addend: 0x0, symName: __ZZN5flecs1_9type_nameI20ecs_primitive_kind_tEEPKcvE11cppTypeName, symObjAddr: 0x2B6B0, symBinAddr: 0x844A00, symSize: 0x0 }
  - { offset: 0x8C83, size: 0x8, addend: 0x0, symName: __ZN5flecs1_11symbol_nameI20ecs_primitive_kind_tEEPKcv, symObjAddr: 0xDF78, symBinAddr: 0x17120, symSize: 0xB8 }
  - { offset: 0x8CAC, size: 0x8, addend: 0x0, symName: __ZZN5flecs1_11symbol_nameI20ecs_primitive_kind_tEEPKcvE3len, symObjAddr: 0x29B30, symBinAddr: 0x6D1D20, symSize: 0x0 }
  - { offset: 0x8CC1, size: 0x8, addend: 0x0, symName: __ZZN5flecs1_11symbol_nameI20ecs_primitive_kind_tEEPKcvE6result, symObjAddr: 0x2B6C0, symBinAddr: 0x844A10, symSize: 0x0 }
  - { offset: 0x8CD6, size: 0x8, addend: 0x0, symName: __ZZN5flecs1_11symbol_nameI20ecs_primitive_kind_tEEPKcvE13cppSymbolName, symObjAddr: 0x2B6D8, symBinAddr: 0x844A28, symSize: 0x0 }
  - { offset: 0x95BB, size: 0x8, addend: 0x0, symName: __ZN5flecs1_L21enum_constant_to_nameI20ecs_primitive_kind_tLS2_18EEEPKcv, symObjAddr: 0xF2B4, symBinAddr: 0x1845C, symSize: 0x40 }
  - { offset: 0x95EF, size: 0x8, addend: 0x0, symName: __ZZN5flecs1_L21enum_constant_to_nameI20ecs_primitive_kind_tLS2_18EEEPKcvE6result, symObjAddr: 0x15F7BE, symBinAddr: 0x858F16, symSize: 0x0 }
  - { offset: 0x960C, size: 0x8, addend: 0x0, symName: __ZN5flecs1_L21enum_constant_to_nameI20ecs_primitive_kind_tLS2_17EEEPKcv, symObjAddr: 0xF308, symBinAddr: 0x184B0, symSize: 0x40 }
  - { offset: 0x9640, size: 0x8, addend: 0x0, symName: __ZZN5flecs1_L21enum_constant_to_nameI20ecs_primitive_kind_tLS2_17EEEPKcvE6result, symObjAddr: 0x15F7DE, symBinAddr: 0x858F36, symSize: 0x0 }
  - { offset: 0x965D, size: 0x8, addend: 0x0, symName: __ZN5flecs1_L21enum_constant_to_nameI20ecs_primitive_kind_tLS2_16EEEPKcv, symObjAddr: 0xF7F0, symBinAddr: 0x18998, symSize: 0x40 }
  - { offset: 0x9691, size: 0x8, addend: 0x0, symName: __ZZN5flecs1_L21enum_constant_to_nameI20ecs_primitive_kind_tLS2_16EEEPKcvE6result, symObjAddr: 0x15F802, symBinAddr: 0x858F5A, symSize: 0x0 }
  - { offset: 0x96AE, size: 0x8, addend: 0x0, symName: __ZN5flecs1_L21enum_constant_to_nameI20ecs_primitive_kind_tLS2_15EEEPKcv, symObjAddr: 0xF830, symBinAddr: 0x189D8, symSize: 0x40 }
  - { offset: 0x96E2, size: 0x8, addend: 0x0, symName: __ZZN5flecs1_L21enum_constant_to_nameI20ecs_primitive_kind_tLS2_15EEEPKcvE6result, symObjAddr: 0x15F826, symBinAddr: 0x858F7E, symSize: 0x0 }
  - { offset: 0x96FF, size: 0x8, addend: 0x0, symName: __ZN5flecs1_L21enum_constant_to_nameI20ecs_primitive_kind_tLS2_14EEEPKcv, symObjAddr: 0xFD80, symBinAddr: 0x18F28, symSize: 0x40 }
  - { offset: 0x9733, size: 0x8, addend: 0x0, symName: __ZZN5flecs1_L21enum_constant_to_nameI20ecs_primitive_kind_tLS2_14EEEPKcvE6result, symObjAddr: 0x15F848, symBinAddr: 0x858FA0, symSize: 0x0 }
  - { offset: 0x9750, size: 0x8, addend: 0x0, symName: __ZN5flecs1_L21enum_constant_to_nameI20ecs_primitive_kind_tLS2_13EEEPKcv, symObjAddr: 0xFDC0, symBinAddr: 0x18F68, symSize: 0x40 }
  - { offset: 0x9784, size: 0x8, addend: 0x0, symName: __ZZN5flecs1_L21enum_constant_to_nameI20ecs_primitive_kind_tLS2_13EEEPKcvE6result, symObjAddr: 0x15F86A, symBinAddr: 0x858FC2, symSize: 0x0 }
  - { offset: 0x97A1, size: 0x8, addend: 0x0, symName: __ZN5flecs1_L21enum_constant_to_nameI20ecs_primitive_kind_tLS2_12EEEPKcv, symObjAddr: 0x100B4, symBinAddr: 0x1925C, symSize: 0x40 }
  - { offset: 0x97D5, size: 0x8, addend: 0x0, symName: __ZZN5flecs1_L21enum_constant_to_nameI20ecs_primitive_kind_tLS2_12EEEPKcvE6result, symObjAddr: 0x15F88B, symBinAddr: 0x858FE3, symSize: 0x0 }
  - { offset: 0x97F2, size: 0x8, addend: 0x0, symName: __ZN5flecs1_L21enum_constant_to_nameI20ecs_primitive_kind_tLS2_11EEEPKcv, symObjAddr: 0x1059C, symBinAddr: 0x19744, symSize: 0x40 }
  - { offset: 0x9826, size: 0x8, addend: 0x0, symName: __ZZN5flecs1_L21enum_constant_to_nameI20ecs_primitive_kind_tLS2_11EEEPKcvE6result, symObjAddr: 0x15F8AC, symBinAddr: 0x859004, symSize: 0x0 }
  - { offset: 0x9843, size: 0x8, addend: 0x0, symName: __ZN5flecs1_L21enum_constant_to_nameI20ecs_primitive_kind_tLS2_10EEEPKcv, symObjAddr: 0x105DC, symBinAddr: 0x19784, symSize: 0x40 }
  - { offset: 0x9877, size: 0x8, addend: 0x0, symName: __ZZN5flecs1_L21enum_constant_to_nameI20ecs_primitive_kind_tLS2_10EEEPKcvE6result, symObjAddr: 0x15F8CD, symBinAddr: 0x859025, symSize: 0x0 }
  - { offset: 0x9894, size: 0x8, addend: 0x0, symName: __ZN5flecs1_L21enum_constant_to_nameI20ecs_primitive_kind_tLS2_9EEEPKcv, symObjAddr: 0x10B94, symBinAddr: 0x19D3C, symSize: 0x40 }
  - { offset: 0x98C8, size: 0x8, addend: 0x0, symName: __ZZN5flecs1_L21enum_constant_to_nameI20ecs_primitive_kind_tLS2_9EEEPKcvE6result, symObjAddr: 0x15F8EE, symBinAddr: 0x859046, symSize: 0x0 }
  - { offset: 0x98E5, size: 0x8, addend: 0x0, symName: __ZN5flecs1_L21enum_constant_to_nameI20ecs_primitive_kind_tLS2_8EEEPKcv, symObjAddr: 0x10BD4, symBinAddr: 0x19D7C, symSize: 0x40 }
  - { offset: 0x9919, size: 0x8, addend: 0x0, symName: __ZZN5flecs1_L21enum_constant_to_nameI20ecs_primitive_kind_tLS2_8EEEPKcvE6result, symObjAddr: 0x15F90F, symBinAddr: 0x859067, symSize: 0x0 }
  - { offset: 0x9936, size: 0x8, addend: 0x0, symName: __ZN5flecs1_L21enum_constant_to_nameI20ecs_primitive_kind_tLS2_7EEEPKcv, symObjAddr: 0x10EC8, symBinAddr: 0x1A070, symSize: 0x40 }
  - { offset: 0x996A, size: 0x8, addend: 0x0, symName: __ZZN5flecs1_L21enum_constant_to_nameI20ecs_primitive_kind_tLS2_7EEEPKcvE6result, symObjAddr: 0x15F92F, symBinAddr: 0x859087, symSize: 0x0 }
  - { offset: 0x9987, size: 0x8, addend: 0x0, symName: __ZN5flecs1_L21enum_constant_to_nameI20ecs_primitive_kind_tLS2_6EEEPKcv, symObjAddr: 0x113B0, symBinAddr: 0x1A558, symSize: 0x40 }
  - { offset: 0x99BB, size: 0x8, addend: 0x0, symName: __ZZN5flecs1_L21enum_constant_to_nameI20ecs_primitive_kind_tLS2_6EEEPKcvE6result, symObjAddr: 0x15F950, symBinAddr: 0x8590A8, symSize: 0x0 }
  - { offset: 0x99D8, size: 0x8, addend: 0x0, symName: __ZN5flecs1_L21enum_constant_to_nameI20ecs_primitive_kind_tLS2_5EEEPKcv, symObjAddr: 0x113F0, symBinAddr: 0x1A598, symSize: 0x40 }
  - { offset: 0x9A0C, size: 0x8, addend: 0x0, symName: __ZZN5flecs1_L21enum_constant_to_nameI20ecs_primitive_kind_tLS2_5EEEPKcvE6result, symObjAddr: 0x15F971, symBinAddr: 0x8590C9, symSize: 0x0 }
  - { offset: 0x9A29, size: 0x8, addend: 0x0, symName: __ZN5flecs1_L21enum_constant_to_nameI20ecs_primitive_kind_tLS2_4EEEPKcv, symObjAddr: 0x11940, symBinAddr: 0x1AAE8, symSize: 0x40 }
  - { offset: 0x9A5D, size: 0x8, addend: 0x0, symName: __ZZN5flecs1_L21enum_constant_to_nameI20ecs_primitive_kind_tLS2_4EEEPKcvE6result, symObjAddr: 0x15F992, symBinAddr: 0x8590EA, symSize: 0x0 }
  - { offset: 0x9A7A, size: 0x8, addend: 0x0, symName: __ZN5flecs1_L21enum_constant_to_nameI20ecs_primitive_kind_tLS2_3EEEPKcv, symObjAddr: 0x11980, symBinAddr: 0x1AB28, symSize: 0x40 }
  - { offset: 0x9AAE, size: 0x8, addend: 0x0, symName: __ZZN5flecs1_L21enum_constant_to_nameI20ecs_primitive_kind_tLS2_3EEEPKcvE6result, symObjAddr: 0x15F9B2, symBinAddr: 0x85910A, symSize: 0x0 }
  - { offset: 0x9ACB, size: 0x8, addend: 0x0, symName: __ZN5flecs1_L21enum_constant_to_nameI20ecs_primitive_kind_tLS2_2EEEPKcv, symObjAddr: 0x11C74, symBinAddr: 0x1AE1C, symSize: 0x40 }
  - { offset: 0x9AFF, size: 0x8, addend: 0x0, symName: __ZZN5flecs1_L21enum_constant_to_nameI20ecs_primitive_kind_tLS2_2EEEPKcvE6result, symObjAddr: 0x15F9D4, symBinAddr: 0x85912C, symSize: 0x0 }
  - { offset: 0x9B1C, size: 0x8, addend: 0x0, symName: __ZN5flecs1_L21enum_constant_to_nameI20ecs_primitive_kind_tLS2_1EEEPKcv, symObjAddr: 0x11F20, symBinAddr: 0x1B0C8, symSize: 0x40 }
  - { offset: 0x9B50, size: 0x8, addend: 0x0, symName: __ZZN5flecs1_L21enum_constant_to_nameI20ecs_primitive_kind_tLS2_1EEEPKcvE6result, symObjAddr: 0x15F9F6, symBinAddr: 0x85914E, symSize: 0x0 }
  - { offset: 0x9B73, size: 0x8, addend: 0x0, symName: __ZN5flecs1_9type_implI12ecs_member_tE7s_indexE, symObjAddr: 0x2C308, symBinAddr: 0x845658, symSize: 0x0 }
  - { offset: 0x9C74, size: 0x8, addend: 0x0, symName: __ZN5flecs1_9type_implI12ecs_member_tE11s_allow_tagE, symObjAddr: 0x2C30C, symBinAddr: 0x84565C, symSize: 0x0 }
  - { offset: 0x9C87, size: 0x8, addend: 0x0, symName: __ZN5flecs1_9type_implI12ecs_member_tE6s_sizeE, symObjAddr: 0x2C310, symBinAddr: 0x845660, symSize: 0x0 }
  - { offset: 0x9C9A, size: 0x8, addend: 0x0, symName: __ZN5flecs1_9type_implI12ecs_member_tE11s_alignmentE, symObjAddr: 0x2C318, symBinAddr: 0x845668, symSize: 0x0 }
  - { offset: 0x9CA7, size: 0x8, addend: 0x0, symName: __ZN5flecs1_9type_nameI12ecs_member_tEEPKcv, symObjAddr: 0x12334, symBinAddr: 0x1B4DC, symSize: 0xB4 }
  - { offset: 0x9CD0, size: 0x8, addend: 0x0, symName: __ZZN5flecs1_9type_nameI12ecs_member_tEEPKcvE3len, symObjAddr: 0x29BC8, symBinAddr: 0x6D1D28, symSize: 0x0 }
  - { offset: 0x9CE5, size: 0x8, addend: 0x0, symName: __ZZN5flecs1_9type_nameI12ecs_member_tEEPKcvE6result, symObjAddr: 0x2C320, symBinAddr: 0x845670, symSize: 0x0 }
  - { offset: 0x9CFA, size: 0x8, addend: 0x0, symName: __ZZN5flecs1_9type_nameI12ecs_member_tEEPKcvE9front_len, symObjAddr: 0x29BD0, symBinAddr: 0x6D1D30, symSize: 0x0 }
  - { offset: 0x9D0F, size: 0x8, addend: 0x0, symName: __ZZN5flecs1_9type_nameI12ecs_member_tEEPKcvE11cppTypeName, symObjAddr: 0x2C330, symBinAddr: 0x845680, symSize: 0x0 }
  - { offset: 0x9D22, size: 0x8, addend: 0x0, symName: __ZN5flecs1_11symbol_nameI12ecs_member_tEEPKcv, symObjAddr: 0x123E8, symBinAddr: 0x1B590, symSize: 0xB8 }
  - { offset: 0x9D4B, size: 0x8, addend: 0x0, symName: __ZZN5flecs1_11symbol_nameI12ecs_member_tEEPKcvE3len, symObjAddr: 0x29BD8, symBinAddr: 0x6D1D38, symSize: 0x0 }
  - { offset: 0x9D60, size: 0x8, addend: 0x0, symName: __ZZN5flecs1_11symbol_nameI12ecs_member_tEEPKcvE6result, symObjAddr: 0x2C340, symBinAddr: 0x845690, symSize: 0x0 }
  - { offset: 0x9D75, size: 0x8, addend: 0x0, symName: __ZZN5flecs1_11symbol_nameI12ecs_member_tEEPKcvE13cppSymbolName, symObjAddr: 0x2C350, symBinAddr: 0x8456A0, symSize: 0x0 }
  - { offset: 0x9D8E, size: 0x8, addend: 0x0, symName: __ZN5flecs1_9type_implI19ecs_enum_constant_tE7s_indexE, symObjAddr: 0x2C360, symBinAddr: 0x8456B0, symSize: 0x0 }
  - { offset: 0x9E8F, size: 0x8, addend: 0x0, symName: __ZN5flecs1_9type_implI19ecs_enum_constant_tE11s_allow_tagE, symObjAddr: 0x2C364, symBinAddr: 0x8456B4, symSize: 0x0 }
  - { offset: 0x9EA2, size: 0x8, addend: 0x0, symName: __ZN5flecs1_9type_implI19ecs_enum_constant_tE6s_sizeE, symObjAddr: 0x2C368, symBinAddr: 0x8456B8, symSize: 0x0 }
  - { offset: 0x9EB5, size: 0x8, addend: 0x0, symName: __ZN5flecs1_9type_implI19ecs_enum_constant_tE11s_alignmentE, symObjAddr: 0x2C370, symBinAddr: 0x8456C0, symSize: 0x0 }
  - { offset: 0x9EC2, size: 0x8, addend: 0x0, symName: __ZN5flecs1_9type_nameI19ecs_enum_constant_tEEPKcv, symObjAddr: 0x12964, symBinAddr: 0x1BB0C, symSize: 0xB4 }
  - { offset: 0x9EEB, size: 0x8, addend: 0x0, symName: __ZZN5flecs1_9type_nameI19ecs_enum_constant_tEEPKcvE3len, symObjAddr: 0x29BE0, symBinAddr: 0x6D1D40, symSize: 0x0 }
  - { offset: 0x9F00, size: 0x8, addend: 0x0, symName: __ZZN5flecs1_9type_nameI19ecs_enum_constant_tEEPKcvE6result, symObjAddr: 0x2C378, symBinAddr: 0x8456C8, symSize: 0x0 }
  - { offset: 0x9F15, size: 0x8, addend: 0x0, symName: __ZZN5flecs1_9type_nameI19ecs_enum_constant_tEEPKcvE9front_len, symObjAddr: 0x29BE8, symBinAddr: 0x6D1D48, symSize: 0x0 }
  - { offset: 0x9F2A, size: 0x8, addend: 0x0, symName: __ZZN5flecs1_9type_nameI19ecs_enum_constant_tEEPKcvE11cppTypeName, symObjAddr: 0x2C390, symBinAddr: 0x8456E0, symSize: 0x0 }
  - { offset: 0x9F3D, size: 0x8, addend: 0x0, symName: __ZN5flecs1_11symbol_nameI19ecs_enum_constant_tEEPKcv, symObjAddr: 0x12A18, symBinAddr: 0x1BBC0, symSize: 0xB8 }
  - { offset: 0x9F66, size: 0x8, addend: 0x0, symName: __ZZN5flecs1_11symbol_nameI19ecs_enum_constant_tEEPKcvE3len, symObjAddr: 0x29BF0, symBinAddr: 0x6D1D50, symSize: 0x0 }
  - { offset: 0x9F7B, size: 0x8, addend: 0x0, symName: __ZZN5flecs1_11symbol_nameI19ecs_enum_constant_tEEPKcvE6result, symObjAddr: 0x2C3A0, symBinAddr: 0x8456F0, symSize: 0x0 }
  - { offset: 0x9F90, size: 0x8, addend: 0x0, symName: __ZZN5flecs1_11symbol_nameI19ecs_enum_constant_tEEPKcvE13cppSymbolName, symObjAddr: 0x2C3B8, symBinAddr: 0x845708, symSize: 0x0 }
  - { offset: 0x9FA9, size: 0x8, addend: 0x0, symName: __ZN5flecs1_9type_implI22ecs_bitmask_constant_tE7s_indexE, symObjAddr: 0x2C3C8, symBinAddr: 0x845718, symSize: 0x0 }
  - { offset: 0xA0AA, size: 0x8, addend: 0x0, symName: __ZN5flecs1_9type_implI22ecs_bitmask_constant_tE11s_allow_tagE, symObjAddr: 0x2C3CC, symBinAddr: 0x84571C, symSize: 0x0 }
  - { offset: 0xA0BD, size: 0x8, addend: 0x0, symName: __ZN5flecs1_9type_implI22ecs_bitmask_constant_tE6s_sizeE, symObjAddr: 0x2C3D0, symBinAddr: 0x845720, symSize: 0x0 }
  - { offset: 0xA0D0, size: 0x8, addend: 0x0, symName: __ZN5flecs1_9type_implI22ecs_bitmask_constant_tE11s_alignmentE, symObjAddr: 0x2C3D8, symBinAddr: 0x845728, symSize: 0x0 }
  - { offset: 0xA0DD, size: 0x8, addend: 0x0, symName: __ZN5flecs1_9type_nameI22ecs_bitmask_constant_tEEPKcv, symObjAddr: 0x12F94, symBinAddr: 0x1C13C, symSize: 0xB4 }
  - { offset: 0xA106, size: 0x8, addend: 0x0, symName: __ZZN5flecs1_9type_nameI22ecs_bitmask_constant_tEEPKcvE3len, symObjAddr: 0x29BF8, symBinAddr: 0x6D1D58, symSize: 0x0 }
  - { offset: 0xA11B, size: 0x8, addend: 0x0, symName: __ZZN5flecs1_9type_nameI22ecs_bitmask_constant_tEEPKcvE6result, symObjAddr: 0x2C3E0, symBinAddr: 0x845730, symSize: 0x0 }
  - { offset: 0xA130, size: 0x8, addend: 0x0, symName: __ZZN5flecs1_9type_nameI22ecs_bitmask_constant_tEEPKcvE9front_len, symObjAddr: 0x29C00, symBinAddr: 0x6D1D60, symSize: 0x0 }
  - { offset: 0xA145, size: 0x8, addend: 0x0, symName: __ZZN5flecs1_9type_nameI22ecs_bitmask_constant_tEEPKcvE11cppTypeName, symObjAddr: 0x2C3F8, symBinAddr: 0x845748, symSize: 0x0 }
  - { offset: 0xA158, size: 0x8, addend: 0x0, symName: __ZN5flecs1_11symbol_nameI22ecs_bitmask_constant_tEEPKcv, symObjAddr: 0x13048, symBinAddr: 0x1C1F0, symSize: 0xB8 }
  - { offset: 0xA181, size: 0x8, addend: 0x0, symName: __ZZN5flecs1_11symbol_nameI22ecs_bitmask_constant_tEEPKcvE3len, symObjAddr: 0x29C08, symBinAddr: 0x6D1D68, symSize: 0x0 }
  - { offset: 0xA196, size: 0x8, addend: 0x0, symName: __ZZN5flecs1_11symbol_nameI22ecs_bitmask_constant_tEEPKcvE6result, symObjAddr: 0x2C408, symBinAddr: 0x845758, symSize: 0x0 }
  - { offset: 0xA1AB, size: 0x8, addend: 0x0, symName: __ZZN5flecs1_11symbol_nameI22ecs_bitmask_constant_tEEPKcvE13cppSymbolName, symObjAddr: 0x2C420, symBinAddr: 0x845770, symSize: 0x0 }
  - { offset: 0xA1C4, size: 0x8, addend: 0x0, symName: __ZN5flecs1_9type_implI7EcsTypeE7s_indexE, symObjAddr: 0x2C430, symBinAddr: 0x845780, symSize: 0x0 }
  - { offset: 0xA2C5, size: 0x8, addend: 0x0, symName: __ZN5flecs1_9type_implI7EcsTypeE11s_allow_tagE, symObjAddr: 0x2C434, symBinAddr: 0x845784, symSize: 0x0 }
  - { offset: 0xA2D8, size: 0x8, addend: 0x0, symName: __ZN5flecs1_9type_implI7EcsTypeE6s_sizeE, symObjAddr: 0x2C438, symBinAddr: 0x845788, symSize: 0x0 }
  - { offset: 0xA2EB, size: 0x8, addend: 0x0, symName: __ZN5flecs1_9type_implI7EcsTypeE11s_alignmentE, symObjAddr: 0x2C440, symBinAddr: 0x845790, symSize: 0x0 }
  - { offset: 0xA2F8, size: 0x8, addend: 0x0, symName: __ZN5flecs1_9type_nameI7EcsTypeEEPKcv, symObjAddr: 0x135C4, symBinAddr: 0x1C76C, symSize: 0xB4 }
  - { offset: 0xA321, size: 0x8, addend: 0x0, symName: __ZZN5flecs1_9type_nameI7EcsTypeEEPKcvE3len, symObjAddr: 0x29C10, symBinAddr: 0x6D1D70, symSize: 0x0 }
  - { offset: 0xA336, size: 0x8, addend: 0x0, symName: __ZZN5flecs1_9type_nameI7EcsTypeEEPKcvE6result, symObjAddr: 0x2C448, symBinAddr: 0x845798, symSize: 0x0 }
  - { offset: 0xA34B, size: 0x8, addend: 0x0, symName: __ZZN5flecs1_9type_nameI7EcsTypeEEPKcvE9front_len, symObjAddr: 0x29C18, symBinAddr: 0x6D1D78, symSize: 0x0 }
  - { offset: 0xA360, size: 0x8, addend: 0x0, symName: __ZZN5flecs1_9type_nameI7EcsTypeEEPKcvE11cppTypeName, symObjAddr: 0x2C450, symBinAddr: 0x8457A0, symSize: 0x0 }
  - { offset: 0xA373, size: 0x8, addend: 0x0, symName: __ZN5flecs1_11symbol_nameI7EcsTypeEEPKcv, symObjAddr: 0x13678, symBinAddr: 0x1C820, symSize: 0xB8 }
  - { offset: 0xA39C, size: 0x8, addend: 0x0, symName: __ZZN5flecs1_11symbol_nameI7EcsTypeEEPKcvE3len, symObjAddr: 0x29C20, symBinAddr: 0x6D1D80, symSize: 0x0 }
  - { offset: 0xA3B1, size: 0x8, addend: 0x0, symName: __ZZN5flecs1_11symbol_nameI7EcsTypeEEPKcvE6result, symObjAddr: 0x2C460, symBinAddr: 0x8457B0, symSize: 0x0 }
  - { offset: 0xA3C6, size: 0x8, addend: 0x0, symName: __ZZN5flecs1_11symbol_nameI7EcsTypeEEPKcvE13cppSymbolName, symObjAddr: 0x2C468, symBinAddr: 0x8457B8, symSize: 0x0 }
  - { offset: 0xA3DF, size: 0x8, addend: 0x0, symName: __ZN5flecs1_9type_implI17EcsTypeSerializerE7s_indexE, symObjAddr: 0x2C478, symBinAddr: 0x8457C8, symSize: 0x0 }
  - { offset: 0xA4E0, size: 0x8, addend: 0x0, symName: __ZN5flecs1_9type_implI17EcsTypeSerializerE11s_allow_tagE, symObjAddr: 0x2C47C, symBinAddr: 0x8457CC, symSize: 0x0 }
  - { offset: 0xA4F3, size: 0x8, addend: 0x0, symName: __ZN5flecs1_9type_implI17EcsTypeSerializerE6s_sizeE, symObjAddr: 0x2C480, symBinAddr: 0x8457D0, symSize: 0x0 }
  - { offset: 0xA506, size: 0x8, addend: 0x0, symName: __ZN5flecs1_9type_implI17EcsTypeSerializerE11s_alignmentE, symObjAddr: 0x2C488, symBinAddr: 0x8457D8, symSize: 0x0 }
  - { offset: 0xA513, size: 0x8, addend: 0x0, symName: __ZN5flecs1_9type_nameI17EcsTypeSerializerEEPKcv, symObjAddr: 0x13BF4, symBinAddr: 0x1CD9C, symSize: 0xB4 }
  - { offset: 0xA53C, size: 0x8, addend: 0x0, symName: __ZZN5flecs1_9type_nameI17EcsTypeSerializerEEPKcvE3len, symObjAddr: 0x29C28, symBinAddr: 0x6D1D88, symSize: 0x0 }
  - { offset: 0xA551, size: 0x8, addend: 0x0, symName: __ZZN5flecs1_9type_nameI17EcsTypeSerializerEEPKcvE6result, symObjAddr: 0x2C490, symBinAddr: 0x8457E0, symSize: 0x0 }
  - { offset: 0xA566, size: 0x8, addend: 0x0, symName: __ZZN5flecs1_9type_nameI17EcsTypeSerializerEEPKcvE9front_len, symObjAddr: 0x29C30, symBinAddr: 0x6D1D90, symSize: 0x0 }
  - { offset: 0xA57B, size: 0x8, addend: 0x0, symName: __ZZN5flecs1_9type_nameI17EcsTypeSerializerEEPKcvE11cppTypeName, symObjAddr: 0x2C4A8, symBinAddr: 0x8457F8, symSize: 0x0 }
  - { offset: 0xA58E, size: 0x8, addend: 0x0, symName: __ZN5flecs1_11symbol_nameI17EcsTypeSerializerEEPKcv, symObjAddr: 0x13CA8, symBinAddr: 0x1CE50, symSize: 0xB8 }
  - { offset: 0xA5B7, size: 0x8, addend: 0x0, symName: __ZZN5flecs1_11symbol_nameI17EcsTypeSerializerEEPKcvE3len, symObjAddr: 0x29C38, symBinAddr: 0x6D1D98, symSize: 0x0 }
  - { offset: 0xA5CC, size: 0x8, addend: 0x0, symName: __ZZN5flecs1_11symbol_nameI17EcsTypeSerializerEEPKcvE6result, symObjAddr: 0x2C4B8, symBinAddr: 0x845808, symSize: 0x0 }
  - { offset: 0xA5E1, size: 0x8, addend: 0x0, symName: __ZZN5flecs1_11symbol_nameI17EcsTypeSerializerEEPKcvE13cppSymbolName, symObjAddr: 0x2C4D0, symBinAddr: 0x845820, symSize: 0x0 }
  - { offset: 0xA5FA, size: 0x8, addend: 0x0, symName: __ZN5flecs1_9type_implI12EcsPrimitiveE7s_indexE, symObjAddr: 0x2C4E0, symBinAddr: 0x845830, symSize: 0x0 }
  - { offset: 0xA6FB, size: 0x8, addend: 0x0, symName: __ZN5flecs1_9type_implI12EcsPrimitiveE11s_allow_tagE, symObjAddr: 0x2C4E4, symBinAddr: 0x845834, symSize: 0x0 }
  - { offset: 0xA70E, size: 0x8, addend: 0x0, symName: __ZN5flecs1_9type_implI12EcsPrimitiveE6s_sizeE, symObjAddr: 0x2C4E8, symBinAddr: 0x845838, symSize: 0x0 }
  - { offset: 0xA721, size: 0x8, addend: 0x0, symName: __ZN5flecs1_9type_implI12EcsPrimitiveE11s_alignmentE, symObjAddr: 0x2C4F0, symBinAddr: 0x845840, symSize: 0x0 }
  - { offset: 0xA72E, size: 0x8, addend: 0x0, symName: __ZN5flecs1_9type_nameI12EcsPrimitiveEEPKcv, symObjAddr: 0x14220, symBinAddr: 0x1D3C8, symSize: 0xB4 }
  - { offset: 0xA757, size: 0x8, addend: 0x0, symName: __ZZN5flecs1_9type_nameI12EcsPrimitiveEEPKcvE3len, symObjAddr: 0x29C40, symBinAddr: 0x6D1DA0, symSize: 0x0 }
  - { offset: 0xA76C, size: 0x8, addend: 0x0, symName: __ZZN5flecs1_9type_nameI12EcsPrimitiveEEPKcvE6result, symObjAddr: 0x2C4F8, symBinAddr: 0x845848, symSize: 0x0 }
  - { offset: 0xA781, size: 0x8, addend: 0x0, symName: __ZZN5flecs1_9type_nameI12EcsPrimitiveEEPKcvE9front_len, symObjAddr: 0x29C48, symBinAddr: 0x6D1DA8, symSize: 0x0 }
  - { offset: 0xA796, size: 0x8, addend: 0x0, symName: __ZZN5flecs1_9type_nameI12EcsPrimitiveEEPKcvE11cppTypeName, symObjAddr: 0x2C508, symBinAddr: 0x845858, symSize: 0x0 }
  - { offset: 0xA7A9, size: 0x8, addend: 0x0, symName: __ZN5flecs1_11symbol_nameI12EcsPrimitiveEEPKcv, symObjAddr: 0x142D4, symBinAddr: 0x1D47C, symSize: 0xB8 }
  - { offset: 0xA7D2, size: 0x8, addend: 0x0, symName: __ZZN5flecs1_11symbol_nameI12EcsPrimitiveEEPKcvE3len, symObjAddr: 0x29C50, symBinAddr: 0x6D1DB0, symSize: 0x0 }
  - { offset: 0xA7E7, size: 0x8, addend: 0x0, symName: __ZZN5flecs1_11symbol_nameI12EcsPrimitiveEEPKcvE6result, symObjAddr: 0x2C518, symBinAddr: 0x845868, symSize: 0x0 }
  - { offset: 0xA7FC, size: 0x8, addend: 0x0, symName: __ZZN5flecs1_11symbol_nameI12EcsPrimitiveEEPKcvE13cppSymbolName, symObjAddr: 0x2C528, symBinAddr: 0x845878, symSize: 0x0 }
  - { offset: 0xA815, size: 0x8, addend: 0x0, symName: __ZN5flecs1_9type_implI7EcsEnumE7s_indexE, symObjAddr: 0x2C538, symBinAddr: 0x845888, symSize: 0x0 }
  - { offset: 0xA916, size: 0x8, addend: 0x0, symName: __ZN5flecs1_9type_implI7EcsEnumE11s_allow_tagE, symObjAddr: 0x2C53C, symBinAddr: 0x84588C, symSize: 0x0 }
  - { offset: 0xA929, size: 0x8, addend: 0x0, symName: __ZN5flecs1_9type_implI7EcsEnumE6s_sizeE, symObjAddr: 0x2C540, symBinAddr: 0x845890, symSize: 0x0 }
  - { offset: 0xA93C, size: 0x8, addend: 0x0, symName: __ZN5flecs1_9type_implI7EcsEnumE11s_alignmentE, symObjAddr: 0x2C548, symBinAddr: 0x845898, symSize: 0x0 }
  - { offset: 0xA949, size: 0x8, addend: 0x0, symName: __ZN5flecs1_9type_nameI7EcsEnumEEPKcv, symObjAddr: 0x1484C, symBinAddr: 0x1D9F4, symSize: 0xB4 }
  - { offset: 0xA972, size: 0x8, addend: 0x0, symName: __ZZN5flecs1_9type_nameI7EcsEnumEEPKcvE3len, symObjAddr: 0x29C58, symBinAddr: 0x6D1DB8, symSize: 0x0 }
  - { offset: 0xA987, size: 0x8, addend: 0x0, symName: __ZZN5flecs1_9type_nameI7EcsEnumEEPKcvE6result, symObjAddr: 0x2C550, symBinAddr: 0x8458A0, symSize: 0x0 }
  - { offset: 0xA99C, size: 0x8, addend: 0x0, symName: __ZZN5flecs1_9type_nameI7EcsEnumEEPKcvE9front_len, symObjAddr: 0x29C60, symBinAddr: 0x6D1DC0, symSize: 0x0 }
  - { offset: 0xA9B1, size: 0x8, addend: 0x0, symName: __ZZN5flecs1_9type_nameI7EcsEnumEEPKcvE11cppTypeName, symObjAddr: 0x2C558, symBinAddr: 0x8458A8, symSize: 0x0 }
  - { offset: 0xA9C4, size: 0x8, addend: 0x0, symName: __ZN5flecs1_11symbol_nameI7EcsEnumEEPKcv, symObjAddr: 0x14900, symBinAddr: 0x1DAA8, symSize: 0xB8 }
  - { offset: 0xA9ED, size: 0x8, addend: 0x0, symName: __ZZN5flecs1_11symbol_nameI7EcsEnumEEPKcvE3len, symObjAddr: 0x29C68, symBinAddr: 0x6D1DC8, symSize: 0x0 }
  - { offset: 0xAA02, size: 0x8, addend: 0x0, symName: __ZZN5flecs1_11symbol_nameI7EcsEnumEEPKcvE6result, symObjAddr: 0x2C568, symBinAddr: 0x8458B8, symSize: 0x0 }
  - { offset: 0xAA17, size: 0x8, addend: 0x0, symName: __ZZN5flecs1_11symbol_nameI7EcsEnumEEPKcvE13cppSymbolName, symObjAddr: 0x2C570, symBinAddr: 0x8458C0, symSize: 0x0 }
  - { offset: 0xAA30, size: 0x8, addend: 0x0, symName: __ZN5flecs1_9type_implI10EcsBitmaskE7s_indexE, symObjAddr: 0x2C580, symBinAddr: 0x8458D0, symSize: 0x0 }
  - { offset: 0xAB31, size: 0x8, addend: 0x0, symName: __ZN5flecs1_9type_implI10EcsBitmaskE11s_allow_tagE, symObjAddr: 0x2C584, symBinAddr: 0x8458D4, symSize: 0x0 }
  - { offset: 0xAB44, size: 0x8, addend: 0x0, symName: __ZN5flecs1_9type_implI10EcsBitmaskE6s_sizeE, symObjAddr: 0x2C588, symBinAddr: 0x8458D8, symSize: 0x0 }
  - { offset: 0xAB57, size: 0x8, addend: 0x0, symName: __ZN5flecs1_9type_implI10EcsBitmaskE11s_alignmentE, symObjAddr: 0x2C590, symBinAddr: 0x8458E0, symSize: 0x0 }
  - { offset: 0xAB64, size: 0x8, addend: 0x0, symName: __ZN5flecs1_9type_nameI10EcsBitmaskEEPKcv, symObjAddr: 0x14E78, symBinAddr: 0x1E020, symSize: 0xB4 }
  - { offset: 0xAB8D, size: 0x8, addend: 0x0, symName: __ZZN5flecs1_9type_nameI10EcsBitmaskEEPKcvE3len, symObjAddr: 0x29C70, symBinAddr: 0x6D1DD0, symSize: 0x0 }
  - { offset: 0xABA2, size: 0x8, addend: 0x0, symName: __ZZN5flecs1_9type_nameI10EcsBitmaskEEPKcvE6result, symObjAddr: 0x2C598, symBinAddr: 0x8458E8, symSize: 0x0 }
  - { offset: 0xABB7, size: 0x8, addend: 0x0, symName: __ZZN5flecs1_9type_nameI10EcsBitmaskEEPKcvE9front_len, symObjAddr: 0x29C78, symBinAddr: 0x6D1DD8, symSize: 0x0 }
  - { offset: 0xABCC, size: 0x8, addend: 0x0, symName: __ZZN5flecs1_9type_nameI10EcsBitmaskEEPKcvE11cppTypeName, symObjAddr: 0x2C5A8, symBinAddr: 0x8458F8, symSize: 0x0 }
  - { offset: 0xABDF, size: 0x8, addend: 0x0, symName: __ZN5flecs1_11symbol_nameI10EcsBitmaskEEPKcv, symObjAddr: 0x14F2C, symBinAddr: 0x1E0D4, symSize: 0xB8 }
  - { offset: 0xAC08, size: 0x8, addend: 0x0, symName: __ZZN5flecs1_11symbol_nameI10EcsBitmaskEEPKcvE3len, symObjAddr: 0x29C80, symBinAddr: 0x6D1DE0, symSize: 0x0 }
  - { offset: 0xAC1D, size: 0x8, addend: 0x0, symName: __ZZN5flecs1_11symbol_nameI10EcsBitmaskEEPKcvE6result, symObjAddr: 0x2C5B8, symBinAddr: 0x845908, symSize: 0x0 }
  - { offset: 0xAC32, size: 0x8, addend: 0x0, symName: __ZZN5flecs1_11symbol_nameI10EcsBitmaskEEPKcvE13cppSymbolName, symObjAddr: 0x2C5C8, symBinAddr: 0x845918, symSize: 0x0 }
  - { offset: 0xAC4B, size: 0x8, addend: 0x0, symName: __ZN5flecs1_9type_implI9EcsMemberE7s_indexE, symObjAddr: 0x2C5D8, symBinAddr: 0x845928, symSize: 0x0 }
  - { offset: 0xAD4C, size: 0x8, addend: 0x0, symName: __ZN5flecs1_9type_implI9EcsMemberE11s_allow_tagE, symObjAddr: 0x2C5DC, symBinAddr: 0x84592C, symSize: 0x0 }
  - { offset: 0xAD5F, size: 0x8, addend: 0x0, symName: __ZN5flecs1_9type_implI9EcsMemberE6s_sizeE, symObjAddr: 0x2C5E0, symBinAddr: 0x845930, symSize: 0x0 }
  - { offset: 0xAD72, size: 0x8, addend: 0x0, symName: __ZN5flecs1_9type_implI9EcsMemberE11s_alignmentE, symObjAddr: 0x2C5E8, symBinAddr: 0x845938, symSize: 0x0 }
  - { offset: 0xAD7F, size: 0x8, addend: 0x0, symName: __ZN5flecs1_9type_nameI9EcsMemberEEPKcv, symObjAddr: 0x154A8, symBinAddr: 0x1E650, symSize: 0xB4 }
  - { offset: 0xADA8, size: 0x8, addend: 0x0, symName: __ZZN5flecs1_9type_nameI9EcsMemberEEPKcvE3len, symObjAddr: 0x29C88, symBinAddr: 0x6D1DE8, symSize: 0x0 }
  - { offset: 0xADBD, size: 0x8, addend: 0x0, symName: __ZZN5flecs1_9type_nameI9EcsMemberEEPKcvE6result, symObjAddr: 0x2C5F0, symBinAddr: 0x845940, symSize: 0x0 }
  - { offset: 0xADD2, size: 0x8, addend: 0x0, symName: __ZZN5flecs1_9type_nameI9EcsMemberEEPKcvE9front_len, symObjAddr: 0x29C90, symBinAddr: 0x6D1DF0, symSize: 0x0 }
  - { offset: 0xADE7, size: 0x8, addend: 0x0, symName: __ZZN5flecs1_9type_nameI9EcsMemberEEPKcvE11cppTypeName, symObjAddr: 0x2C600, symBinAddr: 0x845950, symSize: 0x0 }
  - { offset: 0xADFA, size: 0x8, addend: 0x0, symName: __ZN5flecs1_11symbol_nameI9EcsMemberEEPKcv, symObjAddr: 0x1555C, symBinAddr: 0x1E704, symSize: 0xB8 }
  - { offset: 0xAE23, size: 0x8, addend: 0x0, symName: __ZZN5flecs1_11symbol_nameI9EcsMemberEEPKcvE3len, symObjAddr: 0x29C98, symBinAddr: 0x6D1DF8, symSize: 0x0 }
  - { offset: 0xAE38, size: 0x8, addend: 0x0, symName: __ZZN5flecs1_11symbol_nameI9EcsMemberEEPKcvE6result, symObjAddr: 0x2C610, symBinAddr: 0x845960, symSize: 0x0 }
  - { offset: 0xAE4D, size: 0x8, addend: 0x0, symName: __ZZN5flecs1_11symbol_nameI9EcsMemberEEPKcvE13cppSymbolName, symObjAddr: 0x2C620, symBinAddr: 0x845970, symSize: 0x0 }
  - { offset: 0xAE66, size: 0x8, addend: 0x0, symName: __ZN5flecs1_9type_implI15EcsMemberRangesE7s_indexE, symObjAddr: 0x2C630, symBinAddr: 0x845980, symSize: 0x0 }
  - { offset: 0xAF67, size: 0x8, addend: 0x0, symName: __ZN5flecs1_9type_implI15EcsMemberRangesE11s_allow_tagE, symObjAddr: 0x2C634, symBinAddr: 0x845984, symSize: 0x0 }
  - { offset: 0xAF7A, size: 0x8, addend: 0x0, symName: __ZN5flecs1_9type_implI15EcsMemberRangesE6s_sizeE, symObjAddr: 0x2C638, symBinAddr: 0x845988, symSize: 0x0 }
  - { offset: 0xAF8D, size: 0x8, addend: 0x0, symName: __ZN5flecs1_9type_implI15EcsMemberRangesE11s_alignmentE, symObjAddr: 0x2C640, symBinAddr: 0x845990, symSize: 0x0 }
  - { offset: 0xAF9A, size: 0x8, addend: 0x0, symName: __ZN5flecs1_9type_nameI15EcsMemberRangesEEPKcv, symObjAddr: 0x15AD8, symBinAddr: 0x1EC80, symSize: 0xB4 }
  - { offset: 0xAFC3, size: 0x8, addend: 0x0, symName: __ZZN5flecs1_9type_nameI15EcsMemberRangesEEPKcvE3len, symObjAddr: 0x29CA0, symBinAddr: 0x6D1E00, symSize: 0x0 }
  - { offset: 0xAFD8, size: 0x8, addend: 0x0, symName: __ZZN5flecs1_9type_nameI15EcsMemberRangesEEPKcvE6result, symObjAddr: 0x2C648, symBinAddr: 0x845998, symSize: 0x0 }
  - { offset: 0xAFED, size: 0x8, addend: 0x0, symName: __ZZN5flecs1_9type_nameI15EcsMemberRangesEEPKcvE9front_len, symObjAddr: 0x29CA8, symBinAddr: 0x6D1E08, symSize: 0x0 }
  - { offset: 0xB002, size: 0x8, addend: 0x0, symName: __ZZN5flecs1_9type_nameI15EcsMemberRangesEEPKcvE11cppTypeName, symObjAddr: 0x2C658, symBinAddr: 0x8459A8, symSize: 0x0 }
  - { offset: 0xB015, size: 0x8, addend: 0x0, symName: __ZN5flecs1_11symbol_nameI15EcsMemberRangesEEPKcv, symObjAddr: 0x15B8C, symBinAddr: 0x1ED34, symSize: 0xB8 }
  - { offset: 0xB03E, size: 0x8, addend: 0x0, symName: __ZZN5flecs1_11symbol_nameI15EcsMemberRangesEEPKcvE3len, symObjAddr: 0x29CB0, symBinAddr: 0x6D1E10, symSize: 0x0 }
  - { offset: 0xB053, size: 0x8, addend: 0x0, symName: __ZZN5flecs1_11symbol_nameI15EcsMemberRangesEEPKcvE6result, symObjAddr: 0x2C668, symBinAddr: 0x8459B8, symSize: 0x0 }
  - { offset: 0xB068, size: 0x8, addend: 0x0, symName: __ZZN5flecs1_11symbol_nameI15EcsMemberRangesEEPKcvE13cppSymbolName, symObjAddr: 0x2C678, symBinAddr: 0x8459C8, symSize: 0x0 }
  - { offset: 0xB081, size: 0x8, addend: 0x0, symName: __ZN5flecs1_9type_implI9EcsStructE7s_indexE, symObjAddr: 0x2C688, symBinAddr: 0x8459D8, symSize: 0x0 }
  - { offset: 0xB182, size: 0x8, addend: 0x0, symName: __ZN5flecs1_9type_implI9EcsStructE11s_allow_tagE, symObjAddr: 0x2C68C, symBinAddr: 0x8459DC, symSize: 0x0 }
  - { offset: 0xB195, size: 0x8, addend: 0x0, symName: __ZN5flecs1_9type_implI9EcsStructE6s_sizeE, symObjAddr: 0x2C690, symBinAddr: 0x8459E0, symSize: 0x0 }
  - { offset: 0xB1A8, size: 0x8, addend: 0x0, symName: __ZN5flecs1_9type_implI9EcsStructE11s_alignmentE, symObjAddr: 0x2C698, symBinAddr: 0x8459E8, symSize: 0x0 }
  - { offset: 0xB1B5, size: 0x8, addend: 0x0, symName: __ZN5flecs1_9type_nameI9EcsStructEEPKcv, symObjAddr: 0x16108, symBinAddr: 0x1F2B0, symSize: 0xB4 }
  - { offset: 0xB1DE, size: 0x8, addend: 0x0, symName: __ZZN5flecs1_9type_nameI9EcsStructEEPKcvE3len, symObjAddr: 0x29CB8, symBinAddr: 0x6D1E18, symSize: 0x0 }
  - { offset: 0xB1F3, size: 0x8, addend: 0x0, symName: __ZZN5flecs1_9type_nameI9EcsStructEEPKcvE6result, symObjAddr: 0x2C6A0, symBinAddr: 0x8459F0, symSize: 0x0 }
  - { offset: 0xB208, size: 0x8, addend: 0x0, symName: __ZZN5flecs1_9type_nameI9EcsStructEEPKcvE9front_len, symObjAddr: 0x29CC0, symBinAddr: 0x6D1E20, symSize: 0x0 }
  - { offset: 0xB21D, size: 0x8, addend: 0x0, symName: __ZZN5flecs1_9type_nameI9EcsStructEEPKcvE11cppTypeName, symObjAddr: 0x2C6B0, symBinAddr: 0x845A00, symSize: 0x0 }
  - { offset: 0xB230, size: 0x8, addend: 0x0, symName: __ZN5flecs1_11symbol_nameI9EcsStructEEPKcv, symObjAddr: 0x161BC, symBinAddr: 0x1F364, symSize: 0xB8 }
  - { offset: 0xB259, size: 0x8, addend: 0x0, symName: __ZZN5flecs1_11symbol_nameI9EcsStructEEPKcvE3len, symObjAddr: 0x29CC8, symBinAddr: 0x6D1E28, symSize: 0x0 }
  - { offset: 0xB26E, size: 0x8, addend: 0x0, symName: __ZZN5flecs1_11symbol_nameI9EcsStructEEPKcvE6result, symObjAddr: 0x2C6C0, symBinAddr: 0x845A10, symSize: 0x0 }
  - { offset: 0xB283, size: 0x8, addend: 0x0, symName: __ZZN5flecs1_11symbol_nameI9EcsStructEEPKcvE13cppSymbolName, symObjAddr: 0x2C6D0, symBinAddr: 0x845A20, symSize: 0x0 }
  - { offset: 0xB29C, size: 0x8, addend: 0x0, symName: __ZN5flecs1_9type_implI8EcsArrayE7s_indexE, symObjAddr: 0x2C6E0, symBinAddr: 0x845A30, symSize: 0x0 }
  - { offset: 0xB39D, size: 0x8, addend: 0x0, symName: __ZN5flecs1_9type_implI8EcsArrayE11s_allow_tagE, symObjAddr: 0x2C6E4, symBinAddr: 0x845A34, symSize: 0x0 }
  - { offset: 0xB3B0, size: 0x8, addend: 0x0, symName: __ZN5flecs1_9type_implI8EcsArrayE6s_sizeE, symObjAddr: 0x2C6E8, symBinAddr: 0x845A38, symSize: 0x0 }
  - { offset: 0xB3C3, size: 0x8, addend: 0x0, symName: __ZN5flecs1_9type_implI8EcsArrayE11s_alignmentE, symObjAddr: 0x2C6F0, symBinAddr: 0x845A40, symSize: 0x0 }
  - { offset: 0xB3D0, size: 0x8, addend: 0x0, symName: __ZN5flecs1_9type_nameI8EcsArrayEEPKcv, symObjAddr: 0x16738, symBinAddr: 0x1F8E0, symSize: 0xB4 }
  - { offset: 0xB3F9, size: 0x8, addend: 0x0, symName: __ZZN5flecs1_9type_nameI8EcsArrayEEPKcvE3len, symObjAddr: 0x29CD0, symBinAddr: 0x6D1E30, symSize: 0x0 }
  - { offset: 0xB40E, size: 0x8, addend: 0x0, symName: __ZZN5flecs1_9type_nameI8EcsArrayEEPKcvE6result, symObjAddr: 0x2C6F8, symBinAddr: 0x845A48, symSize: 0x0 }
  - { offset: 0xB423, size: 0x8, addend: 0x0, symName: __ZZN5flecs1_9type_nameI8EcsArrayEEPKcvE9front_len, symObjAddr: 0x29CD8, symBinAddr: 0x6D1E38, symSize: 0x0 }
  - { offset: 0xB438, size: 0x8, addend: 0x0, symName: __ZZN5flecs1_9type_nameI8EcsArrayEEPKcvE11cppTypeName, symObjAddr: 0x2C708, symBinAddr: 0x845A58, symSize: 0x0 }
  - { offset: 0xB44B, size: 0x8, addend: 0x0, symName: __ZN5flecs1_11symbol_nameI8EcsArrayEEPKcv, symObjAddr: 0x167EC, symBinAddr: 0x1F994, symSize: 0xB8 }
  - { offset: 0xB474, size: 0x8, addend: 0x0, symName: __ZZN5flecs1_11symbol_nameI8EcsArrayEEPKcvE3len, symObjAddr: 0x29CE0, symBinAddr: 0x6D1E40, symSize: 0x0 }
  - { offset: 0xB489, size: 0x8, addend: 0x0, symName: __ZZN5flecs1_11symbol_nameI8EcsArrayEEPKcvE6result, symObjAddr: 0x2C718, symBinAddr: 0x845A68, symSize: 0x0 }
  - { offset: 0xB49E, size: 0x8, addend: 0x0, symName: __ZZN5flecs1_11symbol_nameI8EcsArrayEEPKcvE13cppSymbolName, symObjAddr: 0x2C728, symBinAddr: 0x845A78, symSize: 0x0 }
  - { offset: 0xB4B7, size: 0x8, addend: 0x0, symName: __ZN5flecs1_9type_implI9EcsVectorE7s_indexE, symObjAddr: 0x2C738, symBinAddr: 0x845A88, symSize: 0x0 }
  - { offset: 0xB5B8, size: 0x8, addend: 0x0, symName: __ZN5flecs1_9type_implI9EcsVectorE11s_allow_tagE, symObjAddr: 0x2C73C, symBinAddr: 0x845A8C, symSize: 0x0 }
  - { offset: 0xB5CB, size: 0x8, addend: 0x0, symName: __ZN5flecs1_9type_implI9EcsVectorE6s_sizeE, symObjAddr: 0x2C740, symBinAddr: 0x845A90, symSize: 0x0 }
  - { offset: 0xB5DE, size: 0x8, addend: 0x0, symName: __ZN5flecs1_9type_implI9EcsVectorE11s_alignmentE, symObjAddr: 0x2C748, symBinAddr: 0x845A98, symSize: 0x0 }
  - { offset: 0xB5EB, size: 0x8, addend: 0x0, symName: __ZN5flecs1_9type_nameI9EcsVectorEEPKcv, symObjAddr: 0x16D64, symBinAddr: 0x1FF0C, symSize: 0xB4 }
  - { offset: 0xB614, size: 0x8, addend: 0x0, symName: __ZZN5flecs1_9type_nameI9EcsVectorEEPKcvE3len, symObjAddr: 0x29CE8, symBinAddr: 0x6D1E48, symSize: 0x0 }
  - { offset: 0xB629, size: 0x8, addend: 0x0, symName: __ZZN5flecs1_9type_nameI9EcsVectorEEPKcvE6result, symObjAddr: 0x2C750, symBinAddr: 0x845AA0, symSize: 0x0 }
  - { offset: 0xB63E, size: 0x8, addend: 0x0, symName: __ZZN5flecs1_9type_nameI9EcsVectorEEPKcvE9front_len, symObjAddr: 0x29CF0, symBinAddr: 0x6D1E50, symSize: 0x0 }
  - { offset: 0xB653, size: 0x8, addend: 0x0, symName: __ZZN5flecs1_9type_nameI9EcsVectorEEPKcvE11cppTypeName, symObjAddr: 0x2C760, symBinAddr: 0x845AB0, symSize: 0x0 }
  - { offset: 0xB666, size: 0x8, addend: 0x0, symName: __ZN5flecs1_11symbol_nameI9EcsVectorEEPKcv, symObjAddr: 0x16E18, symBinAddr: 0x1FFC0, symSize: 0xB8 }
  - { offset: 0xB68F, size: 0x8, addend: 0x0, symName: __ZZN5flecs1_11symbol_nameI9EcsVectorEEPKcvE3len, symObjAddr: 0x29CF8, symBinAddr: 0x6D1E58, symSize: 0x0 }
  - { offset: 0xB6A4, size: 0x8, addend: 0x0, symName: __ZZN5flecs1_11symbol_nameI9EcsVectorEEPKcvE6result, symObjAddr: 0x2C770, symBinAddr: 0x845AC0, symSize: 0x0 }
  - { offset: 0xB6B9, size: 0x8, addend: 0x0, symName: __ZZN5flecs1_11symbol_nameI9EcsVectorEEPKcvE13cppSymbolName, symObjAddr: 0x2C780, symBinAddr: 0x845AD0, symSize: 0x0 }
  - { offset: 0xB6D2, size: 0x8, addend: 0x0, symName: __ZN5flecs1_9type_implI7EcsUnitE7s_indexE, symObjAddr: 0x2C790, symBinAddr: 0x845AE0, symSize: 0x0 }
  - { offset: 0xB7D3, size: 0x8, addend: 0x0, symName: __ZN5flecs1_9type_implI7EcsUnitE11s_allow_tagE, symObjAddr: 0x2C794, symBinAddr: 0x845AE4, symSize: 0x0 }
  - { offset: 0xB7E6, size: 0x8, addend: 0x0, symName: __ZN5flecs1_9type_implI7EcsUnitE6s_sizeE, symObjAddr: 0x2C798, symBinAddr: 0x845AE8, symSize: 0x0 }
  - { offset: 0xB7F9, size: 0x8, addend: 0x0, symName: __ZN5flecs1_9type_implI7EcsUnitE11s_alignmentE, symObjAddr: 0x2C7A0, symBinAddr: 0x845AF0, symSize: 0x0 }
  - { offset: 0xB806, size: 0x8, addend: 0x0, symName: __ZN5flecs1_9type_nameI7EcsUnitEEPKcv, symObjAddr: 0x17394, symBinAddr: 0x2053C, symSize: 0xB4 }
  - { offset: 0xB82F, size: 0x8, addend: 0x0, symName: __ZZN5flecs1_9type_nameI7EcsUnitEEPKcvE3len, symObjAddr: 0x29D00, symBinAddr: 0x6D1E60, symSize: 0x0 }
  - { offset: 0xB844, size: 0x8, addend: 0x0, symName: __ZZN5flecs1_9type_nameI7EcsUnitEEPKcvE6result, symObjAddr: 0x2C7A8, symBinAddr: 0x845AF8, symSize: 0x0 }
  - { offset: 0xB859, size: 0x8, addend: 0x0, symName: __ZZN5flecs1_9type_nameI7EcsUnitEEPKcvE9front_len, symObjAddr: 0x29D08, symBinAddr: 0x6D1E68, symSize: 0x0 }
  - { offset: 0xB86E, size: 0x8, addend: 0x0, symName: __ZZN5flecs1_9type_nameI7EcsUnitEEPKcvE11cppTypeName, symObjAddr: 0x2C7B0, symBinAddr: 0x845B00, symSize: 0x0 }
  - { offset: 0xB881, size: 0x8, addend: 0x0, symName: __ZN5flecs1_11symbol_nameI7EcsUnitEEPKcv, symObjAddr: 0x17448, symBinAddr: 0x205F0, symSize: 0xB8 }
  - { offset: 0xB8AA, size: 0x8, addend: 0x0, symName: __ZZN5flecs1_11symbol_nameI7EcsUnitEEPKcvE3len, symObjAddr: 0x29D10, symBinAddr: 0x6D1E70, symSize: 0x0 }
  - { offset: 0xB8BF, size: 0x8, addend: 0x0, symName: __ZZN5flecs1_11symbol_nameI7EcsUnitEEPKcvE6result, symObjAddr: 0x2C7C0, symBinAddr: 0x845B10, symSize: 0x0 }
  - { offset: 0xB8D4, size: 0x8, addend: 0x0, symName: __ZZN5flecs1_11symbol_nameI7EcsUnitEEPKcvE13cppSymbolName, symObjAddr: 0x2C7C8, symBinAddr: 0x845B18, symSize: 0x0 }
  - { offset: 0xB8ED, size: 0x8, addend: 0x0, symName: __ZN5flecs1_9type_implIlE11s_allow_tagE, symObjAddr: 0x2C7DC, symBinAddr: 0x845B2C, symSize: 0x0 }
  - { offset: 0xB9EE, size: 0x8, addend: 0x0, symName: __ZN5flecs1_9type_implIlE6s_sizeE, symObjAddr: 0x2C7E0, symBinAddr: 0x845B30, symSize: 0x0 }
  - { offset: 0xBA01, size: 0x8, addend: 0x0, symName: __ZN5flecs1_9type_implIlE11s_alignmentE, symObjAddr: 0x2C7E8, symBinAddr: 0x845B38, symSize: 0x0 }
  - { offset: 0xBA14, size: 0x8, addend: 0x0, symName: __ZN5flecs1_9type_implIlE7s_indexE, symObjAddr: 0x2C7D8, symBinAddr: 0x845B28, symSize: 0x0 }
  - { offset: 0xBA27, size: 0x8, addend: 0x0, symName: __ZN5flecs1_9type_implImE11s_allow_tagE, symObjAddr: 0x2C7F4, symBinAddr: 0x845B44, symSize: 0x0 }
  - { offset: 0xBB28, size: 0x8, addend: 0x0, symName: __ZN5flecs1_9type_implImE6s_sizeE, symObjAddr: 0x2C7F8, symBinAddr: 0x845B48, symSize: 0x0 }
  - { offset: 0xBB3B, size: 0x8, addend: 0x0, symName: __ZN5flecs1_9type_implImE11s_alignmentE, symObjAddr: 0x2C800, symBinAddr: 0x845B50, symSize: 0x0 }
  - { offset: 0xBB4E, size: 0x8, addend: 0x0, symName: __ZN5flecs1_9type_implImE7s_indexE, symObjAddr: 0x2C7F0, symBinAddr: 0x845B40, symSize: 0x0 }
  - { offset: 0xBB61, size: 0x8, addend: 0x0, symName: __ZN5flecs1_9type_implINS_11entity_viewEE7s_indexE, symObjAddr: 0x2C808, symBinAddr: 0x845B58, symSize: 0x0 }
  - { offset: 0xBDBA, size: 0x8, addend: 0x0, symName: __ZN5flecs1_9type_implINS_11entity_viewEE11s_allow_tagE, symObjAddr: 0x2C80C, symBinAddr: 0x845B5C, symSize: 0x0 }
  - { offset: 0xBDCD, size: 0x8, addend: 0x0, symName: __ZN5flecs1_9type_implINS_11entity_viewEE6s_sizeE, symObjAddr: 0x2C810, symBinAddr: 0x845B60, symSize: 0x0 }
  - { offset: 0xBDE0, size: 0x8, addend: 0x0, symName: __ZN5flecs1_9type_implINS_11entity_viewEE11s_alignmentE, symObjAddr: 0x2C818, symBinAddr: 0x845B68, symSize: 0x0 }
  - { offset: 0xBDED, size: 0x8, addend: 0x0, symName: __ZN5flecs1_9type_nameINS_11entity_viewEEEPKcv, symObjAddr: 0x17FC0, symBinAddr: 0x21168, symSize: 0xB4 }
  - { offset: 0xBE16, size: 0x8, addend: 0x0, symName: __ZZN5flecs1_9type_nameINS_11entity_viewEEEPKcvE3len, symObjAddr: 0x29D18, symBinAddr: 0x6D1E78, symSize: 0x0 }
  - { offset: 0xBE2B, size: 0x8, addend: 0x0, symName: __ZZN5flecs1_9type_nameINS_11entity_viewEEEPKcvE6result, symObjAddr: 0x2C820, symBinAddr: 0x845B70, symSize: 0x0 }
  - { offset: 0xBE40, size: 0x8, addend: 0x0, symName: __ZZN5flecs1_9type_nameINS_11entity_viewEEEPKcvE9front_len, symObjAddr: 0x29D20, symBinAddr: 0x6D1E80, symSize: 0x0 }
  - { offset: 0xBE55, size: 0x8, addend: 0x0, symName: __ZZN5flecs1_9type_nameINS_11entity_viewEEEPKcvE11cppTypeName, symObjAddr: 0x2C838, symBinAddr: 0x845B88, symSize: 0x0 }
  - { offset: 0xBE68, size: 0x8, addend: 0x0, symName: __ZN5flecs1_11symbol_nameINS_11entity_viewEEEPKcv, symObjAddr: 0x18074, symBinAddr: 0x2121C, symSize: 0xB8 }
  - { offset: 0xBE91, size: 0x8, addend: 0x0, symName: __ZZN5flecs1_11symbol_nameINS_11entity_viewEEEPKcvE3len, symObjAddr: 0x29D28, symBinAddr: 0x6D1E88, symSize: 0x0 }
  - { offset: 0xBEA6, size: 0x8, addend: 0x0, symName: __ZZN5flecs1_11symbol_nameINS_11entity_viewEEEPKcvE6result, symObjAddr: 0x2C848, symBinAddr: 0x845B98, symSize: 0x0 }
  - { offset: 0xBEBB, size: 0x8, addend: 0x0, symName: __ZZN5flecs1_11symbol_nameINS_11entity_viewEEEPKcvE13cppSymbolName, symObjAddr: 0x2C860, symBinAddr: 0x845BB0, symSize: 0x0 }
  - { offset: 0xBEDD, size: 0x8, addend: 0x0, symName: __ZN5flecs1_9type_implINS_6entityEE7s_indexE, symObjAddr: 0x2C870, symBinAddr: 0x845BC0, symSize: 0x0 }
  - { offset: 0xBFDE, size: 0x8, addend: 0x0, symName: __ZN5flecs1_9type_implINS_6entityEE11s_allow_tagE, symObjAddr: 0x2C874, symBinAddr: 0x845BC4, symSize: 0x0 }
  - { offset: 0xBFF1, size: 0x8, addend: 0x0, symName: __ZN5flecs1_9type_implINS_6entityEE6s_sizeE, symObjAddr: 0x2C878, symBinAddr: 0x845BC8, symSize: 0x0 }
  - { offset: 0xC004, size: 0x8, addend: 0x0, symName: __ZN5flecs1_9type_implINS_6entityEE11s_alignmentE, symObjAddr: 0x2C880, symBinAddr: 0x845BD0, symSize: 0x0 }
  - { offset: 0xC011, size: 0x8, addend: 0x0, symName: __ZN5flecs1_9type_nameINS_6entityEEEPKcv, symObjAddr: 0x18F10, symBinAddr: 0x220B8, symSize: 0xB4 }
  - { offset: 0xC03A, size: 0x8, addend: 0x0, symName: __ZZN5flecs1_9type_nameINS_6entityEEEPKcvE3len, symObjAddr: 0x29D38, symBinAddr: 0x6D1E90, symSize: 0x0 }
  - { offset: 0xC04F, size: 0x8, addend: 0x0, symName: __ZZN5flecs1_9type_nameINS_6entityEEEPKcvE6result, symObjAddr: 0x2C888, symBinAddr: 0x845BD8, symSize: 0x0 }
  - { offset: 0xC064, size: 0x8, addend: 0x0, symName: __ZZN5flecs1_9type_nameINS_6entityEEEPKcvE9front_len, symObjAddr: 0x29D40, symBinAddr: 0x6D1E98, symSize: 0x0 }
  - { offset: 0xC079, size: 0x8, addend: 0x0, symName: __ZZN5flecs1_9type_nameINS_6entityEEEPKcvE11cppTypeName, symObjAddr: 0x2C898, symBinAddr: 0x845BE8, symSize: 0x0 }
  - { offset: 0xC08C, size: 0x8, addend: 0x0, symName: __ZN5flecs1_11symbol_nameINS_6entityEEEPKcv, symObjAddr: 0x18FC4, symBinAddr: 0x2216C, symSize: 0xB8 }
  - { offset: 0xC0B5, size: 0x8, addend: 0x0, symName: __ZZN5flecs1_11symbol_nameINS_6entityEEEPKcvE3len, symObjAddr: 0x29D48, symBinAddr: 0x6D1EA0, symSize: 0x0 }
  - { offset: 0xC0CA, size: 0x8, addend: 0x0, symName: __ZZN5flecs1_11symbol_nameINS_6entityEEEPKcvE6result, symObjAddr: 0x2C8A8, symBinAddr: 0x845BF8, symSize: 0x0 }
  - { offset: 0xC0DF, size: 0x8, addend: 0x0, symName: __ZZN5flecs1_11symbol_nameINS_6entityEEEPKcvE13cppSymbolName, symObjAddr: 0x2C8B8, symBinAddr: 0x845C08, symSize: 0x0 }
  - { offset: 0xC0F8, size: 0x8, addend: 0x0, symName: __ZN5flecs1_9type_implI9EcsScriptE7s_indexE, symObjAddr: 0x2C8C8, symBinAddr: 0x845C18, symSize: 0x0 }
  - { offset: 0xC1F9, size: 0x8, addend: 0x0, symName: __ZN5flecs1_9type_implI9EcsScriptE11s_allow_tagE, symObjAddr: 0x2C8CC, symBinAddr: 0x845C1C, symSize: 0x0 }
  - { offset: 0xC20C, size: 0x8, addend: 0x0, symName: __ZN5flecs1_9type_implI9EcsScriptE6s_sizeE, symObjAddr: 0x2C8D0, symBinAddr: 0x845C20, symSize: 0x0 }
  - { offset: 0xC21F, size: 0x8, addend: 0x0, symName: __ZN5flecs1_9type_implI9EcsScriptE11s_alignmentE, symObjAddr: 0x2C8D8, symBinAddr: 0x845C28, symSize: 0x0 }
  - { offset: 0xC22C, size: 0x8, addend: 0x0, symName: __ZN5flecs1_9type_nameI9EcsScriptEEPKcv, symObjAddr: 0x19C5C, symBinAddr: 0x22E04, symSize: 0xB4 }
  - { offset: 0xC255, size: 0x8, addend: 0x0, symName: __ZZN5flecs1_9type_nameI9EcsScriptEEPKcvE3len, symObjAddr: 0x29D50, symBinAddr: 0x6D1EA8, symSize: 0x0 }
  - { offset: 0xC26A, size: 0x8, addend: 0x0, symName: __ZZN5flecs1_9type_nameI9EcsScriptEEPKcvE6result, symObjAddr: 0x2C8E0, symBinAddr: 0x845C30, symSize: 0x0 }
  - { offset: 0xC27F, size: 0x8, addend: 0x0, symName: __ZZN5flecs1_9type_nameI9EcsScriptEEPKcvE9front_len, symObjAddr: 0x29D58, symBinAddr: 0x6D1EB0, symSize: 0x0 }
  - { offset: 0xC294, size: 0x8, addend: 0x0, symName: __ZZN5flecs1_9type_nameI9EcsScriptEEPKcvE11cppTypeName, symObjAddr: 0x2C8F0, symBinAddr: 0x845C40, symSize: 0x0 }
  - { offset: 0xC2A7, size: 0x8, addend: 0x0, symName: __ZN5flecs1_11symbol_nameI9EcsScriptEEPKcv, symObjAddr: 0x19D10, symBinAddr: 0x22EB8, symSize: 0xB8 }
  - { offset: 0xC2D0, size: 0x8, addend: 0x0, symName: __ZZN5flecs1_11symbol_nameI9EcsScriptEEPKcvE3len, symObjAddr: 0x29D60, symBinAddr: 0x6D1EB8, symSize: 0x0 }
  - { offset: 0xC2E5, size: 0x8, addend: 0x0, symName: __ZZN5flecs1_11symbol_nameI9EcsScriptEEPKcvE6result, symObjAddr: 0x2C900, symBinAddr: 0x845C50, symSize: 0x0 }
  - { offset: 0xC2FA, size: 0x8, addend: 0x0, symName: __ZZN5flecs1_11symbol_nameI9EcsScriptEEPKcvE13cppSymbolName, symObjAddr: 0x2C910, symBinAddr: 0x845C60, symSize: 0x0 }
  - { offset: 0xC313, size: 0x8, addend: 0x0, symName: __ZN5flecs1_9type_implIN7Entropy3ECS4Tags2D2EE7s_indexE, symObjAddr: 0x2C920, symBinAddr: 0x845C70, symSize: 0x0 }
  - { offset: 0xC414, size: 0x8, addend: 0x0, symName: __ZN5flecs1_9type_implIN7Entropy3ECS4Tags2D2EE11s_allow_tagE, symObjAddr: 0x2C924, symBinAddr: 0x845C74, symSize: 0x0 }
  - { offset: 0xC427, size: 0x8, addend: 0x0, symName: __ZN5flecs1_9type_implIN7Entropy3ECS4Tags2D2EE6s_sizeE, symObjAddr: 0x2C928, symBinAddr: 0x845C78, symSize: 0x0 }
  - { offset: 0xC43A, size: 0x8, addend: 0x0, symName: __ZN5flecs1_9type_implIN7Entropy3ECS4Tags2D2EE11s_alignmentE, symObjAddr: 0x2C930, symBinAddr: 0x845C80, symSize: 0x0 }
  - { offset: 0xC447, size: 0x8, addend: 0x0, symName: __ZN5flecs1_9type_nameIN7Entropy3ECS4Tags2D2EEEPKcv, symObjAddr: 0x1AD44, symBinAddr: 0x23EEC, symSize: 0xB4 }
  - { offset: 0xC470, size: 0x8, addend: 0x0, symName: __ZZN5flecs1_9type_nameIN7Entropy3ECS4Tags2D2EEEPKcvE3len, symObjAddr: 0x29F68, symBinAddr: 0x6D20C0, symSize: 0x0 }
  - { offset: 0xC485, size: 0x8, addend: 0x0, symName: __ZZN5flecs1_9type_nameIN7Entropy3ECS4Tags2D2EEEPKcvE6result, symObjAddr: 0x2C938, symBinAddr: 0x845C88, symSize: 0x0 }
  - { offset: 0xC49A, size: 0x8, addend: 0x0, symName: __ZZN5flecs1_9type_nameIN7Entropy3ECS4Tags2D2EEEPKcvE9front_len, symObjAddr: 0x29F70, symBinAddr: 0x6D20C8, symSize: 0x0 }
  - { offset: 0xC4AF, size: 0x8, addend: 0x0, symName: __ZZN5flecs1_9type_nameIN7Entropy3ECS4Tags2D2EEEPKcvE11cppTypeName, symObjAddr: 0x2C950, symBinAddr: 0x845CA0, symSize: 0x0 }
  - { offset: 0xC4C2, size: 0x8, addend: 0x0, symName: __ZN5flecs1_11symbol_nameIN7Entropy3ECS4Tags2D2EEEPKcv, symObjAddr: 0x1ADF8, symBinAddr: 0x23FA0, symSize: 0xB8 }
  - { offset: 0xC4EB, size: 0x8, addend: 0x0, symName: __ZZN5flecs1_11symbol_nameIN7Entropy3ECS4Tags2D2EEEPKcvE3len, symObjAddr: 0x29F78, symBinAddr: 0x6D20D0, symSize: 0x0 }
  - { offset: 0xC500, size: 0x8, addend: 0x0, symName: __ZZN5flecs1_11symbol_nameIN7Entropy3ECS4Tags2D2EEEPKcvE6result, symObjAddr: 0x2C960, symBinAddr: 0x845CB0, symSize: 0x0 }
  - { offset: 0xC515, size: 0x8, addend: 0x0, symName: __ZZN5flecs1_11symbol_nameIN7Entropy3ECS4Tags2D2EEEPKcvE13cppSymbolName, symObjAddr: 0x2C978, symBinAddr: 0x845CC8, symSize: 0x0 }
  - { offset: 0xC52E, size: 0x8, addend: 0x0, symName: __ZN5flecs1_9type_implIN7Entropy3ECS10Components8PositionEE7s_indexE, symObjAddr: 0x2C988, symBinAddr: 0x845CD8, symSize: 0x0 }
  - { offset: 0xC62F, size: 0x8, addend: 0x0, symName: __ZN5flecs1_9type_implIN7Entropy3ECS10Components8PositionEE11s_allow_tagE, symObjAddr: 0x2C98C, symBinAddr: 0x845CDC, symSize: 0x0 }
  - { offset: 0xC642, size: 0x8, addend: 0x0, symName: __ZN5flecs1_9type_implIN7Entropy3ECS10Components8PositionEE6s_sizeE, symObjAddr: 0x2C990, symBinAddr: 0x845CE0, symSize: 0x0 }
  - { offset: 0xC655, size: 0x8, addend: 0x0, symName: __ZN5flecs1_9type_implIN7Entropy3ECS10Components8PositionEE11s_alignmentE, symObjAddr: 0x2C998, symBinAddr: 0x845CE8, symSize: 0x0 }
  - { offset: 0xC662, size: 0x8, addend: 0x0, symName: __ZN5flecs1_9type_nameIN7Entropy3ECS10Components8PositionEEEPKcv, symObjAddr: 0x20CA8, symBinAddr: 0x29DD4, symSize: 0xB4 }
  - { offset: 0xC68B, size: 0x8, addend: 0x0, symName: __ZZN5flecs1_9type_nameIN7Entropy3ECS10Components8PositionEEEPKcvE3len, symObjAddr: 0x2A438, symBinAddr: 0x6D2590, symSize: 0x0 }
  - { offset: 0xC6A0, size: 0x8, addend: 0x0, symName: __ZZN5flecs1_9type_nameIN7Entropy3ECS10Components8PositionEEEPKcvE6result, symObjAddr: 0x2C9A0, symBinAddr: 0x845CF0, symSize: 0x0 }
  - { offset: 0xC6B5, size: 0x8, addend: 0x0, symName: __ZZN5flecs1_9type_nameIN7Entropy3ECS10Components8PositionEEEPKcvE9front_len, symObjAddr: 0x2A440, symBinAddr: 0x6D2598, symSize: 0x0 }
  - { offset: 0xC6CA, size: 0x8, addend: 0x0, symName: __ZZN5flecs1_9type_nameIN7Entropy3ECS10Components8PositionEEEPKcvE11cppTypeName, symObjAddr: 0x2C9C8, symBinAddr: 0x845D18, symSize: 0x0 }
  - { offset: 0xC6DD, size: 0x8, addend: 0x0, symName: __ZN5flecs1_11symbol_nameIN7Entropy3ECS10Components8PositionEEEPKcv, symObjAddr: 0x20D5C, symBinAddr: 0x29E88, symSize: 0xB8 }
  - { offset: 0xC706, size: 0x8, addend: 0x0, symName: __ZZN5flecs1_11symbol_nameIN7Entropy3ECS10Components8PositionEEEPKcvE3len, symObjAddr: 0x2A448, symBinAddr: 0x6D25A0, symSize: 0x0 }
  - { offset: 0xC71B, size: 0x8, addend: 0x0, symName: __ZZN5flecs1_11symbol_nameIN7Entropy3ECS10Components8PositionEEEPKcvE6result, symObjAddr: 0x2C9D8, symBinAddr: 0x845D28, symSize: 0x0 }
  - { offset: 0xC730, size: 0x8, addend: 0x0, symName: __ZZN5flecs1_11symbol_nameIN7Entropy3ECS10Components8PositionEEEPKcvE13cppSymbolName, symObjAddr: 0x2CA00, symBinAddr: 0x845D50, symSize: 0x0 }
  - { offset: 0xC749, size: 0x8, addend: 0x0, symName: __ZN5flecs1_9type_implIN7Entropy3ECS10Components9DimensionEE7s_indexE, symObjAddr: 0x2CA10, symBinAddr: 0x845D60, symSize: 0x0 }
  - { offset: 0xC84A, size: 0x8, addend: 0x0, symName: __ZN5flecs1_9type_implIN7Entropy3ECS10Components9DimensionEE11s_allow_tagE, symObjAddr: 0x2CA14, symBinAddr: 0x845D64, symSize: 0x0 }
  - { offset: 0xC85D, size: 0x8, addend: 0x0, symName: __ZN5flecs1_9type_implIN7Entropy3ECS10Components9DimensionEE6s_sizeE, symObjAddr: 0x2CA18, symBinAddr: 0x845D68, symSize: 0x0 }
  - { offset: 0xC870, size: 0x8, addend: 0x0, symName: __ZN5flecs1_9type_implIN7Entropy3ECS10Components9DimensionEE11s_alignmentE, symObjAddr: 0x2CA20, symBinAddr: 0x845D70, symSize: 0x0 }
  - { offset: 0xC87D, size: 0x8, addend: 0x0, symName: __ZN5flecs1_9type_nameIN7Entropy3ECS10Components9DimensionEEEPKcv, symObjAddr: 0x2153C, symBinAddr: 0x2A668, symSize: 0xB4 }
  - { offset: 0xC8A6, size: 0x8, addend: 0x0, symName: __ZZN5flecs1_9type_nameIN7Entropy3ECS10Components9DimensionEEEPKcvE3len, symObjAddr: 0x2A450, symBinAddr: 0x6D25A8, symSize: 0x0 }
  - { offset: 0xC8BB, size: 0x8, addend: 0x0, symName: __ZZN5flecs1_9type_nameIN7Entropy3ECS10Components9DimensionEEEPKcvE6result, symObjAddr: 0x2CA28, symBinAddr: 0x845D78, symSize: 0x0 }
  - { offset: 0xC8D0, size: 0x8, addend: 0x0, symName: __ZZN5flecs1_9type_nameIN7Entropy3ECS10Components9DimensionEEEPKcvE9front_len, symObjAddr: 0x2A458, symBinAddr: 0x6D25B0, symSize: 0x0 }
  - { offset: 0xC8E5, size: 0x8, addend: 0x0, symName: __ZZN5flecs1_9type_nameIN7Entropy3ECS10Components9DimensionEEEPKcvE11cppTypeName, symObjAddr: 0x2CA50, symBinAddr: 0x845DA0, symSize: 0x0 }
  - { offset: 0xC8F8, size: 0x8, addend: 0x0, symName: __ZN5flecs1_11symbol_nameIN7Entropy3ECS10Components9DimensionEEEPKcv, symObjAddr: 0x215F0, symBinAddr: 0x2A71C, symSize: 0xB8 }
  - { offset: 0xC921, size: 0x8, addend: 0x0, symName: __ZZN5flecs1_11symbol_nameIN7Entropy3ECS10Components9DimensionEEEPKcvE3len, symObjAddr: 0x2A460, symBinAddr: 0x6D25B8, symSize: 0x0 }
  - { offset: 0xC936, size: 0x8, addend: 0x0, symName: __ZZN5flecs1_11symbol_nameIN7Entropy3ECS10Components9DimensionEEEPKcvE6result, symObjAddr: 0x2CA60, symBinAddr: 0x845DB0, symSize: 0x0 }
  - { offset: 0xC94B, size: 0x8, addend: 0x0, symName: __ZZN5flecs1_11symbol_nameIN7Entropy3ECS10Components9DimensionEEEPKcvE13cppSymbolName, symObjAddr: 0x2CA88, symBinAddr: 0x845DD8, symSize: 0x0 }
  - { offset: 0xC964, size: 0x8, addend: 0x0, symName: __ZN5flecs1_9type_implIN7Entropy3ECS10Components8RotationEE7s_indexE, symObjAddr: 0x2CA98, symBinAddr: 0x845DE8, symSize: 0x0 }
  - { offset: 0xCA65, size: 0x8, addend: 0x0, symName: __ZN5flecs1_9type_implIN7Entropy3ECS10Components8RotationEE11s_allow_tagE, symObjAddr: 0x2CA9C, symBinAddr: 0x845DEC, symSize: 0x0 }
  - { offset: 0xCA78, size: 0x8, addend: 0x0, symName: __ZN5flecs1_9type_implIN7Entropy3ECS10Components8RotationEE6s_sizeE, symObjAddr: 0x2CAA0, symBinAddr: 0x845DF0, symSize: 0x0 }
  - { offset: 0xCA8B, size: 0x8, addend: 0x0, symName: __ZN5flecs1_9type_implIN7Entropy3ECS10Components8RotationEE11s_alignmentE, symObjAddr: 0x2CAA8, symBinAddr: 0x845DF8, symSize: 0x0 }
  - { offset: 0xCA98, size: 0x8, addend: 0x0, symName: __ZN5flecs1_9type_nameIN7Entropy3ECS10Components8RotationEEEPKcv, symObjAddr: 0x21DD0, symBinAddr: 0x2AEFC, symSize: 0xB4 }
  - { offset: 0xCAC1, size: 0x8, addend: 0x0, symName: __ZZN5flecs1_9type_nameIN7Entropy3ECS10Components8RotationEEEPKcvE3len, symObjAddr: 0x2A468, symBinAddr: 0x6D25C0, symSize: 0x0 }
  - { offset: 0xCAD6, size: 0x8, addend: 0x0, symName: __ZZN5flecs1_9type_nameIN7Entropy3ECS10Components8RotationEEEPKcvE6result, symObjAddr: 0x2CAB0, symBinAddr: 0x845E00, symSize: 0x0 }
  - { offset: 0xCAEB, size: 0x8, addend: 0x0, symName: __ZZN5flecs1_9type_nameIN7Entropy3ECS10Components8RotationEEEPKcvE9front_len, symObjAddr: 0x2A470, symBinAddr: 0x6D25C8, symSize: 0x0 }
  - { offset: 0xCB00, size: 0x8, addend: 0x0, symName: __ZZN5flecs1_9type_nameIN7Entropy3ECS10Components8RotationEEEPKcvE11cppTypeName, symObjAddr: 0x2CAD8, symBinAddr: 0x845E28, symSize: 0x0 }
  - { offset: 0xCB13, size: 0x8, addend: 0x0, symName: __ZN5flecs1_11symbol_nameIN7Entropy3ECS10Components8RotationEEEPKcv, symObjAddr: 0x21E84, symBinAddr: 0x2AFB0, symSize: 0xB8 }
  - { offset: 0xCB3C, size: 0x8, addend: 0x0, symName: __ZZN5flecs1_11symbol_nameIN7Entropy3ECS10Components8RotationEEEPKcvE3len, symObjAddr: 0x2A478, symBinAddr: 0x6D25D0, symSize: 0x0 }
  - { offset: 0xCB51, size: 0x8, addend: 0x0, symName: __ZZN5flecs1_11symbol_nameIN7Entropy3ECS10Components8RotationEEEPKcvE6result, symObjAddr: 0x2CAE8, symBinAddr: 0x845E38, symSize: 0x0 }
  - { offset: 0xCB66, size: 0x8, addend: 0x0, symName: __ZZN5flecs1_11symbol_nameIN7Entropy3ECS10Components8RotationEEEPKcvE13cppSymbolName, symObjAddr: 0x2CB10, symBinAddr: 0x845E60, symSize: 0x0 }
  - { offset: 0xCB7F, size: 0x8, addend: 0x0, symName: __ZN5flecs1_9type_implIN7Entropy3ECS10Components5ColorEE7s_indexE, symObjAddr: 0x2CB20, symBinAddr: 0x845E70, symSize: 0x0 }
  - { offset: 0xCC80, size: 0x8, addend: 0x0, symName: __ZN5flecs1_9type_implIN7Entropy3ECS10Components5ColorEE11s_allow_tagE, symObjAddr: 0x2CB24, symBinAddr: 0x845E74, symSize: 0x0 }
  - { offset: 0xCC93, size: 0x8, addend: 0x0, symName: __ZN5flecs1_9type_implIN7Entropy3ECS10Components5ColorEE6s_sizeE, symObjAddr: 0x2CB28, symBinAddr: 0x845E78, symSize: 0x0 }
  - { offset: 0xCCA6, size: 0x8, addend: 0x0, symName: __ZN5flecs1_9type_implIN7Entropy3ECS10Components5ColorEE11s_alignmentE, symObjAddr: 0x2CB30, symBinAddr: 0x845E80, symSize: 0x0 }
  - { offset: 0xCCB3, size: 0x8, addend: 0x0, symName: __ZN5flecs1_9type_nameIN7Entropy3ECS10Components5ColorEEEPKcv, symObjAddr: 0x22660, symBinAddr: 0x2B78C, symSize: 0xB4 }
  - { offset: 0xCCDC, size: 0x8, addend: 0x0, symName: __ZZN5flecs1_9type_nameIN7Entropy3ECS10Components5ColorEEEPKcvE3len, symObjAddr: 0x2A480, symBinAddr: 0x6D25D8, symSize: 0x0 }
  - { offset: 0xCCF1, size: 0x8, addend: 0x0, symName: __ZZN5flecs1_9type_nameIN7Entropy3ECS10Components5ColorEEEPKcvE6result, symObjAddr: 0x2CB38, symBinAddr: 0x845E88, symSize: 0x0 }
  - { offset: 0xCD06, size: 0x8, addend: 0x0, symName: __ZZN5flecs1_9type_nameIN7Entropy3ECS10Components5ColorEEEPKcvE9front_len, symObjAddr: 0x2A488, symBinAddr: 0x6D25E0, symSize: 0x0 }
  - { offset: 0xCD1B, size: 0x8, addend: 0x0, symName: __ZZN5flecs1_9type_nameIN7Entropy3ECS10Components5ColorEEEPKcvE11cppTypeName, symObjAddr: 0x2CB58, symBinAddr: 0x845EA8, symSize: 0x0 }
  - { offset: 0xCD2E, size: 0x8, addend: 0x0, symName: __ZN5flecs1_11symbol_nameIN7Entropy3ECS10Components5ColorEEEPKcv, symObjAddr: 0x22714, symBinAddr: 0x2B840, symSize: 0xB8 }
  - { offset: 0xCD57, size: 0x8, addend: 0x0, symName: __ZZN5flecs1_11symbol_nameIN7Entropy3ECS10Components5ColorEEEPKcvE3len, symObjAddr: 0x2A490, symBinAddr: 0x6D25E8, symSize: 0x0 }
  - { offset: 0xCD6C, size: 0x8, addend: 0x0, symName: __ZZN5flecs1_11symbol_nameIN7Entropy3ECS10Components5ColorEEEPKcvE6result, symObjAddr: 0x2CB68, symBinAddr: 0x845EB8, symSize: 0x0 }
  - { offset: 0xCD81, size: 0x8, addend: 0x0, symName: __ZZN5flecs1_11symbol_nameIN7Entropy3ECS10Components5ColorEEEPKcvE13cppSymbolName, symObjAddr: 0x2CB88, symBinAddr: 0x845ED8, symSize: 0x0 }
  - { offset: 0xCD9A, size: 0x8, addend: 0x0, symName: __ZN5flecs1_9type_implIN7Entropy3ECS10Components16TextureComponentEE7s_indexE, symObjAddr: 0x2CB98, symBinAddr: 0x845EE8, symSize: 0x0 }
  - { offset: 0xCE9B, size: 0x8, addend: 0x0, symName: __ZN5flecs1_9type_implIN7Entropy3ECS10Components16TextureComponentEE11s_allow_tagE, symObjAddr: 0x2CB9C, symBinAddr: 0x845EEC, symSize: 0x0 }
  - { offset: 0xCEAE, size: 0x8, addend: 0x0, symName: __ZN5flecs1_9type_implIN7Entropy3ECS10Components16TextureComponentEE6s_sizeE, symObjAddr: 0x2CBA0, symBinAddr: 0x845EF0, symSize: 0x0 }
  - { offset: 0xCEC1, size: 0x8, addend: 0x0, symName: __ZN5flecs1_9type_implIN7Entropy3ECS10Components16TextureComponentEE11s_alignmentE, symObjAddr: 0x2CBA8, symBinAddr: 0x845EF8, symSize: 0x0 }
  - { offset: 0xCECE, size: 0x8, addend: 0x0, symName: __ZN5flecs1_9type_nameIN7Entropy3ECS10Components16TextureComponentEEEPKcv, symObjAddr: 0x22EF0, symBinAddr: 0x2C01C, symSize: 0xB4 }
  - { offset: 0xCEF7, size: 0x8, addend: 0x0, symName: __ZZN5flecs1_9type_nameIN7Entropy3ECS10Components16TextureComponentEEEPKcvE3len, symObjAddr: 0x2A498, symBinAddr: 0x6D25F0, symSize: 0x0 }
  - { offset: 0xCF0C, size: 0x8, addend: 0x0, symName: __ZZN5flecs1_9type_nameIN7Entropy3ECS10Components16TextureComponentEEEPKcvE6result, symObjAddr: 0x2CBB0, symBinAddr: 0x845F00, symSize: 0x0 }
  - { offset: 0xCF21, size: 0x8, addend: 0x0, symName: __ZZN5flecs1_9type_nameIN7Entropy3ECS10Components16TextureComponentEEEPKcvE9front_len, symObjAddr: 0x2A4A0, symBinAddr: 0x6D25F8, symSize: 0x0 }
  - { offset: 0xCF36, size: 0x8, addend: 0x0, symName: __ZZN5flecs1_9type_nameIN7Entropy3ECS10Components16TextureComponentEEEPKcvE11cppTypeName, symObjAddr: 0x2CBE0, symBinAddr: 0x845F30, symSize: 0x0 }
  - { offset: 0xCF49, size: 0x8, addend: 0x0, symName: __ZN5flecs1_11symbol_nameIN7Entropy3ECS10Components16TextureComponentEEEPKcv, symObjAddr: 0x22FA4, symBinAddr: 0x2C0D0, symSize: 0xB8 }
  - { offset: 0xCF72, size: 0x8, addend: 0x0, symName: __ZZN5flecs1_11symbol_nameIN7Entropy3ECS10Components16TextureComponentEEEPKcvE3len, symObjAddr: 0x2A4A8, symBinAddr: 0x6D2600, symSize: 0x0 }
  - { offset: 0xCF87, size: 0x8, addend: 0x0, symName: __ZZN5flecs1_11symbol_nameIN7Entropy3ECS10Components16TextureComponentEEEPKcvE6result, symObjAddr: 0x2CBF0, symBinAddr: 0x845F40, symSize: 0x0 }
  - { offset: 0xCF9C, size: 0x8, addend: 0x0, symName: __ZZN5flecs1_11symbol_nameIN7Entropy3ECS10Components16TextureComponentEEEPKcvE13cppSymbolName, symObjAddr: 0x2CC20, symBinAddr: 0x845F70, symSize: 0x0 }
  - { offset: 0xDC3A, size: 0x8, addend: 0x0, symName: __ZN5flecs1_11system_initERNS_5worldE, symObjAddr: 0x2F74, symBinAddr: 0xC11C, symSize: 0x34 }
  - { offset: 0xDC62, size: 0x8, addend: 0x0, symName: __ZN5flecs1_10timer_initERNS_5worldE, symObjAddr: 0x2FA8, symBinAddr: 0xC150, symSize: 0x4C }
  - { offset: 0xDC8A, size: 0x8, addend: 0x0, symName: __ZN5flecs1_26register_lifecycle_actionsI12EcsComponentLPv0EEEvP11ecs_world_ty, symObjAddr: 0x3B38, symBinAddr: 0xCCE0, symSize: 0x14 }
  - { offset: 0xDCC7, size: 0x8, addend: 0x0, symName: __ZN5flecs1_L9init_enumI12EcsComponentLi0EEEvP11ecs_world_ty, symObjAddr: 0x3B4C, symBinAddr: 0xCCF4, symSize: 0x14 }
  - { offset: 0xDD07, size: 0x8, addend: 0x0, symName: __ZN5flecs1_26register_lifecycle_actionsI13EcsIdentifierLPv0EEEvP11ecs_world_ty, symObjAddr: 0x4168, symBinAddr: 0xD310, symSize: 0x14 }
  - { offset: 0xDD44, size: 0x8, addend: 0x0, symName: __ZN5flecs1_L9init_enumI13EcsIdentifierLi0EEEvP11ecs_world_ty, symObjAddr: 0x417C, symBinAddr: 0xD324, symSize: 0x14 }
  - { offset: 0xDD84, size: 0x8, addend: 0x0, symName: __ZN5flecs1_26register_lifecycle_actionsI7EcsPolyLPv0EEEvP11ecs_world_ty, symObjAddr: 0x4794, symBinAddr: 0xD93C, symSize: 0x14 }
  - { offset: 0xDDC1, size: 0x8, addend: 0x0, symName: __ZN5flecs1_L9init_enumI7EcsPolyLi0EEEvP11ecs_world_ty, symObjAddr: 0x47A8, symBinAddr: 0xD950, symSize: 0x14 }
  - { offset: 0xDE01, size: 0x8, addend: 0x0, symName: __ZN5flecs1_26register_lifecycle_actionsI13EcsTickSourceLPv0EEEvP11ecs_world_ty, symObjAddr: 0x4E0C, symBinAddr: 0xDFB4, symSize: 0x14 }
  - { offset: 0xDE3E, size: 0x8, addend: 0x0, symName: __ZN5flecs1_L9init_enumI13EcsTickSourceLi0EEEvP11ecs_world_ty, symObjAddr: 0x4E20, symBinAddr: 0xDFC8, symSize: 0x14 }
  - { offset: 0xDE7E, size: 0x8, addend: 0x0, symName: __ZN5flecs1_26register_lifecycle_actionsI13EcsRateFilterLPv0EEEvP11ecs_world_ty, symObjAddr: 0x54CC, symBinAddr: 0xE674, symSize: 0x14 }
  - { offset: 0xDEBB, size: 0x8, addend: 0x0, symName: __ZN5flecs1_L9init_enumI13EcsRateFilterLi0EEEvP11ecs_world_ty, symObjAddr: 0x54E0, symBinAddr: 0xE688, symSize: 0x14 }
  - { offset: 0xDEFB, size: 0x8, addend: 0x0, symName: __ZN5flecs1_26register_lifecycle_actionsI8EcsTimerLPv0EEEvP11ecs_world_ty, symObjAddr: 0x5AFC, symBinAddr: 0xECA4, symSize: 0x14 }
  - { offset: 0xDF38, size: 0x8, addend: 0x0, symName: __ZN5flecs1_L9init_enumI8EcsTimerLi0EEEvP11ecs_world_ty, symObjAddr: 0x5B10, symBinAddr: 0xECB8, symSize: 0x14 }
  - { offset: 0xDF78, size: 0x8, addend: 0x0, symName: __ZN5flecs1_26register_lifecycle_actionsI17EcsDocDescriptionLPv0EEEvP11ecs_world_ty, symObjAddr: 0x6170, symBinAddr: 0xF318, symSize: 0x14 }
  - { offset: 0xDFB5, size: 0x8, addend: 0x0, symName: __ZN5flecs1_L9init_enumI17EcsDocDescriptionLi0EEEvP11ecs_world_ty, symObjAddr: 0x6184, symBinAddr: 0xF32C, symSize: 0x14 }
  - { offset: 0xDFF5, size: 0x8, addend: 0x0, symName: __ZN5flecs1_26register_lifecycle_actionsI7EcsRestLPv0EEEvP11ecs_world_ty, symObjAddr: 0x67E8, symBinAddr: 0xF990, symSize: 0x14 }
  - { offset: 0xE032, size: 0x8, addend: 0x0, symName: __ZN5flecs1_L9init_enumI7EcsRestLi0EEEvP11ecs_world_ty, symObjAddr: 0x67FC, symBinAddr: 0xF9A4, symSize: 0x14 }
  - { offset: 0xE072, size: 0x8, addend: 0x0, symName: __ZN5flecs1_26register_lifecycle_actionsIbLPv0EEEvP11ecs_world_ty, symObjAddr: 0x7770, symBinAddr: 0x10918, symSize: 0x14 }
  - { offset: 0xE0AF, size: 0x8, addend: 0x0, symName: __ZN5flecs1_L9init_enumIbLi0EEEvP11ecs_world_ty, symObjAddr: 0x7784, symBinAddr: 0x1092C, symSize: 0x14 }
  - { offset: 0xE0EF, size: 0x8, addend: 0x0, symName: __ZN5flecs1_26register_lifecycle_actionsIcLPv0EEEvP11ecs_world_ty, symObjAddr: 0x7D9C, symBinAddr: 0x10F44, symSize: 0x14 }
  - { offset: 0xE12C, size: 0x8, addend: 0x0, symName: __ZN5flecs1_L9init_enumIcLi0EEEvP11ecs_world_ty, symObjAddr: 0x7DB0, symBinAddr: 0x10F58, symSize: 0x14 }
  - { offset: 0xE16C, size: 0x8, addend: 0x0, symName: __ZN5flecs1_11symbol_nameIhEEPKcv, symObjAddr: 0x81D8, symBinAddr: 0x11380, symSize: 0xC }
  - { offset: 0xE193, size: 0x8, addend: 0x0, symName: __ZN5flecs1_26register_lifecycle_actionsIhLPv0EEEvP11ecs_world_ty, symObjAddr: 0x831C, symBinAddr: 0x114C4, symSize: 0x14 }
  - { offset: 0xE1D0, size: 0x8, addend: 0x0, symName: __ZN5flecs1_L9init_enumIhLi0EEEvP11ecs_world_ty, symObjAddr: 0x8330, symBinAddr: 0x114D8, symSize: 0x14 }
  - { offset: 0xE210, size: 0x8, addend: 0x0, symName: __ZN5flecs1_11symbol_nameItEEPKcv, symObjAddr: 0x8758, symBinAddr: 0x11900, symSize: 0xC }
  - { offset: 0xE237, size: 0x8, addend: 0x0, symName: __ZN5flecs1_26register_lifecycle_actionsItLPv0EEEvP11ecs_world_ty, symObjAddr: 0x889C, symBinAddr: 0x11A44, symSize: 0x14 }
  - { offset: 0xE274, size: 0x8, addend: 0x0, symName: __ZN5flecs1_L9init_enumItLi0EEEvP11ecs_world_ty, symObjAddr: 0x88B0, symBinAddr: 0x11A58, symSize: 0x14 }
  - { offset: 0xE2B4, size: 0x8, addend: 0x0, symName: __ZN5flecs1_11symbol_nameIjEEPKcv, symObjAddr: 0x8CD8, symBinAddr: 0x11E80, symSize: 0xC }
  - { offset: 0xE2DB, size: 0x8, addend: 0x0, symName: __ZN5flecs1_26register_lifecycle_actionsIjLPv0EEEvP11ecs_world_ty, symObjAddr: 0x8E1C, symBinAddr: 0x11FC4, symSize: 0x14 }
  - { offset: 0xE318, size: 0x8, addend: 0x0, symName: __ZN5flecs1_L9init_enumIjLi0EEEvP11ecs_world_ty, symObjAddr: 0x8E30, symBinAddr: 0x11FD8, symSize: 0x14 }
  - { offset: 0xE358, size: 0x8, addend: 0x0, symName: __ZN5flecs1_11symbol_nameIyEEPKcv, symObjAddr: 0x9258, symBinAddr: 0x12400, symSize: 0xC }
  - { offset: 0xE37F, size: 0x8, addend: 0x0, symName: __ZN5flecs1_26register_lifecycle_actionsIyLPv0EEEvP11ecs_world_ty, symObjAddr: 0x939C, symBinAddr: 0x12544, symSize: 0x14 }
  - { offset: 0xE3BC, size: 0x8, addend: 0x0, symName: __ZN5flecs1_L9init_enumIyLi0EEEvP11ecs_world_ty, symObjAddr: 0x93B0, symBinAddr: 0x12558, symSize: 0x14 }
  - { offset: 0xE3FC, size: 0x8, addend: 0x0, symName: __ZN5flecs1_11symbol_nameIaEEPKcv, symObjAddr: 0x97D8, symBinAddr: 0x12980, symSize: 0xC }
  - { offset: 0xE423, size: 0x8, addend: 0x0, symName: __ZN5flecs1_26register_lifecycle_actionsIaLPv0EEEvP11ecs_world_ty, symObjAddr: 0x991C, symBinAddr: 0x12AC4, symSize: 0x14 }
  - { offset: 0xE460, size: 0x8, addend: 0x0, symName: __ZN5flecs1_L9init_enumIaLi0EEEvP11ecs_world_ty, symObjAddr: 0x9930, symBinAddr: 0x12AD8, symSize: 0x14 }
  - { offset: 0xE4A0, size: 0x8, addend: 0x0, symName: __ZN5flecs1_11symbol_nameIsEEPKcv, symObjAddr: 0x9D58, symBinAddr: 0x12F00, symSize: 0xC }
  - { offset: 0xE4C7, size: 0x8, addend: 0x0, symName: __ZN5flecs1_26register_lifecycle_actionsIsLPv0EEEvP11ecs_world_ty, symObjAddr: 0x9E9C, symBinAddr: 0x13044, symSize: 0x14 }
  - { offset: 0xE504, size: 0x8, addend: 0x0, symName: __ZN5flecs1_L9init_enumIsLi0EEEvP11ecs_world_ty, symObjAddr: 0x9EB0, symBinAddr: 0x13058, symSize: 0x14 }
  - { offset: 0xE544, size: 0x8, addend: 0x0, symName: __ZN5flecs1_11symbol_nameIiEEPKcv, symObjAddr: 0xA2D8, symBinAddr: 0x13480, symSize: 0xC }
  - { offset: 0xE56B, size: 0x8, addend: 0x0, symName: __ZN5flecs1_26register_lifecycle_actionsIiLPv0EEEvP11ecs_world_ty, symObjAddr: 0xA41C, symBinAddr: 0x135C4, symSize: 0x14 }
  - { offset: 0xE5A8, size: 0x8, addend: 0x0, symName: __ZN5flecs1_L9init_enumIiLi0EEEvP11ecs_world_ty, symObjAddr: 0xA430, symBinAddr: 0x135D8, symSize: 0x14 }
  - { offset: 0xE5E8, size: 0x8, addend: 0x0, symName: __ZN5flecs1_11symbol_nameIxEEPKcv, symObjAddr: 0xA858, symBinAddr: 0x13A00, symSize: 0xC }
  - { offset: 0xE60F, size: 0x8, addend: 0x0, symName: __ZN5flecs1_26register_lifecycle_actionsIxLPv0EEEvP11ecs_world_ty, symObjAddr: 0xA99C, symBinAddr: 0x13B44, symSize: 0x14 }
  - { offset: 0xE64C, size: 0x8, addend: 0x0, symName: __ZN5flecs1_L9init_enumIxLi0EEEvP11ecs_world_ty, symObjAddr: 0xA9B0, symBinAddr: 0x13B58, symSize: 0x14 }
  - { offset: 0xE68C, size: 0x8, addend: 0x0, symName: __ZN5flecs1_11symbol_nameIfEEPKcv, symObjAddr: 0xADD8, symBinAddr: 0x13F80, symSize: 0xC }
  - { offset: 0xE6B3, size: 0x8, addend: 0x0, symName: __ZN5flecs1_26register_lifecycle_actionsIfLPv0EEEvP11ecs_world_ty, symObjAddr: 0xAF1C, symBinAddr: 0x140C4, symSize: 0x14 }
  - { offset: 0xE6F0, size: 0x8, addend: 0x0, symName: __ZN5flecs1_L9init_enumIfLi0EEEvP11ecs_world_ty, symObjAddr: 0xAF30, symBinAddr: 0x140D8, symSize: 0x14 }
  - { offset: 0xE730, size: 0x8, addend: 0x0, symName: __ZN5flecs1_11symbol_nameIdEEPKcv, symObjAddr: 0xB358, symBinAddr: 0x14500, symSize: 0xC }
  - { offset: 0xE757, size: 0x8, addend: 0x0, symName: __ZN5flecs1_26register_lifecycle_actionsIdLPv0EEEvP11ecs_world_ty, symObjAddr: 0xB49C, symBinAddr: 0x14644, symSize: 0x14 }
  - { offset: 0xE794, size: 0x8, addend: 0x0, symName: __ZN5flecs1_L9init_enumIdLi0EEEvP11ecs_world_ty, symObjAddr: 0xB4B0, symBinAddr: 0x14658, symSize: 0x14 }
  - { offset: 0xE7D4, size: 0x8, addend: 0x0, symName: __ZN5flecs1_26register_lifecycle_actionsI15ecs_type_kind_tLPv0EEEvP11ecs_world_ty, symObjAddr: 0xBAC8, symBinAddr: 0x14C70, symSize: 0x14 }
  - { offset: 0xE811, size: 0x8, addend: 0x0, symName: __ZN5flecs1_L9init_enumI15ecs_type_kind_tLi0EEEvP11ecs_world_ty, symObjAddr: 0xBADC, symBinAddr: 0x14C84, symSize: 0x30 }
  - { offset: 0xF133, size: 0x8, addend: 0x0, symName: __ZN5flecs1_26register_lifecycle_actionsI20ecs_primitive_kind_tLPv0EEEvP11ecs_world_ty, symObjAddr: 0xE168, symBinAddr: 0x17310, symSize: 0x14 }
  - { offset: 0xF170, size: 0x8, addend: 0x0, symName: __ZN5flecs1_L9init_enumI20ecs_primitive_kind_tLi0EEEvP11ecs_world_ty, symObjAddr: 0xE17C, symBinAddr: 0x17324, symSize: 0x30 }
  - { offset: 0xFD3E, size: 0x8, addend: 0x0, symName: __ZN5flecs1_26register_lifecycle_actionsI12ecs_member_tLPv0EEEvP11ecs_world_ty, symObjAddr: 0x125D8, symBinAddr: 0x1B780, symSize: 0x14 }
  - { offset: 0xFD7B, size: 0x8, addend: 0x0, symName: __ZN5flecs1_L9init_enumI12ecs_member_tLi0EEEvP11ecs_world_ty, symObjAddr: 0x125EC, symBinAddr: 0x1B794, symSize: 0x14 }
  - { offset: 0xFDBB, size: 0x8, addend: 0x0, symName: __ZN5flecs1_26register_lifecycle_actionsI19ecs_enum_constant_tLPv0EEEvP11ecs_world_ty, symObjAddr: 0x12C08, symBinAddr: 0x1BDB0, symSize: 0x14 }
  - { offset: 0xFDF8, size: 0x8, addend: 0x0, symName: __ZN5flecs1_L9init_enumI19ecs_enum_constant_tLi0EEEvP11ecs_world_ty, symObjAddr: 0x12C1C, symBinAddr: 0x1BDC4, symSize: 0x14 }
  - { offset: 0xFE38, size: 0x8, addend: 0x0, symName: __ZN5flecs1_26register_lifecycle_actionsI22ecs_bitmask_constant_tLPv0EEEvP11ecs_world_ty, symObjAddr: 0x13238, symBinAddr: 0x1C3E0, symSize: 0x14 }
  - { offset: 0xFE75, size: 0x8, addend: 0x0, symName: __ZN5flecs1_L9init_enumI22ecs_bitmask_constant_tLi0EEEvP11ecs_world_ty, symObjAddr: 0x1324C, symBinAddr: 0x1C3F4, symSize: 0x14 }
  - { offset: 0xFEB5, size: 0x8, addend: 0x0, symName: __ZN5flecs1_26register_lifecycle_actionsI7EcsTypeLPv0EEEvP11ecs_world_ty, symObjAddr: 0x13868, symBinAddr: 0x1CA10, symSize: 0x14 }
  - { offset: 0xFEF2, size: 0x8, addend: 0x0, symName: __ZN5flecs1_L9init_enumI7EcsTypeLi0EEEvP11ecs_world_ty, symObjAddr: 0x1387C, symBinAddr: 0x1CA24, symSize: 0x14 }
  - { offset: 0xFF32, size: 0x8, addend: 0x0, symName: __ZN5flecs1_26register_lifecycle_actionsI17EcsTypeSerializerLPv0EEEvP11ecs_world_ty, symObjAddr: 0x13E98, symBinAddr: 0x1D040, symSize: 0x14 }
  - { offset: 0xFF6F, size: 0x8, addend: 0x0, symName: __ZN5flecs1_L9init_enumI17EcsTypeSerializerLi0EEEvP11ecs_world_ty, symObjAddr: 0x13EAC, symBinAddr: 0x1D054, symSize: 0x14 }
  - { offset: 0xFFAF, size: 0x8, addend: 0x0, symName: __ZN5flecs1_26register_lifecycle_actionsI12EcsPrimitiveLPv0EEEvP11ecs_world_ty, symObjAddr: 0x144C4, symBinAddr: 0x1D66C, symSize: 0x14 }
  - { offset: 0xFFEC, size: 0x8, addend: 0x0, symName: __ZN5flecs1_L9init_enumI12EcsPrimitiveLi0EEEvP11ecs_world_ty, symObjAddr: 0x144D8, symBinAddr: 0x1D680, symSize: 0x14 }
  - { offset: 0x1002C, size: 0x8, addend: 0x0, symName: __ZN5flecs1_26register_lifecycle_actionsI7EcsEnumLPv0EEEvP11ecs_world_ty, symObjAddr: 0x14AF0, symBinAddr: 0x1DC98, symSize: 0x14 }
  - { offset: 0x10069, size: 0x8, addend: 0x0, symName: __ZN5flecs1_L9init_enumI7EcsEnumLi0EEEvP11ecs_world_ty, symObjAddr: 0x14B04, symBinAddr: 0x1DCAC, symSize: 0x14 }
  - { offset: 0x100A9, size: 0x8, addend: 0x0, symName: __ZN5flecs1_26register_lifecycle_actionsI10EcsBitmaskLPv0EEEvP11ecs_world_ty, symObjAddr: 0x1511C, symBinAddr: 0x1E2C4, symSize: 0x14 }
  - { offset: 0x100E6, size: 0x8, addend: 0x0, symName: __ZN5flecs1_L9init_enumI10EcsBitmaskLi0EEEvP11ecs_world_ty, symObjAddr: 0x15130, symBinAddr: 0x1E2D8, symSize: 0x14 }
  - { offset: 0x10126, size: 0x8, addend: 0x0, symName: __ZN5flecs1_26register_lifecycle_actionsI9EcsMemberLPv0EEEvP11ecs_world_ty, symObjAddr: 0x1574C, symBinAddr: 0x1E8F4, symSize: 0x14 }
  - { offset: 0x10163, size: 0x8, addend: 0x0, symName: __ZN5flecs1_L9init_enumI9EcsMemberLi0EEEvP11ecs_world_ty, symObjAddr: 0x15760, symBinAddr: 0x1E908, symSize: 0x14 }
  - { offset: 0x101A3, size: 0x8, addend: 0x0, symName: __ZN5flecs1_26register_lifecycle_actionsI15EcsMemberRangesLPv0EEEvP11ecs_world_ty, symObjAddr: 0x15D7C, symBinAddr: 0x1EF24, symSize: 0x14 }
  - { offset: 0x101E0, size: 0x8, addend: 0x0, symName: __ZN5flecs1_L9init_enumI15EcsMemberRangesLi0EEEvP11ecs_world_ty, symObjAddr: 0x15D90, symBinAddr: 0x1EF38, symSize: 0x14 }
  - { offset: 0x10220, size: 0x8, addend: 0x0, symName: __ZN5flecs1_26register_lifecycle_actionsI9EcsStructLPv0EEEvP11ecs_world_ty, symObjAddr: 0x163AC, symBinAddr: 0x1F554, symSize: 0x14 }
  - { offset: 0x1025D, size: 0x8, addend: 0x0, symName: __ZN5flecs1_L9init_enumI9EcsStructLi0EEEvP11ecs_world_ty, symObjAddr: 0x163C0, symBinAddr: 0x1F568, symSize: 0x14 }
  - { offset: 0x1029D, size: 0x8, addend: 0x0, symName: __ZN5flecs1_26register_lifecycle_actionsI8EcsArrayLPv0EEEvP11ecs_world_ty, symObjAddr: 0x169DC, symBinAddr: 0x1FB84, symSize: 0x14 }
  - { offset: 0x102DA, size: 0x8, addend: 0x0, symName: __ZN5flecs1_L9init_enumI8EcsArrayLi0EEEvP11ecs_world_ty, symObjAddr: 0x169F0, symBinAddr: 0x1FB98, symSize: 0x14 }
  - { offset: 0x1031A, size: 0x8, addend: 0x0, symName: __ZN5flecs1_26register_lifecycle_actionsI9EcsVectorLPv0EEEvP11ecs_world_ty, symObjAddr: 0x17008, symBinAddr: 0x201B0, symSize: 0x14 }
  - { offset: 0x10357, size: 0x8, addend: 0x0, symName: __ZN5flecs1_L9init_enumI9EcsVectorLi0EEEvP11ecs_world_ty, symObjAddr: 0x1701C, symBinAddr: 0x201C4, symSize: 0x14 }
  - { offset: 0x10397, size: 0x8, addend: 0x0, symName: __ZN5flecs1_26register_lifecycle_actionsI7EcsUnitLPv0EEEvP11ecs_world_ty, symObjAddr: 0x17638, symBinAddr: 0x207E0, symSize: 0x14 }
  - { offset: 0x103D4, size: 0x8, addend: 0x0, symName: __ZN5flecs1_L9init_enumI7EcsUnitLi0EEEvP11ecs_world_ty, symObjAddr: 0x1764C, symBinAddr: 0x207F4, symSize: 0x14 }
  - { offset: 0x10414, size: 0x8, addend: 0x0, symName: __ZN5flecs1_26register_lifecycle_actionsINS_11entity_viewELPv0EEEvP11ecs_world_ty, symObjAddr: 0x18264, symBinAddr: 0x2140C, symSize: 0x108 }
  - { offset: 0x10467, size: 0x8, addend: 0x0, symName: __ZN5flecs1_L9init_enumINS_11entity_viewELi0EEEvP11ecs_world_ty, symObjAddr: 0x1836C, symBinAddr: 0x21514, symSize: 0x14 }
  - { offset: 0x104A7, size: 0x8, addend: 0x0, symName: __ZN5flecs1_4ctorINS_11entity_viewELi0EEEPFvPviPK15ecs_type_info_tERj, symObjAddr: 0x18380, symBinAddr: 0x21528, symSize: 0x18 }
  - { offset: 0x104DE, size: 0x8, addend: 0x0, symName: __ZN5flecs1_4dtorINS_11entity_viewELi0EEEPFvPviPK15ecs_type_info_tERj, symObjAddr: 0x18398, symBinAddr: 0x21540, symSize: 0x14 }
  - { offset: 0x10515, size: 0x8, addend: 0x0, symName: __ZN5flecs1_4copyINS_11entity_viewELi0EEEPFvPvPKviPK15ecs_type_info_tERj, symObjAddr: 0x183AC, symBinAddr: 0x21554, symSize: 0x14 }
  - { offset: 0x1054C, size: 0x8, addend: 0x0, symName: __ZN5flecs1_9copy_ctorINS_11entity_viewELi0EEEPFvPvPKviPK15ecs_type_info_tERj, symObjAddr: 0x183C0, symBinAddr: 0x21568, symSize: 0x14 }
  - { offset: 0x10583, size: 0x8, addend: 0x0, symName: __ZN5flecs1_4moveINS_11entity_viewELi0EEEPFvPvS3_iPK15ecs_type_info_tERj, symObjAddr: 0x183D4, symBinAddr: 0x2157C, symSize: 0x14 }
  - { offset: 0x105BA, size: 0x8, addend: 0x0, symName: __ZN5flecs1_9move_ctorINS_11entity_viewELi0EEEPFvPvS3_iPK15ecs_type_info_tERj, symObjAddr: 0x183E8, symBinAddr: 0x21590, symSize: 0x14 }
  - { offset: 0x105F3, size: 0x8, addend: 0x0, symName: __ZN5flecs1_14ctor_move_dtorINS_11entity_viewELi0EEEPFvPvS3_iPK15ecs_type_info_tERj, symObjAddr: 0x183FC, symBinAddr: 0x215A4, symSize: 0x14 }
  - { offset: 0x1062C, size: 0x8, addend: 0x0, symName: __ZN5flecs1_9move_dtorINS_11entity_viewELi0EEEPFvPvS3_iPK15ecs_type_info_tERj, symObjAddr: 0x18410, symBinAddr: 0x215B8, symSize: 0x14 }
  - { offset: 0x10665, size: 0x8, addend: 0x0, symName: __ZN5flecs1_9ctor_implINS_11entity_viewEEEvPviPK15ecs_type_info_t, symObjAddr: 0x18424, symBinAddr: 0x215CC, symSize: 0x170 }
  - { offset: 0x106D4, size: 0x8, addend: 0x0, symName: __ZN5flecs1_26register_lifecycle_actionsINS_6entityELPv0EEEvP11ecs_world_ty, symObjAddr: 0x191B4, symBinAddr: 0x2235C, symSize: 0x108 }
  - { offset: 0x10727, size: 0x8, addend: 0x0, symName: __ZN5flecs1_L9init_enumINS_6entityELi0EEEvP11ecs_world_ty, symObjAddr: 0x192BC, symBinAddr: 0x22464, symSize: 0x14 }
  - { offset: 0x10767, size: 0x8, addend: 0x0, symName: __ZN5flecs1_4ctorINS_6entityELi0EEEPFvPviPK15ecs_type_info_tERj, symObjAddr: 0x192D0, symBinAddr: 0x22478, symSize: 0x18 }
  - { offset: 0x1079E, size: 0x8, addend: 0x0, symName: __ZN5flecs1_4dtorINS_6entityELi0EEEPFvPviPK15ecs_type_info_tERj, symObjAddr: 0x192E8, symBinAddr: 0x22490, symSize: 0x14 }
  - { offset: 0x107D5, size: 0x8, addend: 0x0, symName: __ZN5flecs1_4copyINS_6entityELi0EEEPFvPvPKviPK15ecs_type_info_tERj, symObjAddr: 0x192FC, symBinAddr: 0x224A4, symSize: 0x14 }
  - { offset: 0x1080C, size: 0x8, addend: 0x0, symName: __ZN5flecs1_9copy_ctorINS_6entityELi0EEEPFvPvPKviPK15ecs_type_info_tERj, symObjAddr: 0x19310, symBinAddr: 0x224B8, symSize: 0x14 }
  - { offset: 0x10843, size: 0x8, addend: 0x0, symName: __ZN5flecs1_4moveINS_6entityELi0EEEPFvPvS3_iPK15ecs_type_info_tERj, symObjAddr: 0x19324, symBinAddr: 0x224CC, symSize: 0x14 }
  - { offset: 0x1087A, size: 0x8, addend: 0x0, symName: __ZN5flecs1_9move_ctorINS_6entityELi0EEEPFvPvS3_iPK15ecs_type_info_tERj, symObjAddr: 0x19338, symBinAddr: 0x224E0, symSize: 0x14 }
  - { offset: 0x108B3, size: 0x8, addend: 0x0, symName: __ZN5flecs1_14ctor_move_dtorINS_6entityELi0EEEPFvPvS3_iPK15ecs_type_info_tERj, symObjAddr: 0x1934C, symBinAddr: 0x224F4, symSize: 0x14 }
  - { offset: 0x108EC, size: 0x8, addend: 0x0, symName: __ZN5flecs1_9move_dtorINS_6entityELi0EEEPFvPvS3_iPK15ecs_type_info_tERj, symObjAddr: 0x19360, symBinAddr: 0x22508, symSize: 0x14 }
  - { offset: 0x10925, size: 0x8, addend: 0x0, symName: __ZN5flecs1_9ctor_implINS_6entityEEEvPviPK15ecs_type_info_t, symObjAddr: 0x19374, symBinAddr: 0x2251C, symSize: 0x170 }
  - { offset: 0x10994, size: 0x8, addend: 0x0, symName: __ZN5flecs1_26register_lifecycle_actionsI9EcsScriptLPv0EEEvP11ecs_world_ty, symObjAddr: 0x19F00, symBinAddr: 0x230A8, symSize: 0x14 }
  - { offset: 0x109D1, size: 0x8, addend: 0x0, symName: __ZN5flecs1_L9init_enumI9EcsScriptLi0EEEvP11ecs_world_ty, symObjAddr: 0x19F14, symBinAddr: 0x230BC, symSize: 0x14 }
  - { offset: 0x10A11, size: 0x8, addend: 0x0, symName: __ZN5flecs1_13type_to_inoutIN7Entropy3ECS4Tags2D2ELi0EEENS_12inout_kind_tEv, symObjAddr: 0x1AA2C, symBinAddr: 0x23BD4, symSize: 0x8 }
  - { offset: 0x10A3E, size: 0x8, addend: 0x0, symName: __ZN5flecs1_12type_to_operIN7Entropy3ECS4Tags2D2ELi0EEENS_11oper_kind_tEv, symObjAddr: 0x1AA68, symBinAddr: 0x23C10, symSize: 0x8 }
  - { offset: 0x10A6B, size: 0x8, addend: 0x0, symName: __ZN5flecs1_26register_lifecycle_actionsIN7Entropy3ECS4Tags2D2ELPv0EEEvP11ecs_world_ty, symObjAddr: 0x1AFE8, symBinAddr: 0x24190, symSize: 0x14 }
  - { offset: 0x10AA8, size: 0x8, addend: 0x0, symName: __ZN5flecs1_L9init_enumIN7Entropy3ECS4Tags2D2ELi0EEEvP11ecs_world_ty, symObjAddr: 0x1AFFC, symBinAddr: 0x241A4, symSize: 0x14 }
  - { offset: 0x10AE9, size: 0x8, addend: 0x0, symName: '__ZN5flecs1_8free_objINS0_13each_delegateIZN7Entropy3ECS5WorldC1EvE3$_0JNS4_4Tags2D2EEEEEEvPv', symObjAddr: 0x1BEB4, symBinAddr: 0x2505C, symSize: 0x48 }
  - { offset: 0x10D41, size: 0x8, addend: 0x0, symName: '__ZN5flecs1_12destruct_objINS0_13each_delegateIZN7Entropy3ECS5WorldC1EvE3$_0JNS4_4Tags2D2EEEEEEvPT_', symObjAddr: 0x1FFC0, symBinAddr: 0x290EC, symSize: 0x10 }
  - { offset: 0x10D72, size: 0x8, addend: 0x0, symName: __ZN5flecs1_26register_lifecycle_actionsIN7Entropy3ECS10Components8PositionELPv0EEEvP11ecs_world_ty, symObjAddr: 0x20F4C, symBinAddr: 0x2A078, symSize: 0x108 }
  - { offset: 0x10DC5, size: 0x8, addend: 0x0, symName: __ZN5flecs1_L9init_enumIN7Entropy3ECS10Components8PositionELi0EEEvP11ecs_world_ty, symObjAddr: 0x21054, symBinAddr: 0x2A180, symSize: 0x14 }
  - { offset: 0x10E05, size: 0x8, addend: 0x0, symName: __ZN5flecs1_4ctorIN7Entropy3ECS10Components8PositionELi0EEEPFvPviPK15ecs_type_info_tERj, symObjAddr: 0x21068, symBinAddr: 0x2A194, symSize: 0x18 }
  - { offset: 0x10E3C, size: 0x8, addend: 0x0, symName: __ZN5flecs1_4dtorIN7Entropy3ECS10Components8PositionELi0EEEPFvPviPK15ecs_type_info_tERj, symObjAddr: 0x21080, symBinAddr: 0x2A1AC, symSize: 0x14 }
  - { offset: 0x10E73, size: 0x8, addend: 0x0, symName: __ZN5flecs1_4copyIN7Entropy3ECS10Components8PositionELi0EEEPFvPvPKviPK15ecs_type_info_tERj, symObjAddr: 0x21094, symBinAddr: 0x2A1C0, symSize: 0x14 }
  - { offset: 0x10EAA, size: 0x8, addend: 0x0, symName: __ZN5flecs1_9copy_ctorIN7Entropy3ECS10Components8PositionELi0EEEPFvPvPKviPK15ecs_type_info_tERj, symObjAddr: 0x210A8, symBinAddr: 0x2A1D4, symSize: 0x14 }
  - { offset: 0x10EE1, size: 0x8, addend: 0x0, symName: __ZN5flecs1_4moveIN7Entropy3ECS10Components8PositionELi0EEEPFvPvS6_iPK15ecs_type_info_tERj, symObjAddr: 0x210BC, symBinAddr: 0x2A1E8, symSize: 0x14 }
  - { offset: 0x10F18, size: 0x8, addend: 0x0, symName: __ZN5flecs1_9move_ctorIN7Entropy3ECS10Components8PositionELi0EEEPFvPvS6_iPK15ecs_type_info_tERj, symObjAddr: 0x210D0, symBinAddr: 0x2A1FC, symSize: 0x14 }
  - { offset: 0x10F51, size: 0x8, addend: 0x0, symName: __ZN5flecs1_14ctor_move_dtorIN7Entropy3ECS10Components8PositionELi0EEEPFvPvS6_iPK15ecs_type_info_tERj, symObjAddr: 0x210E4, symBinAddr: 0x2A210, symSize: 0x14 }
  - { offset: 0x10F8A, size: 0x8, addend: 0x0, symName: __ZN5flecs1_9move_dtorIN7Entropy3ECS10Components8PositionELi0EEEPFvPvS6_iPK15ecs_type_info_tERj, symObjAddr: 0x210F8, symBinAddr: 0x2A224, symSize: 0x14 }
  - { offset: 0x10FC3, size: 0x8, addend: 0x0, symName: __ZN5flecs1_9ctor_implIN7Entropy3ECS10Components8PositionEEEvPviPK15ecs_type_info_t, symObjAddr: 0x2110C, symBinAddr: 0x2A238, symSize: 0x140 }
  - { offset: 0x1103B, size: 0x8, addend: 0x0, symName: __ZN5flecs1_26register_lifecycle_actionsIN7Entropy3ECS10Components9DimensionELPv0EEEvP11ecs_world_ty, symObjAddr: 0x217E0, symBinAddr: 0x2A90C, symSize: 0x108 }
  - { offset: 0x1108E, size: 0x8, addend: 0x0, symName: __ZN5flecs1_L9init_enumIN7Entropy3ECS10Components9DimensionELi0EEEvP11ecs_world_ty, symObjAddr: 0x218E8, symBinAddr: 0x2AA14, symSize: 0x14 }
  - { offset: 0x110CE, size: 0x8, addend: 0x0, symName: __ZN5flecs1_4ctorIN7Entropy3ECS10Components9DimensionELi0EEEPFvPviPK15ecs_type_info_tERj, symObjAddr: 0x218FC, symBinAddr: 0x2AA28, symSize: 0x18 }
  - { offset: 0x11105, size: 0x8, addend: 0x0, symName: __ZN5flecs1_4dtorIN7Entropy3ECS10Components9DimensionELi0EEEPFvPviPK15ecs_type_info_tERj, symObjAddr: 0x21914, symBinAddr: 0x2AA40, symSize: 0x14 }
  - { offset: 0x1113C, size: 0x8, addend: 0x0, symName: __ZN5flecs1_4copyIN7Entropy3ECS10Components9DimensionELi0EEEPFvPvPKviPK15ecs_type_info_tERj, symObjAddr: 0x21928, symBinAddr: 0x2AA54, symSize: 0x14 }
  - { offset: 0x11173, size: 0x8, addend: 0x0, symName: __ZN5flecs1_9copy_ctorIN7Entropy3ECS10Components9DimensionELi0EEEPFvPvPKviPK15ecs_type_info_tERj, symObjAddr: 0x2193C, symBinAddr: 0x2AA68, symSize: 0x14 }
  - { offset: 0x111AA, size: 0x8, addend: 0x0, symName: __ZN5flecs1_4moveIN7Entropy3ECS10Components9DimensionELi0EEEPFvPvS6_iPK15ecs_type_info_tERj, symObjAddr: 0x21950, symBinAddr: 0x2AA7C, symSize: 0x14 }
  - { offset: 0x111E1, size: 0x8, addend: 0x0, symName: __ZN5flecs1_9move_ctorIN7Entropy3ECS10Components9DimensionELi0EEEPFvPvS6_iPK15ecs_type_info_tERj, symObjAddr: 0x21964, symBinAddr: 0x2AA90, symSize: 0x14 }
  - { offset: 0x1121A, size: 0x8, addend: 0x0, symName: __ZN5flecs1_14ctor_move_dtorIN7Entropy3ECS10Components9DimensionELi0EEEPFvPvS6_iPK15ecs_type_info_tERj, symObjAddr: 0x21978, symBinAddr: 0x2AAA4, symSize: 0x14 }
  - { offset: 0x11253, size: 0x8, addend: 0x0, symName: __ZN5flecs1_9move_dtorIN7Entropy3ECS10Components9DimensionELi0EEEPFvPvS6_iPK15ecs_type_info_tERj, symObjAddr: 0x2198C, symBinAddr: 0x2AAB8, symSize: 0x14 }
  - { offset: 0x1128C, size: 0x8, addend: 0x0, symName: __ZN5flecs1_9ctor_implIN7Entropy3ECS10Components9DimensionEEEvPviPK15ecs_type_info_t, symObjAddr: 0x219A0, symBinAddr: 0x2AACC, symSize: 0x140 }
  - { offset: 0x11304, size: 0x8, addend: 0x0, symName: __ZN5flecs1_26register_lifecycle_actionsIN7Entropy3ECS10Components8RotationELPv0EEEvP11ecs_world_ty, symObjAddr: 0x22074, symBinAddr: 0x2B1A0, symSize: 0x108 }
  - { offset: 0x11357, size: 0x8, addend: 0x0, symName: __ZN5flecs1_L9init_enumIN7Entropy3ECS10Components8RotationELi0EEEvP11ecs_world_ty, symObjAddr: 0x2217C, symBinAddr: 0x2B2A8, symSize: 0x14 }
  - { offset: 0x11397, size: 0x8, addend: 0x0, symName: __ZN5flecs1_4ctorIN7Entropy3ECS10Components8RotationELi0EEEPFvPviPK15ecs_type_info_tERj, symObjAddr: 0x22190, symBinAddr: 0x2B2BC, symSize: 0x18 }
  - { offset: 0x113CE, size: 0x8, addend: 0x0, symName: __ZN5flecs1_4dtorIN7Entropy3ECS10Components8RotationELi0EEEPFvPviPK15ecs_type_info_tERj, symObjAddr: 0x221A8, symBinAddr: 0x2B2D4, symSize: 0x14 }
  - { offset: 0x11405, size: 0x8, addend: 0x0, symName: __ZN5flecs1_4copyIN7Entropy3ECS10Components8RotationELi0EEEPFvPvPKviPK15ecs_type_info_tERj, symObjAddr: 0x221BC, symBinAddr: 0x2B2E8, symSize: 0x14 }
  - { offset: 0x1143C, size: 0x8, addend: 0x0, symName: __ZN5flecs1_9copy_ctorIN7Entropy3ECS10Components8RotationELi0EEEPFvPvPKviPK15ecs_type_info_tERj, symObjAddr: 0x221D0, symBinAddr: 0x2B2FC, symSize: 0x14 }
  - { offset: 0x11473, size: 0x8, addend: 0x0, symName: __ZN5flecs1_4moveIN7Entropy3ECS10Components8RotationELi0EEEPFvPvS6_iPK15ecs_type_info_tERj, symObjAddr: 0x221E4, symBinAddr: 0x2B310, symSize: 0x14 }
  - { offset: 0x114AA, size: 0x8, addend: 0x0, symName: __ZN5flecs1_9move_ctorIN7Entropy3ECS10Components8RotationELi0EEEPFvPvS6_iPK15ecs_type_info_tERj, symObjAddr: 0x221F8, symBinAddr: 0x2B324, symSize: 0x14 }
  - { offset: 0x114E3, size: 0x8, addend: 0x0, symName: __ZN5flecs1_14ctor_move_dtorIN7Entropy3ECS10Components8RotationELi0EEEPFvPvS6_iPK15ecs_type_info_tERj, symObjAddr: 0x2220C, symBinAddr: 0x2B338, symSize: 0x14 }
  - { offset: 0x1151C, size: 0x8, addend: 0x0, symName: __ZN5flecs1_9move_dtorIN7Entropy3ECS10Components8RotationELi0EEEPFvPvS6_iPK15ecs_type_info_tERj, symObjAddr: 0x22220, symBinAddr: 0x2B34C, symSize: 0x14 }
  - { offset: 0x11555, size: 0x8, addend: 0x0, symName: __ZN5flecs1_9ctor_implIN7Entropy3ECS10Components8RotationEEEvPviPK15ecs_type_info_t, symObjAddr: 0x22234, symBinAddr: 0x2B360, symSize: 0x138 }
  - { offset: 0x115CD, size: 0x8, addend: 0x0, symName: __ZN5flecs1_26register_lifecycle_actionsIN7Entropy3ECS10Components5ColorELPv0EEEvP11ecs_world_ty, symObjAddr: 0x22904, symBinAddr: 0x2BA30, symSize: 0x108 }
  - { offset: 0x11620, size: 0x8, addend: 0x0, symName: __ZN5flecs1_L9init_enumIN7Entropy3ECS10Components5ColorELi0EEEvP11ecs_world_ty, symObjAddr: 0x22A0C, symBinAddr: 0x2BB38, symSize: 0x14 }
  - { offset: 0x11660, size: 0x8, addend: 0x0, symName: __ZN5flecs1_4ctorIN7Entropy3ECS10Components5ColorELi0EEEPFvPviPK15ecs_type_info_tERj, symObjAddr: 0x22A20, symBinAddr: 0x2BB4C, symSize: 0x18 }
  - { offset: 0x11697, size: 0x8, addend: 0x0, symName: __ZN5flecs1_4dtorIN7Entropy3ECS10Components5ColorELi0EEEPFvPviPK15ecs_type_info_tERj, symObjAddr: 0x22A38, symBinAddr: 0x2BB64, symSize: 0x14 }
  - { offset: 0x116CE, size: 0x8, addend: 0x0, symName: __ZN5flecs1_4copyIN7Entropy3ECS10Components5ColorELi0EEEPFvPvPKviPK15ecs_type_info_tERj, symObjAddr: 0x22A4C, symBinAddr: 0x2BB78, symSize: 0x14 }
  - { offset: 0x11705, size: 0x8, addend: 0x0, symName: __ZN5flecs1_9copy_ctorIN7Entropy3ECS10Components5ColorELi0EEEPFvPvPKviPK15ecs_type_info_tERj, symObjAddr: 0x22A60, symBinAddr: 0x2BB8C, symSize: 0x14 }
  - { offset: 0x1173C, size: 0x8, addend: 0x0, symName: __ZN5flecs1_4moveIN7Entropy3ECS10Components5ColorELi0EEEPFvPvS6_iPK15ecs_type_info_tERj, symObjAddr: 0x22A74, symBinAddr: 0x2BBA0, symSize: 0x14 }
  - { offset: 0x11773, size: 0x8, addend: 0x0, symName: __ZN5flecs1_9move_ctorIN7Entropy3ECS10Components5ColorELi0EEEPFvPvS6_iPK15ecs_type_info_tERj, symObjAddr: 0x22A88, symBinAddr: 0x2BBB4, symSize: 0x14 }
  - { offset: 0x117AC, size: 0x8, addend: 0x0, symName: __ZN5flecs1_14ctor_move_dtorIN7Entropy3ECS10Components5ColorELi0EEEPFvPvS6_iPK15ecs_type_info_tERj, symObjAddr: 0x22A9C, symBinAddr: 0x2BBC8, symSize: 0x14 }
  - { offset: 0x117E5, size: 0x8, addend: 0x0, symName: __ZN5flecs1_9move_dtorIN7Entropy3ECS10Components5ColorELi0EEEPFvPvS6_iPK15ecs_type_info_tERj, symObjAddr: 0x22AB0, symBinAddr: 0x2BBDC, symSize: 0x14 }
  - { offset: 0x1181E, size: 0x8, addend: 0x0, symName: __ZN5flecs1_9ctor_implIN7Entropy3ECS10Components5ColorEEEvPviPK15ecs_type_info_t, symObjAddr: 0x22AC4, symBinAddr: 0x2BBF0, symSize: 0x138 }
  - { offset: 0x11896, size: 0x8, addend: 0x0, symName: __ZN5flecs1_26register_lifecycle_actionsIN7Entropy3ECS10Components16TextureComponentELPv0EEEvP11ecs_world_ty, symObjAddr: 0x23194, symBinAddr: 0x2C2C0, symSize: 0x108 }
  - { offset: 0x118E9, size: 0x8, addend: 0x0, symName: __ZN5flecs1_L9init_enumIN7Entropy3ECS10Components16TextureComponentELi0EEEvP11ecs_world_ty, symObjAddr: 0x2329C, symBinAddr: 0x2C3C8, symSize: 0x14 }
  - { offset: 0x11929, size: 0x8, addend: 0x0, symName: __ZN5flecs1_4ctorIN7Entropy3ECS10Components16TextureComponentELi0EEEPFvPviPK15ecs_type_info_tERj, symObjAddr: 0x232B0, symBinAddr: 0x2C3DC, symSize: 0x18 }
  - { offset: 0x11960, size: 0x8, addend: 0x0, symName: __ZN5flecs1_4dtorIN7Entropy3ECS10Components16TextureComponentELi0EEEPFvPviPK15ecs_type_info_tERj, symObjAddr: 0x232C8, symBinAddr: 0x2C3F4, symSize: 0x14 }
  - { offset: 0x11997, size: 0x8, addend: 0x0, symName: __ZN5flecs1_4copyIN7Entropy3ECS10Components16TextureComponentELi0EEEPFvPvPKviPK15ecs_type_info_tERj, symObjAddr: 0x232DC, symBinAddr: 0x2C408, symSize: 0x14 }
  - { offset: 0x119CE, size: 0x8, addend: 0x0, symName: __ZN5flecs1_9copy_ctorIN7Entropy3ECS10Components16TextureComponentELi0EEEPFvPvPKviPK15ecs_type_info_tERj, symObjAddr: 0x232F0, symBinAddr: 0x2C41C, symSize: 0x14 }
  - { offset: 0x11A05, size: 0x8, addend: 0x0, symName: __ZN5flecs1_4moveIN7Entropy3ECS10Components16TextureComponentELi0EEEPFvPvS6_iPK15ecs_type_info_tERj, symObjAddr: 0x23304, symBinAddr: 0x2C430, symSize: 0x14 }
  - { offset: 0x11A3C, size: 0x8, addend: 0x0, symName: __ZN5flecs1_9move_ctorIN7Entropy3ECS10Components16TextureComponentELi0EEEPFvPvS6_iPK15ecs_type_info_tERj, symObjAddr: 0x23318, symBinAddr: 0x2C444, symSize: 0x14 }
  - { offset: 0x11A75, size: 0x8, addend: 0x0, symName: __ZN5flecs1_14ctor_move_dtorIN7Entropy3ECS10Components16TextureComponentELi0EEEPFvPvS6_iPK15ecs_type_info_tERj, symObjAddr: 0x2332C, symBinAddr: 0x2C458, symSize: 0x14 }
  - { offset: 0x11AAE, size: 0x8, addend: 0x0, symName: __ZN5flecs1_9move_dtorIN7Entropy3ECS10Components16TextureComponentELi0EEEPFvPvS6_iPK15ecs_type_info_tERj, symObjAddr: 0x23340, symBinAddr: 0x2C46C, symSize: 0x14 }
  - { offset: 0x11AE7, size: 0x8, addend: 0x0, symName: __ZN5flecs1_9ctor_implIN7Entropy3ECS10Components16TextureComponentEEEvPviPK15ecs_type_info_t, symObjAddr: 0x23354, symBinAddr: 0x2C480, symSize: 0x140 }
  - { offset: 0x11B60, size: 0x8, addend: 0x0, symName: '__ZN5flecs1_8free_objINS0_13each_delegateIZN7Entropy3ECS5WorldC1EvE3$_1JNS4_4Tags2D2ENS4_10Components8PositionENS9_9DimensionENS9_8RotationENS9_5ColorENS9_16TextureComponentEEEEEEvPv', symObjAddr: 0x23ED4, symBinAddr: 0x2D000, symSize: 0x48 }
  - { offset: 0x12329, size: 0x8, addend: 0x0, symName: '__ZN5flecs1_12destruct_objINS0_13each_delegateIZN7Entropy3ECS5WorldC1EvE3$_1JNS4_4Tags2D2ENS4_10Components8PositionENS9_9DimensionENS9_8RotationENS9_5ColorENS9_16TextureComponentEEEEEEvPT_', symObjAddr: 0x26AB8, symBinAddr: 0x2FBE4, symSize: 0x10 }
  - { offset: 0x12393, size: 0x8, addend: 0x0, symName: __ZN5flecsL4IptrE, symObjAddr: 0x15F6B0, symBinAddr: 0x858E08, symSize: 0x0 }
  - { offset: 0x123AC, size: 0x8, addend: 0x0, symName: __ZN5flecsL4UptrE, symObjAddr: 0x15F6B8, symBinAddr: 0x858E10, symSize: 0x0 }
  - { offset: 0x123C5, size: 0x8, addend: 0x0, symName: __ZN5flecsL6ModuleE, symObjAddr: 0x15F6C0, symBinAddr: 0x858E18, symSize: 0x0 }
  - { offset: 0x16DC2, size: 0x8, addend: 0x0, symName: __ZN5flecs4meta1_4initERNS_5worldE, symObjAddr: 0x305C, symBinAddr: 0xC204, symSize: 0x3CC }
  - { offset: 0x16E0B, size: 0x8, addend: 0x0, symName: __ZN5flecs4meta1_20flecs_entity_supportINS_11entity_viewEEENS_6opaqueIT_vEERNS_5worldE, symObjAddr: 0x1798C, symBinAddr: 0x20B34, symSize: 0xD4 }
  - { offset: 0x16ED0, size: 0x8, addend: 0x0, symName: __ZN5flecs4meta1_20flecs_entity_supportINS_6entityEEENS_6opaqueIT_vEERNS_5worldE, symObjAddr: 0x17B88, symBinAddr: 0x20D30, symSize: 0xD4 }
  - { offset: 0x171D6, size: 0x8, addend: 0x0, symName: __ZN5flecsL6SparseE, symObjAddr: 0x15FA18, symBinAddr: 0x859170, symSize: 0x0 }
  - { offset: 0x171EF, size: 0x8, addend: 0x0, symName: __ZN5flecsL6EntityE, symObjAddr: 0x15FA20, symBinAddr: 0x859178, symSize: 0x0 }
  - { offset: 0x17208, size: 0x8, addend: 0x0, symName: __ZN5flecsL8OnUpdateE, symObjAddr: 0x15FA28, symBinAddr: 0x859180, symSize: 0x0 }
  - { offset: 0x19DFF, size: 0x8, addend: 0x0, symName: __ZN5flecs3doc1_4initERNS_5worldE, symObjAddr: 0x2FF4, symBinAddr: 0xC19C, symSize: 0x34 }
  - { offset: 0x19E33, size: 0x8, addend: 0x0, symName: __ZN5flecs4rest1_4initERNS_5worldE, symObjAddr: 0x3028, symBinAddr: 0xC1D0, symSize: 0x34 }
  - { offset: 0x19E67, size: 0x8, addend: 0x0, symName: __ZN5flecs6script1_4initERNS_5worldE, symObjAddr: 0x3428, symBinAddr: 0xC5D0, symSize: 0x34 }
  - { offset: 0x32B0B, size: 0x8, addend: 0x0, symName: __ZNSt3__17advanceB8de200100IPKtllLi0EEEvRT_T0_, symObjAddr: 0x1DE58, symBinAddr: 0x26F84, symSize: 0x6C }
  - { offset: 0x33EDC, size: 0x8, addend: 0x0, symName: __ZNSt3__111make_sharedB8de200100IN5flecs5worldEJELi0EEENS_10shared_ptrIT_EEDpOT0_, symObjAddr: 0x8CC, symBinAddr: 0x9A84, symSize: 0x38 }
  - { offset: 0x33F0F, size: 0x8, addend: 0x0, symName: __ZNSt3__134__libcpp_atomic_refcount_decrementB8de200100IlEET_RS1_, symObjAddr: 0x1564, symBinAddr: 0xA70C, symSize: 0x84 }
  - { offset: 0x33FF1, size: 0x8, addend: 0x0, symName: __ZNSt3__1eqB8de200100ERKNS_20__map_const_iteratorINS_21__tree_const_iteratorINS_12__value_typeINS_10type_indexENS_10shared_ptrI8IServiceEEEEPNS_11__tree_nodeIS7_PvEElEEEESF_, symObjAddr: 0x1774, symBinAddr: 0xA91C, symSize: 0x2C }
  - { offset: 0x3402E, size: 0x8, addend: 0x0, symName: __ZNSt3__119static_pointer_castB8de200100IN7Entropy9Renderers9IRendererE8IServiceEENS_10shared_ptrIT_EERKNS5_IT0_EE, symObjAddr: 0x17D8, symBinAddr: 0xA980, symSize: 0x44 }
  - { offset: 0x3406E, size: 0x8, addend: 0x0, symName: __ZNSt3__1neB8de200100ERKNS_21__tree_const_iteratorINS_12__value_typeINS_10type_indexENS_10shared_ptrI8IServiceEEEEPNS_11__tree_nodeIS6_PvEElEESD_, symObjAddr: 0x1AE8, symBinAddr: 0xAC90, symSize: 0x30 }
  - { offset: 0x340AB, size: 0x8, addend: 0x0, symName: __ZNSt3__17launderB8de200100IKNS_4pairIKNS_10type_indexENS_10shared_ptrI8IServiceEEEEEEPT_SA_, symObjAddr: 0x1DA4, symBinAddr: 0xAF4C, symSize: 0x24 }
  - { offset: 0x340E0, size: 0x8, addend: 0x0, symName: __ZNSt3__19__launderB8de200100IKNS_4pairIKNS_10type_indexENS_10shared_ptrI8IServiceEEEEEEPT_SA_, symObjAddr: 0x1DC8, symBinAddr: 0xAF70, symSize: 0x14 }
  - { offset: 0x34148, size: 0x8, addend: 0x0, symName: __ZNSt3__1eqB8de200100ERKNS_21__tree_const_iteratorINS_12__value_typeINS_10type_indexENS_10shared_ptrI8IServiceEEEEPNS_11__tree_nodeIS6_PvEElEESD_, symObjAddr: 0x1E10, symBinAddr: 0xAFB8, symSize: 0x2C }
  - { offset: 0x34185, size: 0x8, addend: 0x0, symName: __ZNSt3__134__libcpp_atomic_refcount_incrementB8de200100IlEET_RS1_, symObjAddr: 0x1F7C, symBinAddr: 0xB124, symSize: 0x84 }
  - { offset: 0x34220, size: 0x8, addend: 0x0, symName: __ZNSt3__14swapB8de200100IPN7Entropy9Renderers9IRendererEEENS_9enable_ifIXaasr21is_move_constructibleIT_EE5valuesr18is_move_assignableIS6_EE5valueEvE4typeERS6_S9_, symObjAddr: 0x213C, symBinAddr: 0xB2E4, symSize: 0x3C }
  - { offset: 0x34271, size: 0x8, addend: 0x0, symName: __ZNSt3__14swapB8de200100IPNS_19__shared_weak_countEEENS_9enable_ifIXaasr21is_move_constructibleIT_EE5valuesr18is_move_assignableIS4_EE5valueEvE4typeERS4_S7_, symObjAddr: 0x2178, symBinAddr: 0xB320, symSize: 0x3C }
  - { offset: 0x342C2, size: 0x8, addend: 0x0, symName: __ZNSt3__119static_pointer_castB8de200100IN7Entropy6Vulkan7Devices14ILogicalDeviceE8IServiceEENS_10shared_ptrIT_EERKNS6_IT0_EE, symObjAddr: 0x21B4, symBinAddr: 0xB35C, symSize: 0x44 }
  - { offset: 0x34302, size: 0x8, addend: 0x0, symName: __ZNSt3__14swapB8de200100IPN7Entropy6Vulkan7Devices14ILogicalDeviceEEENS_9enable_ifIXaasr21is_move_constructibleIT_EE5valuesr18is_move_assignableIS7_EE5valueEvE4typeERS7_SA_, symObjAddr: 0x2354, symBinAddr: 0xB4FC, symSize: 0x3C }
  - { offset: 0x34353, size: 0x8, addend: 0x0, symName: __ZNSt3__119static_pointer_castB8de200100IN7Entropy6Assets13IAssetManagerE8IServiceEENS_10shared_ptrIT_EERKNS5_IT0_EE, symObjAddr: 0x2390, symBinAddr: 0xB538, symSize: 0x44 }
  - { offset: 0x34393, size: 0x8, addend: 0x0, symName: __ZNSt3__14swapB8de200100IPN7Entropy6Assets13IAssetManagerEEENS_9enable_ifIXaasr21is_move_constructibleIT_EE5valuesr18is_move_assignableIS6_EE5valueEvE4typeERS6_S9_, symObjAddr: 0x2530, symBinAddr: 0xB6D8, symSize: 0x3C }
  - { offset: 0x343E4, size: 0x8, addend: 0x0, symName: __ZNSt3__115allocate_sharedB8de200100IN5flecs5worldENS_9allocatorIS2_EEJELi0EEENS_10shared_ptrIT_EERKT0_DpOT1_, symObjAddr: 0x256C, symBinAddr: 0xB714, symSize: 0xD4 }
  - { offset: 0x3474B, size: 0x8, addend: 0x0, symName: __ZNSt3__117__libcpp_allocateB8de200100INS_20__shared_ptr_emplaceIN5flecs5worldENS_9allocatorIS3_EEEEEEPT_NS_15__element_countEm, symObjAddr: 0x299C, symBinAddr: 0xBB44, symSize: 0x6C }
  - { offset: 0x347B9, size: 0x8, addend: 0x0, symName: __ZNSt3__124__is_overaligned_for_newB8de200100Em, symObjAddr: 0x2A1C, symBinAddr: 0xBBC4, symSize: 0x1C }
  - { offset: 0x347E5, size: 0x8, addend: 0x0, symName: __ZNSt3__121__libcpp_operator_newB8de200100INS_20__shared_ptr_emplaceIN5flecs5worldENS_9allocatorIS3_EEEEJmSt11align_val_tEEEPvDpT0_, symObjAddr: 0x2A38, symBinAddr: 0xBBE0, symSize: 0x2C }
  - { offset: 0x34838, size: 0x8, addend: 0x0, symName: __ZNSt3__121__libcpp_operator_newB8de200100INS_20__shared_ptr_emplaceIN5flecs5worldENS_9allocatorIS3_EEEEEEPvm, symObjAddr: 0x2A64, symBinAddr: 0xBC0C, symSize: 0x24 }
  - { offset: 0x34B67, size: 0x8, addend: 0x0, symName: __ZNSt3__119__libcpp_deallocateB8de200100INS_20__shared_ptr_emplaceIN5flecs5worldENS_9allocatorIS3_EEEEEEvPNS_15__type_identityIT_E4typeENS_15__element_countEm, symObjAddr: 0x1A0B0, symBinAddr: 0x23258, symSize: 0x64 }
  - { offset: 0x34BDF, size: 0x8, addend: 0x0, symName: __ZNSt3__124__libcpp_operator_deleteB8de200100IJPNS_20__shared_ptr_emplaceIN5flecs5worldENS_9allocatorIS3_EEEESt11align_val_tEEEvDpT_, symObjAddr: 0x1A114, symBinAddr: 0x232BC, symSize: 0x2C }
  - { offset: 0x34C25, size: 0x8, addend: 0x0, symName: __ZNSt3__124__libcpp_operator_deleteB8de200100IJPNS_20__shared_ptr_emplaceIN5flecs5worldENS_9allocatorIS3_EEEEEEEvDpT_, symObjAddr: 0x1A140, symBinAddr: 0x232E8, symSize: 0x24 }
  - { offset: 0x34C58, size: 0x8, addend: 0x0, symName: __ZNSt3__14swapB8de200100IPN5flecs5worldEEENS_9enable_ifIXaasr21is_move_constructibleIT_EE5valuesr18is_move_assignableIS5_EE5valueEvE4typeERS5_S8_, symObjAddr: 0x1A2F0, symBinAddr: 0x23498, symSize: 0x3C }
  - { offset: 0x34CA9, size: 0x8, addend: 0x0, symName: __ZNSt3__112__to_addressB8de200100IN7Entropy6Vulkan4Data10TwoDVertexEEEPT_S6_, symObjAddr: 0x1CC64, symBinAddr: 0x25DC8, symSize: 0x14 }
  - { offset: 0x34CDE, size: 0x8, addend: 0x0, symName: __ZNSt3__13maxB8de200100ImEERKT_S3_S3_, symObjAddr: 0x1D01C, symBinAddr: 0x26180, symSize: 0x2C }
  - { offset: 0x34D21, size: 0x8, addend: 0x0, symName: __ZNSt3__13minB8de200100ImEERKT_S3_S3_, symObjAddr: 0x1D048, symBinAddr: 0x261AC, symSize: 0x2C }
  - { offset: 0x34F6F, size: 0x8, addend: 0x0, symName: __ZNSt3__13minB8de200100ImNS_6__lessIvvEEEERKT_S5_S5_T0_, symObjAddr: 0x1D0AC, symBinAddr: 0x26210, symSize: 0x54 }
  - { offset: 0x35011, size: 0x8, addend: 0x0, symName: __ZNSt3__120__throw_length_errorB8de200100EPKc, symObjAddr: 0x1D150, symBinAddr: 0x262B4, symSize: 0x64 }
  - { offset: 0x35039, size: 0x8, addend: 0x0, symName: __ZNSt3__13maxB8de200100ImNS_6__lessIvvEEEERKT_S5_S5_T0_, symObjAddr: 0x1D22C, symBinAddr: 0x26390, symSize: 0x54 }
  - { offset: 0x35093, size: 0x8, addend: 0x0, symName: __ZNSt3__119__allocate_at_leastB8de200100INS_9allocatorIN7Entropy6Vulkan4Data10TwoDVertexEEEEENS_19__allocation_resultINS_16allocator_traitsIT_E7pointerEEERS9_m, symObjAddr: 0x1D344, symBinAddr: 0x264A8, symSize: 0x40 }
  - { offset: 0x350D6, size: 0x8, addend: 0x0, symName: __ZNSt3__117__libcpp_allocateB8de200100IN7Entropy6Vulkan4Data10TwoDVertexEEEPT_NS_15__element_countEm, symObjAddr: 0x1D3D4, symBinAddr: 0x26538, symSize: 0x70 }
  - { offset: 0x35144, size: 0x8, addend: 0x0, symName: __ZNSt3__121__libcpp_operator_newB8de200100IN7Entropy6Vulkan4Data10TwoDVertexEJmSt11align_val_tEEEPvDpT0_, symObjAddr: 0x1D444, symBinAddr: 0x265A8, symSize: 0x2C }
  - { offset: 0x35197, size: 0x8, addend: 0x0, symName: __ZNSt3__121__libcpp_operator_newB8de200100IN7Entropy6Vulkan4Data10TwoDVertexEEEPvm, symObjAddr: 0x1D470, symBinAddr: 0x265D4, symSize: 0x24 }
  - { offset: 0x351CD, size: 0x8, addend: 0x0, symName: __ZNSt3__134__uninitialized_allocator_relocateB8de200100INS_9allocatorIN7Entropy6Vulkan4Data10TwoDVertexEEEPS5_EEvRT_T0_SA_SA_, symObjAddr: 0x1D4A4, symBinAddr: 0x26608, symSize: 0x60 }
  - { offset: 0x35236, size: 0x8, addend: 0x0, symName: __ZNSt3__14swapB8de200100IPN7Entropy6Vulkan4Data10TwoDVertexEEENS_9enable_ifIXaasr21is_move_constructibleIT_EE5valuesr18is_move_assignableIS7_EE5valueEvE4typeERS7_SA_, symObjAddr: 0x1D504, symBinAddr: 0x26668, symSize: 0x3C }
  - { offset: 0x35287, size: 0x8, addend: 0x0, symName: __ZNSt3__119__libcpp_deallocateB8de200100IN7Entropy6Vulkan4Data10TwoDVertexEEEvPNS_15__type_identityIT_E4typeENS_15__element_countEm, symObjAddr: 0x1D76C, symBinAddr: 0x268D0, symSize: 0x68 }
  - { offset: 0x352FF, size: 0x8, addend: 0x0, symName: __ZNSt3__124__libcpp_operator_deleteB8de200100IJPN7Entropy6Vulkan4Data10TwoDVertexESt11align_val_tEEEvDpT_, symObjAddr: 0x1D7D4, symBinAddr: 0x26938, symSize: 0x2C }
  - { offset: 0x35345, size: 0x8, addend: 0x0, symName: __ZNSt3__124__libcpp_operator_deleteB8de200100IJPN7Entropy6Vulkan4Data10TwoDVertexEEEEvDpT_, symObjAddr: 0x1D800, symBinAddr: 0x26964, symSize: 0x24 }
  - { offset: 0x35378, size: 0x8, addend: 0x0, symName: __ZNSt3__18distanceB8de200100IPKtEENS_15iterator_traitsIT_E15difference_typeES4_S4_, symObjAddr: 0x1DA78, symBinAddr: 0x26BA4, symSize: 0x2C }
  - { offset: 0x353BB, size: 0x8, addend: 0x0, symName: __ZNSt3__14nextB8de200100IPKtLi0EEET_S3_NS_15iterator_traitsIS3_E15difference_typeE, symObjAddr: 0x1DAF4, symBinAddr: 0x26C20, symSize: 0x64 }
  - { offset: 0x35404, size: 0x8, addend: 0x0, symName: __ZNSt3__14copyB8de200100IPKtPtEET0_T_S5_S4_, symObjAddr: 0x1DB58, symBinAddr: 0x26C84, symSize: 0x40 }
  - { offset: 0x3545E, size: 0x8, addend: 0x0, symName: __ZNSt3__16__copyB8de200100IPKtS2_PtEENS_4pairIT_T1_EES5_T0_S6_, symObjAddr: 0x1DC20, symBinAddr: 0x26D4C, symSize: 0x44 }
  - { offset: 0x354C1, size: 0x8, addend: 0x0, symName: __ZNSt3__121__convert_to_integralB8de200100El, symObjAddr: 0x1DEC4, symBinAddr: 0x26FF0, symSize: 0x14 }
  - { offset: 0x354ED, size: 0x8, addend: 0x0, symName: __ZNSt3__19__advanceB8de200100IPKtEEvRT_NS_15iterator_traitsIS3_E15difference_typeENS_26random_access_iterator_tagE, symObjAddr: 0x1DED8, symBinAddr: 0x27004, symSize: 0x28 }
  - { offset: 0x35536, size: 0x8, addend: 0x0, symName: __ZNSt3__130__uninitialized_allocator_copyB8de200100INS_9allocatorItEEPKtS4_PtEET2_RT_T0_T1_S6_, symObjAddr: 0x1DF3C, symBinAddr: 0x27068, symSize: 0x80 }
  - { offset: 0x355D5, size: 0x8, addend: 0x0, symName: __ZNSt3__114__unwrap_rangeB8de200100IPKtS2_EENS_4pairIT0_S4_EET_S6_, symObjAddr: 0x1E02C, symBinAddr: 0x27158, symSize: 0x60 }
  - { offset: 0x35621, size: 0x8, addend: 0x0, symName: __ZNSt3__135__uninitialized_allocator_copy_implB8de200100INS_9allocatorItEEPKtS4_PtEET2_RT_T0_T1_S6_, symObjAddr: 0x1E08C, symBinAddr: 0x271B8, symSize: 0xF0 }
  - { offset: 0x356C1, size: 0x8, addend: 0x0, symName: __ZNSt3__113__unwrap_iterB8de200100IPtNS_18__unwrap_iter_implIS1_Lb1EEELi0EEEDTclsrT0_8__unwrapclsr3stdE7declvalIT_EEEES5_, symObjAddr: 0x1E17C, symBinAddr: 0x272A8, symSize: 0x24 }
  - { offset: 0x35705, size: 0x8, addend: 0x0, symName: __ZNSt3__113__rewrap_iterB8de200100IPtS1_NS_18__unwrap_iter_implIS1_Lb1EEEEET_S4_T0_, symObjAddr: 0x1E1A0, symBinAddr: 0x272CC, symSize: 0x3C }
  - { offset: 0x3575A, size: 0x8, addend: 0x0, symName: __ZNSt3__19make_pairB8de200100IPKtS2_EENS_4pairINS_18__unwrap_referenceIu7__decayIT_EE4typeENS4_Iu7__decayIT0_EE4typeEEEOS5_OS9_, symObjAddr: 0x1E1DC, symBinAddr: 0x27308, symSize: 0x38 }
  - { offset: 0x357A9, size: 0x8, addend: 0x0, symName: __ZNSt3__113__unwrap_iterB8de200100IPKtNS_18__unwrap_iter_implIS2_Lb1EEELi0EEEDTclsrT0_8__unwrapclsr3stdE7declvalIT_EEEES6_, symObjAddr: 0x1E214, symBinAddr: 0x27340, symSize: 0x24 }
  - { offset: 0x35908, size: 0x8, addend: 0x0, symName: __ZNSt3__112__to_addressB8de200100IKtEEPT_S3_, symObjAddr: 0x1E2CC, symBinAddr: 0x273F8, symSize: 0x14 }
  - { offset: 0x3593D, size: 0x8, addend: 0x0, symName: __ZNSt3__122__make_exception_guardB8de200100INS_29_AllocatorDestroyRangeReverseINS_9allocatorItEEPtEEEENS_28__exception_guard_exceptionsIT_EES7_, symObjAddr: 0x1E2E0, symBinAddr: 0x2740C, symSize: 0x4C }
  - { offset: 0x35973, size: 0x8, addend: 0x0, symName: __ZNSt3__112__to_addressB8de200100ItEEPT_S2_, symObjAddr: 0x1E3A4, symBinAddr: 0x274D0, symSize: 0x14 }
  - { offset: 0x359A9, size: 0x8, addend: 0x0, symName: __ZNSt3__119__allocator_destroyB8de200100INS_9allocatorItEENS_16reverse_iteratorIPtEES5_EEvRT_T0_T1_, symObjAddr: 0x1E57C, symBinAddr: 0x276A8, symSize: 0x70 }
  - { offset: 0x35A0C, size: 0x8, addend: 0x0, symName: __ZNSt3__1neB8de200100IPtS1_EEbRKNS_16reverse_iteratorIT_EERKNS2_IT0_EE, symObjAddr: 0x1E620, symBinAddr: 0x2774C, symSize: 0x44 }
  - { offset: 0x35A58, size: 0x8, addend: 0x0, symName: __ZNSt3__112__to_addressB8de200100INS_16reverse_iteratorIPtEELi0EEEu7__decayIDTclsr19__to_address_helperIT_EE6__callclsr3stdE7declvalIRKS4_EEEEES6_, symObjAddr: 0x1E690, symBinAddr: 0x277BC, symSize: 0x24 }
  - { offset: 0x35B06, size: 0x8, addend: 0x0, symName: __ZNSt3__124__copy_move_unwrap_itersB8de200100INS_11__copy_implEPKtS3_PtLi0EEENS_4pairIT0_T2_EES6_T1_S7_, symObjAddr: 0x1E840, symBinAddr: 0x2796C, symSize: 0xB4 }
  - { offset: 0x35CDB, size: 0x8, addend: 0x0, symName: __ZNSt3__19make_pairB8de200100IPKtPtEENS_4pairINS_18__unwrap_referenceIu7__decayIT_EE4typeENS5_Iu7__decayIT0_EE4typeEEEOS6_OSA_, symObjAddr: 0x1E93C, symBinAddr: 0x27A68, symSize: 0x38 }
  - { offset: 0x35D2A, size: 0x8, addend: 0x0, symName: __ZNSt3__114__rewrap_rangeB8de200100IPKtS2_EET_S3_T0_, symObjAddr: 0x1E974, symBinAddr: 0x27AA0, symSize: 0x2C }
  - { offset: 0x35D76, size: 0x8, addend: 0x0, symName: __ZNSt3__119__copy_trivial_implB8de200100IKttEENS_4pairIPT_PT0_EES4_S4_S6_, symObjAddr: 0x1E9A0, symBinAddr: 0x27ACC, symSize: 0x80 }
  - { offset: 0x35DDE, size: 0x8, addend: 0x0, symName: __ZNSt3__119__constexpr_memmoveB8de200100ItKtLi0EEEPT_S3_PT0_NS_15__element_countE, symObjAddr: 0x1EA20, symBinAddr: 0x27B4C, symSize: 0x60 }
  - { offset: 0x35E4C, size: 0x8, addend: 0x0, symName: __ZNSt3__19make_pairB8de200100IRPKtPtEENS_4pairINS_18__unwrap_referenceIu7__decayIT_EE4typeENS6_Iu7__decayIT0_EE4typeEEEOS7_OSB_, symObjAddr: 0x1EA80, symBinAddr: 0x27BAC, symSize: 0x38 }
  - { offset: 0x35E9B, size: 0x8, addend: 0x0, symName: __ZNSt3__113__rewrap_iterB8de200100IPKtS2_NS_18__unwrap_iter_implIS2_Lb1EEEEET_S5_T0_, symObjAddr: 0x1EB98, symBinAddr: 0x27CC4, symSize: 0x3C }
  - { offset: 0x35EF0, size: 0x8, addend: 0x0, symName: __ZNSt3__119__libcpp_deallocateB8de200100ItEEvPNS_15__type_identityIT_E4typeENS_15__element_countEm, symObjAddr: 0x1ED74, symBinAddr: 0x27EA0, symSize: 0x64 }
  - { offset: 0x35F68, size: 0x8, addend: 0x0, symName: __ZNSt3__124__libcpp_operator_deleteB8de200100IJPtSt11align_val_tEEEvDpT_, symObjAddr: 0x1EDD8, symBinAddr: 0x27F04, symSize: 0x2C }
  - { offset: 0x35FAE, size: 0x8, addend: 0x0, symName: __ZNSt3__124__libcpp_operator_deleteB8de200100IJPtEEEvDpT_, symObjAddr: 0x1EE04, symBinAddr: 0x27F30, symSize: 0x24 }
  - { offset: 0x35FE1, size: 0x8, addend: 0x0, symName: __ZNSt3__119__allocate_at_leastB8de200100INS_9allocatorItEEEENS_19__allocation_resultINS_16allocator_traitsIT_E7pointerEEERS5_m, symObjAddr: 0x1EE98, symBinAddr: 0x27FC4, symSize: 0x40 }
  - { offset: 0x36024, size: 0x8, addend: 0x0, symName: __ZNSt3__117__libcpp_allocateB8de200100ItEEPT_NS_15__element_countEm, symObjAddr: 0x1EF74, symBinAddr: 0x280A0, symSize: 0x6C }
  - { offset: 0x36092, size: 0x8, addend: 0x0, symName: __ZNSt3__121__libcpp_operator_newB8de200100ItJmSt11align_val_tEEEPvDpT0_, symObjAddr: 0x1EFE0, symBinAddr: 0x2810C, symSize: 0x2C }
  - { offset: 0x360E5, size: 0x8, addend: 0x0, symName: __ZNSt3__121__libcpp_operator_newB8de200100ItEEPvm, symObjAddr: 0x1F00C, symBinAddr: 0x28138, symSize: 0x24 }
  - { offset: 0x3611A, size: 0x8, addend: 0x0, symName: __ZNSt3__110__distanceB8de200100IPKtEENS_15iterator_traitsIT_E15difference_typeES4_S4_NS_26random_access_iterator_tagE, symObjAddr: 0x1F030, symBinAddr: 0x2815C, symSize: 0x28 }
  - { offset: 0x36167, size: 0x8, addend: 0x0, symName: __ZNSt3__112__to_addressB8de200100IN7Entropy6Vulkan4Data16InstanceDataTwoDEEEPT_S6_, symObjAddr: 0x1F21C, symBinAddr: 0x28348, symSize: 0x14 }
  - { offset: 0x3619C, size: 0x8, addend: 0x0, symName: __ZNSt3__119__allocate_at_leastB8de200100INS_9allocatorIN7Entropy6Vulkan4Data16InstanceDataTwoDEEEEENS_19__allocation_resultINS_16allocator_traitsIT_E7pointerEEERS9_m, symObjAddr: 0x1F6D8, symBinAddr: 0x28804, symSize: 0x40 }
  - { offset: 0x361DF, size: 0x8, addend: 0x0, symName: __ZNSt3__117__libcpp_allocateB8de200100IN7Entropy6Vulkan4Data16InstanceDataTwoDEEEPT_NS_15__element_countEm, symObjAddr: 0x1F768, symBinAddr: 0x28894, symSize: 0x70 }
  - { offset: 0x3624D, size: 0x8, addend: 0x0, symName: __ZNSt3__121__libcpp_operator_newB8de200100IN7Entropy6Vulkan4Data16InstanceDataTwoDEJmSt11align_val_tEEEPvDpT0_, symObjAddr: 0x1F7D8, symBinAddr: 0x28904, symSize: 0x2C }
  - { offset: 0x362A0, size: 0x8, addend: 0x0, symName: __ZNSt3__121__libcpp_operator_newB8de200100IN7Entropy6Vulkan4Data16InstanceDataTwoDEEEPvm, symObjAddr: 0x1F804, symBinAddr: 0x28930, symSize: 0x24 }
  - { offset: 0x362D6, size: 0x8, addend: 0x0, symName: __ZNSt3__134__uninitialized_allocator_relocateB8de200100INS_9allocatorIN7Entropy6Vulkan4Data16InstanceDataTwoDEEEPS5_EEvRT_T0_SA_SA_, symObjAddr: 0x1F838, symBinAddr: 0x28964, symSize: 0x60 }
  - { offset: 0x3633F, size: 0x8, addend: 0x0, symName: __ZNSt3__14swapB8de200100IPN7Entropy6Vulkan4Data16InstanceDataTwoDEEENS_9enable_ifIXaasr21is_move_constructibleIT_EE5valuesr18is_move_assignableIS7_EE5valueEvE4typeERS7_SA_, symObjAddr: 0x1F898, symBinAddr: 0x289C4, symSize: 0x3C }
  - { offset: 0x36390, size: 0x8, addend: 0x0, symName: __ZNSt3__119__libcpp_deallocateB8de200100IN7Entropy6Vulkan4Data16InstanceDataTwoDEEEvPNS_15__type_identityIT_E4typeENS_15__element_countEm, symObjAddr: 0x1FB00, symBinAddr: 0x28C2C, symSize: 0x68 }
  - { offset: 0x36408, size: 0x8, addend: 0x0, symName: __ZNSt3__124__libcpp_operator_deleteB8de200100IJPN7Entropy6Vulkan4Data16InstanceDataTwoDESt11align_val_tEEEvDpT_, symObjAddr: 0x1FB68, symBinAddr: 0x28C94, symSize: 0x2C }
  - { offset: 0x3644E, size: 0x8, addend: 0x0, symName: __ZNSt3__124__libcpp_operator_deleteB8de200100IJPN7Entropy6Vulkan4Data16InstanceDataTwoDEEEEvDpT_, symObjAddr: 0x1FB94, symBinAddr: 0x28CC0, symSize: 0x24 }
  - { offset: 0x376F5, size: 0x8, addend: 0x0, symName: __ZSt28__throw_bad_array_new_lengthB8de200100v, symObjAddr: 0x2968, symBinAddr: 0xBB10, symSize: 0x34 }
  - { offset: 0x37734, size: 0x8, addend: 0x0, symName: __ZN5flecs1_9enum_typeI15ecs_type_kind_tE3getEv, symObjAddr: 0xBB0C, symBinAddr: 0x14CB4, symSize: 0x8C }
  - { offset: 0x37755, size: 0x8, addend: 0x0, symName: __ZZN5flecs1_9enum_typeI15ecs_type_kind_tE3getEvE8instance, symObjAddr: 0x2AA60, symBinAddr: 0x843DB0, symSize: 0x0 }
  - { offset: 0x37876, size: 0x8, addend: 0x0, symName: __ZN5flecs1_9enum_typeI20ecs_primitive_kind_tE3getEv, symObjAddr: 0xE1AC, symBinAddr: 0x17354, symSize: 0x8C }
  - { offset: 0x37897, size: 0x8, addend: 0x0, symName: __ZZN5flecs1_9enum_typeI20ecs_primitive_kind_tE3getEvE8instance, symObjAddr: 0x2B6E8, symBinAddr: 0x844A38, symSize: 0x0 }
  - { offset: 0x3DC91, size: 0x8, addend: 0x0, symName: __ZN7Entropy3ECS5WorldC1Ev, symObjAddr: 0xCC4, symBinAddr: 0x9E7C, symSize: 0x2C }
  - { offset: 0x3DEA1, size: 0x8, addend: 0x0, symName: __ZN7Entropy3ECS5WorldC2Ev, symObjAddr: 0x0, symBinAddr: 0x91B8, symSize: 0x2B8 }
  - { offset: 0x3DED0, size: 0x8, addend: 0x0, symName: __ZN11ServiceBaseIN7Entropy3ECS6IWorldEEC2Ev, symObjAddr: 0x2B8, symBinAddr: 0x9470, symSize: 0x3C }
  - { offset: 0x3DEFA, size: 0x8, addend: 0x0, symName: __ZNSt3__110shared_ptrIN7Entropy9Renderers9IRendererEEC1B8de200100Ev, symObjAddr: 0x2F4, symBinAddr: 0x94AC, symSize: 0x2C }
  - { offset: 0x3DF22, size: 0x8, addend: 0x0, symName: __ZNSt3__110shared_ptrIN7Entropy6Vulkan7Devices14ILogicalDeviceEEC1B8de200100Ev, symObjAddr: 0x320, symBinAddr: 0x94D8, symSize: 0x2C }
  - { offset: 0x3DF4A, size: 0x8, addend: 0x0, symName: __ZNSt3__110shared_ptrIN7Entropy6Assets13IAssetManagerEEC1B8de200100Ev, symObjAddr: 0x34C, symBinAddr: 0x9504, symSize: 0x2C }
  - { offset: 0x3DF72, size: 0x8, addend: 0x0, symName: __ZNSt3__110shared_ptrIN5flecs5worldEEC1B8de200100Ev, symObjAddr: 0x378, symBinAddr: 0x9530, symSize: 0x2C }
  - { offset: 0x3E156, size: 0x8, addend: 0x0, symName: __ZNK14ServiceLocator10GetServiceIN7Entropy9Renderers9IRendererEEENSt3__110shared_ptrIT_EEv, symObjAddr: 0x3A4, symBinAddr: 0x955C, symSize: 0x144 }
  - { offset: 0x3E1AD, size: 0x8, addend: 0x0, symName: __ZNSt3__110shared_ptrIN7Entropy9Renderers9IRendererEEaSB8de200100EOS4_, symObjAddr: 0x4E8, symBinAddr: 0x96A0, symSize: 0x50 }
  - { offset: 0x3E1E0, size: 0x8, addend: 0x0, symName: __ZNSt3__110shared_ptrIN7Entropy9Renderers9IRendererEED1B8de200100Ev, symObjAddr: 0x538, symBinAddr: 0x96F0, symSize: 0x2C }
  - { offset: 0x3E208, size: 0x8, addend: 0x0, symName: __ZNK14ServiceLocator10GetServiceIN7Entropy6Vulkan7Devices14ILogicalDeviceEEENSt3__110shared_ptrIT_EEv, symObjAddr: 0x564, symBinAddr: 0x971C, symSize: 0x138 }
  - { offset: 0x3E25F, size: 0x8, addend: 0x0, symName: __ZNSt3__110shared_ptrIN7Entropy6Vulkan7Devices14ILogicalDeviceEEaSB8de200100EOS5_, symObjAddr: 0x69C, symBinAddr: 0x9854, symSize: 0x50 }
  - { offset: 0x3E292, size: 0x8, addend: 0x0, symName: __ZNSt3__110shared_ptrIN7Entropy6Vulkan7Devices14ILogicalDeviceEED1B8de200100Ev, symObjAddr: 0x6EC, symBinAddr: 0x98A4, symSize: 0x2C }
  - { offset: 0x3E2BA, size: 0x8, addend: 0x0, symName: __ZNK14ServiceLocator10GetServiceIN7Entropy6Assets13IAssetManagerEEENSt3__110shared_ptrIT_EEv, symObjAddr: 0x718, symBinAddr: 0x98D0, symSize: 0x138 }
  - { offset: 0x3E311, size: 0x8, addend: 0x0, symName: __ZNSt3__110shared_ptrIN7Entropy6Assets13IAssetManagerEEaSB8de200100EOS4_, symObjAddr: 0x850, symBinAddr: 0x9A08, symSize: 0x50 }
  - { offset: 0x3E344, size: 0x8, addend: 0x0, symName: __ZNSt3__110shared_ptrIN7Entropy6Assets13IAssetManagerEED1B8de200100Ev, symObjAddr: 0x8A0, symBinAddr: 0x9A58, symSize: 0x2C }
  - { offset: 0x3E36C, size: 0x8, addend: 0x0, symName: __ZNSt3__110shared_ptrIN5flecs5worldEEaSB8de200100EOS3_, symObjAddr: 0x904, symBinAddr: 0x9ABC, symSize: 0x50 }
  - { offset: 0x3E39F, size: 0x8, addend: 0x0, symName: __ZNSt3__110shared_ptrIN5flecs5worldEED1B8de200100Ev, symObjAddr: 0x954, symBinAddr: 0x9B0C, symSize: 0x2C }
  - { offset: 0x3E3C7, size: 0x8, addend: 0x0, symName: __ZNKSt3__110shared_ptrIN5flecs5worldEEptB8de200100Ev, symObjAddr: 0x980, symBinAddr: 0x9B38, symSize: 0x18 }
  - { offset: 0x3E3EB, size: 0x8, addend: 0x0, symName: __ZNK5flecs5world8observerIJN7Entropy3ECS4Tags2D2EEJEEENS_16observer_builderIJDpT_EEEDpOT0_, symObjAddr: 0x998, symBinAddr: 0x9B50, symSize: 0x40 }
  - { offset: 0x3E41F, size: 0x8, addend: 0x0, symName: __ZN5flecs18observer_builder_iINS_16observer_builderIJN7Entropy3ECS4Tags2D2EEEEJS5_EE5eventEy, symObjAddr: 0x9D8, symBinAddr: 0x9B90, symSize: 0x48 }
  - { offset: 0x3E457, size: 0x8, addend: 0x0, symName: '__ZN5flecs1_12node_builderINS_8observerE19ecs_observer_desc_tNS_16observer_builderIJN7Entropy3ECS4Tags2D2EEEENS_18observer_builder_iEJS8_EE4eachIZNS6_5WorldC1EvE3$_0EES2_OT_', symObjAddr: 0xA20, symBinAddr: 0x9BD8, symSize: 0xD8 }
  - { offset: 0x3E4AB, size: 0x8, addend: 0x0, symName: __ZN5flecs16observer_builderIJN7Entropy3ECS4Tags2D2EEED1Ev, symObjAddr: 0xAF8, symBinAddr: 0x9CB0, symSize: 0x2C }
  - { offset: 0x3E4DF, size: 0x8, addend: 0x0, symName: __ZNK5flecs5world6systemIJN7Entropy3ECS4Tags2D2ENS3_10Components8PositionENS6_9DimensionENS6_8RotationENS6_5ColorENS6_16TextureComponentEEJRA18_KcEEENS_14system_builderIJDpT_EEEDpOT0_, symObjAddr: 0xB24, symBinAddr: 0x9CDC, symSize: 0x44 }
  - { offset: 0x3E569, size: 0x8, addend: 0x0, symName: __ZN5flecs15query_builder_iINS_14system_builderIJN7Entropy3ECS4Tags2D2ENS3_10Components8PositionENS6_9DimensionENS6_8RotationENS6_5ColorENS6_16TextureComponentEEEEJS5_S7_S8_S9_SA_SB_EE8order_byIS7_EERSC_PFiyPKT_ySI_E, symObjAddr: 0xB68, symBinAddr: 0x9D20, symSize: 0x50 }
  - { offset: 0x3E5B6, size: 0x8, addend: 0x0, symName: __ZL8compareZyPKN7Entropy3ECS10Components8PositionEyS4_, symObjAddr: 0xBB8, symBinAddr: 0x9D70, symSize: 0x78 }
  - { offset: 0x3E612, size: 0x8, addend: 0x0, symName: '__ZN5flecs14system_builderIJN7Entropy3ECS4Tags2D2ENS2_10Components8PositionENS5_9DimensionENS5_8RotationENS5_5ColorENS5_16TextureComponentEEE4eachIZNS2_5WorldC1EvE3$_1EENS_6systemEOT_', symObjAddr: 0xC30, symBinAddr: 0x9DE8, symSize: 0x3C }
  - { offset: 0x3E64D, size: 0x8, addend: 0x0, symName: __ZN5flecs14system_builderIJN7Entropy3ECS4Tags2D2ENS2_10Components8PositionENS5_9DimensionENS5_8RotationENS5_5ColorENS5_16TextureComponentEEED1Ev, symObjAddr: 0xC6C, symBinAddr: 0x9E24, symSize: 0x2C }
  - { offset: 0x3E677, size: 0x8, addend: 0x0, symName: __ZN11ServiceBaseIN7Entropy3ECS6IWorldEED2Ev, symObjAddr: 0xC98, symBinAddr: 0x9E50, symSize: 0x2C }
  - { offset: 0x3E6A1, size: 0x8, addend: 0x0, symName: __ZN7Entropy3ECS5WorldD1Ev, symObjAddr: 0xCF0, symBinAddr: 0x9EA8, symSize: 0x2C }
  - { offset: 0x3E6CB, size: 0x8, addend: 0x0, symName: __ZN7Entropy3ECS5WorldD0Ev, symObjAddr: 0xD1C, symBinAddr: 0x9ED4, symSize: 0x30 }
  - { offset: 0x3E6F5, size: 0x8, addend: 0x0, symName: __ZNK11ServiceBaseIN7Entropy3ECS6IWorldEE12getTypeIndexEv, symObjAddr: 0xD4C, symBinAddr: 0x9F04, symSize: 0x30 }
  - { offset: 0x3E719, size: 0x8, addend: 0x0, symName: __ZN7Entropy3ECS5World3GetEv, symObjAddr: 0xD7C, symBinAddr: 0x9F34, symSize: 0x3C }
  - { offset: 0x3E73D, size: 0x8, addend: 0x0, symName: __ZN7Entropy3ECS6IWorldC2Ev, symObjAddr: 0xDB8, symBinAddr: 0x9F70, symSize: 0x70 }
  - { offset: 0x3E767, size: 0x8, addend: 0x0, symName: __ZN11ServiceBaseIN7Entropy3ECS6IWorldEED1Ev, symObjAddr: 0xE28, symBinAddr: 0x9FE0, symSize: 0x14 }
  - { offset: 0x3E791, size: 0x8, addend: 0x0, symName: __ZN11ServiceBaseIN7Entropy3ECS6IWorldEED0Ev, symObjAddr: 0xE3C, symBinAddr: 0x9FF4, symSize: 0xC }
  - { offset: 0x3E7BB, size: 0x8, addend: 0x0, symName: __ZN8IServiceC2Ev, symObjAddr: 0xE48, symBinAddr: 0xA000, symSize: 0x24 }
  - { offset: 0x3E7E5, size: 0x8, addend: 0x0, symName: __ZN5flecs5queryIJN7Entropy3ECS4Tags2D2ENS2_10Components8PositionEEEC1Ev, symObjAddr: 0xE6C, symBinAddr: 0xA024, symSize: 0x2C }
  - { offset: 0x3E80D, size: 0x8, addend: 0x0, symName: __ZN8IServiceD2Ev, symObjAddr: 0xE98, symBinAddr: 0xA050, symSize: 0x14 }
  - { offset: 0x3E835, size: 0x8, addend: 0x0, symName: __ZN7Entropy3ECS6IWorldD1Ev, symObjAddr: 0xEAC, symBinAddr: 0xA064, symSize: 0x14 }
  - { offset: 0x3E85F, size: 0x8, addend: 0x0, symName: __ZN7Entropy3ECS6IWorldD0Ev, symObjAddr: 0xEC0, symBinAddr: 0xA078, symSize: 0xC }
  - { offset: 0x3E889, size: 0x8, addend: 0x0, symName: __ZN8IServiceD1Ev, symObjAddr: 0xECC, symBinAddr: 0xA084, symSize: 0x14 }
  - { offset: 0x3E8B1, size: 0x8, addend: 0x0, symName: __ZN8IServiceD0Ev, symObjAddr: 0xEE0, symBinAddr: 0xA098, symSize: 0xC }
  - { offset: 0x3E8D9, size: 0x8, addend: 0x0, symName: __ZN5flecs5queryIJN7Entropy3ECS4Tags2D2ENS2_10Components8PositionEEEC2Ev, symObjAddr: 0xEEC, symBinAddr: 0xA0A4, symSize: 0x48 }
  - { offset: 0x3E901, size: 0x8, addend: 0x0, symName: __ZN5flecs10query_baseC2Ev, symObjAddr: 0xF34, symBinAddr: 0xA0EC, symSize: 0x18 }
  - { offset: 0x3E929, size: 0x8, addend: 0x0, symName: __ZN5flecs8iterableIJN7Entropy3ECS4Tags2D2ENS2_10Components8PositionEEEC2Ev, symObjAddr: 0xF4C, symBinAddr: 0xA104, symSize: 0x24 }
  - { offset: 0x3E953, size: 0x8, addend: 0x0, symName: __ZN5flecs5queryIJN7Entropy3ECS4Tags2D2ENS2_10Components8PositionEEED1Ev, symObjAddr: 0xF70, symBinAddr: 0xA128, symSize: 0x2C }
  - { offset: 0x3E97D, size: 0x8, addend: 0x0, symName: __ZN5flecs5queryIJN7Entropy3ECS4Tags2D2ENS2_10Components8PositionEEED0Ev, symObjAddr: 0xF9C, symBinAddr: 0xA154, symSize: 0x30 }
  - { offset: 0x3E9A7, size: 0x8, addend: 0x0, symName: __ZNK5flecs5queryIJN7Entropy3ECS4Tags2D2ENS2_10Components8PositionEEE8get_iterEP11ecs_world_t, symObjAddr: 0xFCC, symBinAddr: 0xA184, symSize: 0xD8 }
  - { offset: 0x3E9D9, size: 0x8, addend: 0x0, symName: __ZNK5flecs5queryIJN7Entropy3ECS4Tags2D2ENS2_10Components8PositionEEE11next_actionEv, symObjAddr: 0x10A4, symBinAddr: 0xA25C, symSize: 0x18 }
  - { offset: 0x3E9FD, size: 0x8, addend: 0x0, symName: __ZN5flecs8iterableIJN7Entropy3ECS4Tags2D2ENS2_10Components8PositionEEED1Ev, symObjAddr: 0x10BC, symBinAddr: 0xA274, symSize: 0x14 }
  - { offset: 0x3EA25, size: 0x8, addend: 0x0, symName: __ZN5flecs8iterableIJN7Entropy3ECS4Tags2D2ENS2_10Components8PositionEEED0Ev, symObjAddr: 0x10D0, symBinAddr: 0xA288, symSize: 0xC }
  - { offset: 0x3EA4D, size: 0x8, addend: 0x0, symName: __ZN5flecs5queryIJN7Entropy3ECS4Tags2D2ENS2_10Components8PositionEEED2Ev, symObjAddr: 0x10DC, symBinAddr: 0xA294, symSize: 0x38 }
  - { offset: 0x3EA77, size: 0x8, addend: 0x0, symName: __ZN5flecs8iterableIJN7Entropy3ECS4Tags2D2ENS2_10Components8PositionEEED2Ev, symObjAddr: 0x1114, symBinAddr: 0xA2CC, symSize: 0x14 }
  - { offset: 0x3EA9F, size: 0x8, addend: 0x0, symName: __ZN5flecs10query_baseD2Ev, symObjAddr: 0x1128, symBinAddr: 0xA2E0, symSize: 0x94 }
  - { offset: 0x3EAC7, size: 0x8, addend: 0x0, symName: __ZNSt3__110shared_ptrIN7Entropy9Renderers9IRendererEEC2B8de200100Ev, symObjAddr: 0x11CC, symBinAddr: 0xA374, symSize: 0x1C }
  - { offset: 0x3EAEF, size: 0x8, addend: 0x0, symName: __ZNSt3__110shared_ptrIN7Entropy6Vulkan7Devices14ILogicalDeviceEEC2B8de200100Ev, symObjAddr: 0x11E8, symBinAddr: 0xA390, symSize: 0x1C }
  - { offset: 0x3EB17, size: 0x8, addend: 0x0, symName: __ZNSt3__110shared_ptrIN7Entropy6Assets13IAssetManagerEEC2B8de200100Ev, symObjAddr: 0x1204, symBinAddr: 0xA3AC, symSize: 0x1C }
  - { offset: 0x3EB3F, size: 0x8, addend: 0x0, symName: __ZNSt3__110shared_ptrIN5flecs5worldEEC2B8de200100Ev, symObjAddr: 0x1220, symBinAddr: 0xA3C8, symSize: 0x1C }
  - { offset: 0x3EB68, size: 0x8, addend: 0x0, symName: ___cxx_global_var_init, symObjAddr: 0x27490, symBinAddr: 0x2FD40, symSize: 0x18 }
  - { offset: 0x3EB7B, size: 0x8, addend: 0x0, symName: __ZN5flecs16observer_builderIJN7Entropy3ECS4Tags2D2EEED2Ev, symObjAddr: 0x123C, symBinAddr: 0xA3E4, symSize: 0x2C }
  - { offset: 0x3EBA5, size: 0x8, addend: 0x0, symName: __ZN5flecs1_12node_builderINS_8observerE19ecs_observer_desc_tNS_16observer_builderIJN7Entropy3ECS4Tags2D2EEEENS_18observer_builder_iEJS8_EED2Ev, symObjAddr: 0x1268, symBinAddr: 0xA410, symSize: 0x2C }
  - { offset: 0x3EBCF, size: 0x8, addend: 0x0, symName: __ZN5flecs18observer_builder_iINS_16observer_builderIJN7Entropy3ECS4Tags2D2EEEEJS5_EED2Ev, symObjAddr: 0x1294, symBinAddr: 0xA43C, symSize: 0x2C }
  - { offset: 0x3EBF9, size: 0x8, addend: 0x0, symName: __ZN5flecs15query_builder_iINS_16observer_builderIJN7Entropy3ECS4Tags2D2EEEEJS5_EED2Ev, symObjAddr: 0x12C0, symBinAddr: 0xA468, symSize: 0x2C }
  - { offset: 0x3EC23, size: 0x8, addend: 0x0, symName: __ZN5flecs14term_builder_iINS_16observer_builderIJN7Entropy3ECS4Tags2D2EEEEED2Ev, symObjAddr: 0x12EC, symBinAddr: 0xA494, symSize: 0x2C }
  - { offset: 0x3EC4D, size: 0x8, addend: 0x0, symName: __ZN5flecs18term_ref_builder_iINS_16observer_builderIJN7Entropy3ECS4Tags2D2EEEEED2Ev, symObjAddr: 0x1318, symBinAddr: 0xA4C0, symSize: 0x14 }
  - { offset: 0x3EC75, size: 0x8, addend: 0x0, symName: __ZN5flecs14system_builderIJN7Entropy3ECS4Tags2D2ENS2_10Components8PositionENS5_9DimensionENS5_8RotationENS5_5ColorENS5_16TextureComponentEEED2Ev, symObjAddr: 0x132C, symBinAddr: 0xA4D4, symSize: 0x2C }
  - { offset: 0x3EC9F, size: 0x8, addend: 0x0, symName: __ZN5flecs1_12node_builderINS_6systemE17ecs_system_desc_tNS_14system_builderIJN7Entropy3ECS4Tags2D2ENS6_10Components8PositionENS9_9DimensionENS9_8RotationENS9_5ColorENS9_16TextureComponentEEEENS_16system_builder_iEJS8_SA_SB_SC_SD_SE_EED2Ev, symObjAddr: 0x1358, symBinAddr: 0xA500, symSize: 0x2C }
  - { offset: 0x3ECC9, size: 0x8, addend: 0x0, symName: __ZN5flecs16system_builder_iINS_14system_builderIJN7Entropy3ECS4Tags2D2ENS3_10Components8PositionENS6_9DimensionENS6_8RotationENS6_5ColorENS6_16TextureComponentEEEEJS5_S7_S8_S9_SA_SB_EED2Ev, symObjAddr: 0x1384, symBinAddr: 0xA52C, symSize: 0x2C }
  - { offset: 0x3ECF3, size: 0x8, addend: 0x0, symName: __ZN5flecs15query_builder_iINS_14system_builderIJN7Entropy3ECS4Tags2D2ENS3_10Components8PositionENS6_9DimensionENS6_8RotationENS6_5ColorENS6_16TextureComponentEEEEJS5_S7_S8_S9_SA_SB_EED2Ev, symObjAddr: 0x13B0, symBinAddr: 0xA558, symSize: 0x2C }
  - { offset: 0x3ED1D, size: 0x8, addend: 0x0, symName: __ZN5flecs14term_builder_iINS_14system_builderIJN7Entropy3ECS4Tags2D2ENS3_10Components8PositionENS6_9DimensionENS6_8RotationENS6_5ColorENS6_16TextureComponentEEEEED2Ev, symObjAddr: 0x13DC, symBinAddr: 0xA584, symSize: 0x2C }
  - { offset: 0x3ED47, size: 0x8, addend: 0x0, symName: __ZN5flecs18term_ref_builder_iINS_14system_builderIJN7Entropy3ECS4Tags2D2ENS3_10Components8PositionENS6_9DimensionENS6_8RotationENS6_5ColorENS6_16TextureComponentEEEEED2Ev, symObjAddr: 0x1408, symBinAddr: 0xA5B0, symSize: 0x14 }
  - { offset: 0x3ED6F, size: 0x8, addend: 0x0, symName: __ZN7Entropy3ECS6IWorldD2Ev, symObjAddr: 0x141C, symBinAddr: 0xA5C4, symSize: 0x48 }
  - { offset: 0x3ED99, size: 0x8, addend: 0x0, symName: __ZNSt3__110shared_ptrIN7Entropy9Renderers9IRendererEED2B8de200100Ev, symObjAddr: 0x1464, symBinAddr: 0xA60C, symSize: 0x4C }
  - { offset: 0x3EDC1, size: 0x8, addend: 0x0, symName: __ZNSt3__119__shared_weak_count16__release_sharedB8de200100Ev, symObjAddr: 0x14B0, symBinAddr: 0xA658, symSize: 0x3C }
  - { offset: 0x3EDE5, size: 0x8, addend: 0x0, symName: __ZNSt3__114__shared_count16__release_sharedB8de200100Ev, symObjAddr: 0x14EC, symBinAddr: 0xA694, symSize: 0x78 }
  - { offset: 0x3EE09, size: 0x8, addend: 0x0, symName: __ZNSt3__110shared_ptrIN7Entropy6Vulkan7Devices14ILogicalDeviceEED2B8de200100Ev, symObjAddr: 0x15E8, symBinAddr: 0xA790, symSize: 0x4C }
  - { offset: 0x3EE31, size: 0x8, addend: 0x0, symName: __ZNSt3__110shared_ptrIN7Entropy6Assets13IAssetManagerEED2B8de200100Ev, symObjAddr: 0x1634, symBinAddr: 0xA7DC, symSize: 0x4C }
  - { offset: 0x3EE59, size: 0x8, addend: 0x0, symName: __ZNSt3__110shared_ptrIN5flecs5worldEED2B8de200100Ev, symObjAddr: 0x1680, symBinAddr: 0xA828, symSize: 0x4C }
  - { offset: 0x3EE9F, size: 0x8, addend: 0x0, symName: __ZNSt3__110lock_guardINS_5mutexEEC1B8de200100ERS1_, symObjAddr: 0x16CC, symBinAddr: 0xA874, symSize: 0x34 }
  - { offset: 0x3EED5, size: 0x8, addend: 0x0, symName: __ZNSt3__110type_indexC1B8de200100ERKSt9type_info, symObjAddr: 0x1700, symBinAddr: 0xA8A8, symSize: 0x34 }
  - { offset: 0x3EF0B, size: 0x8, addend: 0x0, symName: __ZNKSt3__13mapINS_10type_indexENS_10shared_ptrI8IServiceEENS_4lessIS1_EENS_9allocatorINS_4pairIKS1_S4_EEEEE4findB8de200100ERS9_, symObjAddr: 0x1734, symBinAddr: 0xA8DC, symSize: 0x40 }
  - { offset: 0x3EF3E, size: 0x8, addend: 0x0, symName: __ZNKSt3__13mapINS_10type_indexENS_10shared_ptrI8IServiceEENS_4lessIS1_EENS_9allocatorINS_4pairIKS1_S4_EEEEE3endB8de200100Ev, symObjAddr: 0x17A0, symBinAddr: 0xA948, symSize: 0x38 }
  - { offset: 0x3EF62, size: 0x8, addend: 0x0, symName: __ZNKSt3__120__map_const_iteratorINS_21__tree_const_iteratorINS_12__value_typeINS_10type_indexENS_10shared_ptrI8IServiceEEEEPNS_11__tree_nodeIS7_PvEElEEEptB8de200100Ev, symObjAddr: 0x181C, symBinAddr: 0xA9C4, symSize: 0x2C }
  - { offset: 0x3EF86, size: 0x8, addend: 0x0, symName: __ZNSt3__110lock_guardINS_5mutexEED1B8de200100Ev, symObjAddr: 0x1848, symBinAddr: 0xA9F0, symSize: 0x2C }
  - { offset: 0x3EFAE, size: 0x8, addend: 0x0, symName: __ZNSt3__110lock_guardINS_5mutexEEC2B8de200100ERS1_, symObjAddr: 0x1874, symBinAddr: 0xAA1C, symSize: 0x3C }
  - { offset: 0x3EFE4, size: 0x8, addend: 0x0, symName: __ZNSt3__110type_indexC2B8de200100ERKSt9type_info, symObjAddr: 0x18B0, symBinAddr: 0xAA58, symSize: 0x20 }
  - { offset: 0x3F01A, size: 0x8, addend: 0x0, symName: __ZNKSt3__16__treeINS_12__value_typeINS_10type_indexENS_10shared_ptrI8IServiceEEEENS_19__map_value_compareIS2_S6_NS_4lessIS2_EELb1EEENS_9allocatorIS6_EEE4findIS2_EENS_21__tree_const_iteratorIS6_PNS_11__tree_nodeIS6_PvEElEERKT_, symObjAddr: 0x18D0, symBinAddr: 0xAA78, symSize: 0xF8 }
  - { offset: 0x3F066, size: 0x8, addend: 0x0, symName: __ZNSt3__120__map_const_iteratorINS_21__tree_const_iteratorINS_12__value_typeINS_10type_indexENS_10shared_ptrI8IServiceEEEEPNS_11__tree_nodeIS7_PvEElEEEC1B8de200100ESC_, symObjAddr: 0x19C8, symBinAddr: 0xAB70, symSize: 0x34 }
  - { offset: 0x3F09D, size: 0x8, addend: 0x0, symName: __ZNKSt3__16__treeINS_12__value_typeINS_10type_indexENS_10shared_ptrI8IServiceEEEENS_19__map_value_compareIS2_S6_NS_4lessIS2_EELb1EEENS_9allocatorIS6_EEE13__lower_boundIS2_EENS_21__tree_const_iteratorIS6_PNS_11__tree_nodeIS6_PvEElEERKT_SJ_PNS_15__tree_end_nodeIPNS_16__tree_node_baseISH_EEEE, symObjAddr: 0x19FC, symBinAddr: 0xABA4, symSize: 0x9C }
  - { offset: 0x3F0F7, size: 0x8, addend: 0x0, symName: __ZNKSt3__16__treeINS_12__value_typeINS_10type_indexENS_10shared_ptrI8IServiceEEEENS_19__map_value_compareIS2_S6_NS_4lessIS2_EELb1EEENS_9allocatorIS6_EEE6__rootB8de200100Ev, symObjAddr: 0x1A98, symBinAddr: 0xAC40, symSize: 0x28 }
  - { offset: 0x3F11B, size: 0x8, addend: 0x0, symName: __ZNKSt3__16__treeINS_12__value_typeINS_10type_indexENS_10shared_ptrI8IServiceEEEENS_19__map_value_compareIS2_S6_NS_4lessIS2_EELb1EEENS_9allocatorIS6_EEE10__end_nodeB8de200100Ev, symObjAddr: 0x1AC0, symBinAddr: 0xAC68, symSize: 0x28 }
  - { offset: 0x3F13F, size: 0x8, addend: 0x0, symName: __ZNKSt3__16__treeINS_12__value_typeINS_10type_indexENS_10shared_ptrI8IServiceEEEENS_19__map_value_compareIS2_S6_NS_4lessIS2_EELb1EEENS_9allocatorIS6_EEE3endB8de200100Ev, symObjAddr: 0x1B18, symBinAddr: 0xACC0, symSize: 0x34 }
  - { offset: 0x3F163, size: 0x8, addend: 0x0, symName: __ZNKSt3__16__treeINS_12__value_typeINS_10type_indexENS_10shared_ptrI8IServiceEEEENS_19__map_value_compareIS2_S6_NS_4lessIS2_EELb1EEENS_9allocatorIS6_EEE10value_compB8de200100Ev, symObjAddr: 0x1B4C, symBinAddr: 0xACF4, symSize: 0x14 }
  - { offset: 0x3F187, size: 0x8, addend: 0x0, symName: __ZNKSt3__119__map_value_compareINS_10type_indexENS_12__value_typeIS1_NS_10shared_ptrI8IServiceEEEENS_4lessIS1_EELb1EEclB8de200100ERKS1_RKS6_, symObjAddr: 0x1B60, symBinAddr: 0xAD08, symSize: 0x4C }
  - { offset: 0x3F1C9, size: 0x8, addend: 0x0, symName: __ZNKSt3__121__tree_const_iteratorINS_12__value_typeINS_10type_indexENS_10shared_ptrI8IServiceEEEEPNS_11__tree_nodeIS6_PvEElEdeB8de200100Ev, symObjAddr: 0x1BAC, symBinAddr: 0xAD54, symSize: 0x28 }
  - { offset: 0x3F1ED, size: 0x8, addend: 0x0, symName: __ZNKSt3__119__map_value_compareINS_10type_indexENS_12__value_typeIS1_NS_10shared_ptrI8IServiceEEEENS_4lessIS1_EELb1EEclB8de200100ERKS6_RKS1_, symObjAddr: 0x1BD4, symBinAddr: 0xAD7C, symSize: 0x44 }
  - { offset: 0x3F22F, size: 0x8, addend: 0x0, symName: __ZNSt3__121__tree_const_iteratorINS_12__value_typeINS_10type_indexENS_10shared_ptrI8IServiceEEEEPNS_11__tree_nodeIS6_PvEElEC1B8de200100EPNS_15__tree_end_nodeIPNS_16__tree_node_baseIS8_EEEE, symObjAddr: 0x1C18, symBinAddr: 0xADC0, symSize: 0x34 }
  - { offset: 0x3F266, size: 0x8, addend: 0x0, symName: __ZNKSt3__14lessINS_10type_indexEEclB8de200100ERKS1_S4_, symObjAddr: 0x1C4C, symBinAddr: 0xADF4, symSize: 0x30 }
  - { offset: 0x3F2A8, size: 0x8, addend: 0x0, symName: __ZNKSt3__112__value_typeINS_10type_indexENS_10shared_ptrI8IServiceEEE11__get_valueB8de200100Ev, symObjAddr: 0x1C7C, symBinAddr: 0xAE24, symSize: 0x24 }
  - { offset: 0x3F2CC, size: 0x8, addend: 0x0, symName: __ZNKSt3__110type_indexltB8de200100ERKS0_, symObjAddr: 0x1CA0, symBinAddr: 0xAE48, symSize: 0x34 }
  - { offset: 0x3F332, size: 0x8, addend: 0x0, symName: __ZNKSt9type_info6beforeB8de200100ERKS_, symObjAddr: 0x1CD4, symBinAddr: 0xAE7C, symSize: 0xB4 }
  - { offset: 0x3F3CF, size: 0x8, addend: 0x0, symName: __ZNSt27__type_info_implementations30__non_unique_arm_rtti_bit_impl21__is_type_name_uniqueB8de200100Em, symObjAddr: 0x1D88, symBinAddr: 0xAF30, symSize: 0x1C }
  - { offset: 0x3F3F2, size: 0x8, addend: 0x0, symName: __ZNSt3__121__tree_const_iteratorINS_12__value_typeINS_10type_indexENS_10shared_ptrI8IServiceEEEEPNS_11__tree_nodeIS6_PvEElEC2B8de200100EPNS_15__tree_end_nodeIPNS_16__tree_node_baseIS8_EEEE, symObjAddr: 0x1DDC, symBinAddr: 0xAF84, symSize: 0x20 }
  - { offset: 0x3F42F, size: 0x8, addend: 0x0, symName: __ZNSt3__114pointer_traitsIPNS_15__tree_end_nodeIPNS_16__tree_node_baseIPvEEEEE10pointer_toB8de200100ERS6_, symObjAddr: 0x1DFC, symBinAddr: 0xAFA4, symSize: 0x14 }
  - { offset: 0x3F451, size: 0x8, addend: 0x0, symName: __ZNKSt3__121__tree_const_iteratorINS_12__value_typeINS_10type_indexENS_10shared_ptrI8IServiceEEEEPNS_11__tree_nodeIS6_PvEElE8__get_npB8de200100Ev, symObjAddr: 0x1E3C, symBinAddr: 0xAFE4, symSize: 0x18 }
  - { offset: 0x3F475, size: 0x8, addend: 0x0, symName: __ZNSt3__120__map_const_iteratorINS_21__tree_const_iteratorINS_12__value_typeINS_10type_indexENS_10shared_ptrI8IServiceEEEEPNS_11__tree_nodeIS7_PvEElEEEC2B8de200100ESC_, symObjAddr: 0x1E54, symBinAddr: 0xAFFC, symSize: 0x20 }
  - { offset: 0x3F4AC, size: 0x8, addend: 0x0, symName: __ZNKSt3__110shared_ptrI8IServiceE3getB8de200100Ev, symObjAddr: 0x1E74, symBinAddr: 0xB01C, symSize: 0x18 }
  - { offset: 0x3F4D0, size: 0x8, addend: 0x0, symName: __ZNSt3__110shared_ptrIN7Entropy9Renderers9IRendererEEC1B8de200100I8IServiceEERKNS0_IT_EEPS3_, symObjAddr: 0x1E8C, symBinAddr: 0xB034, symSize: 0x3C }
  - { offset: 0x3F51F, size: 0x8, addend: 0x0, symName: __ZNSt3__110shared_ptrIN7Entropy9Renderers9IRendererEEC2B8de200100I8IServiceEERKNS0_IT_EEPS3_, symObjAddr: 0x1EC8, symBinAddr: 0xB070, symSize: 0x68 }
  - { offset: 0x3F56E, size: 0x8, addend: 0x0, symName: __ZNSt3__119__shared_weak_count12__add_sharedB8de200100Ev, symObjAddr: 0x1F30, symBinAddr: 0xB0D8, symSize: 0x24 }
  - { offset: 0x3F592, size: 0x8, addend: 0x0, symName: __ZNSt3__114__shared_count12__add_sharedB8de200100Ev, symObjAddr: 0x1F54, symBinAddr: 0xB0FC, symSize: 0x28 }
  - { offset: 0x3F5B7, size: 0x8, addend: 0x0, symName: __ZNSt3__114pointer_traitsIPKNS_4pairIKNS_10type_indexENS_10shared_ptrI8IServiceEEEEE10pointer_toB8de200100ERS8_, symObjAddr: 0x2000, symBinAddr: 0xB1A8, symSize: 0x14 }
  - { offset: 0x3F5D9, size: 0x8, addend: 0x0, symName: __ZNKSt3__121__tree_const_iteratorINS_12__value_typeINS_10type_indexENS_10shared_ptrI8IServiceEEEEPNS_11__tree_nodeIS6_PvEElEptB8de200100Ev, symObjAddr: 0x2014, symBinAddr: 0xB1BC, symSize: 0x2C }
  - { offset: 0x3F5FE, size: 0x8, addend: 0x0, symName: __ZNSt3__114pointer_traitsIPKNS_12__value_typeINS_10type_indexENS_10shared_ptrI8IServiceEEEEE10pointer_toB8de200100ERS7_, symObjAddr: 0x2040, symBinAddr: 0xB1E8, symSize: 0x14 }
  - { offset: 0x3F620, size: 0x8, addend: 0x0, symName: __ZNSt3__110lock_guardINS_5mutexEED2B8de200100Ev, symObjAddr: 0x2054, symBinAddr: 0xB1FC, symSize: 0x30 }
  - { offset: 0x3F648, size: 0x8, addend: 0x0, symName: __ZNSt3__110shared_ptrIN7Entropy9Renderers9IRendererEEC1B8de200100EOS4_, symObjAddr: 0x2084, symBinAddr: 0xB22C, symSize: 0x34 }
  - { offset: 0x3F67F, size: 0x8, addend: 0x0, symName: __ZNSt3__110shared_ptrIN7Entropy9Renderers9IRendererEE4swapB8de200100ERS4_, symObjAddr: 0x20B8, symBinAddr: 0xB260, symSize: 0x44 }
  - { offset: 0x3F6B2, size: 0x8, addend: 0x0, symName: __ZNSt3__110shared_ptrIN7Entropy9Renderers9IRendererEEC2B8de200100EOS4_, symObjAddr: 0x20FC, symBinAddr: 0xB2A4, symSize: 0x40 }
  - { offset: 0x3F6E9, size: 0x8, addend: 0x0, symName: __ZNSt3__110shared_ptrIN7Entropy6Vulkan7Devices14ILogicalDeviceEEC1B8de200100I8IServiceEERKNS0_IT_EEPS4_, symObjAddr: 0x21F8, symBinAddr: 0xB3A0, symSize: 0x3C }
  - { offset: 0x3F738, size: 0x8, addend: 0x0, symName: __ZNSt3__110shared_ptrIN7Entropy6Vulkan7Devices14ILogicalDeviceEEC2B8de200100I8IServiceEERKNS0_IT_EEPS4_, symObjAddr: 0x2234, symBinAddr: 0xB3DC, symSize: 0x68 }
  - { offset: 0x3F787, size: 0x8, addend: 0x0, symName: __ZNSt3__110shared_ptrIN7Entropy6Vulkan7Devices14ILogicalDeviceEEC1B8de200100EOS5_, symObjAddr: 0x229C, symBinAddr: 0xB444, symSize: 0x34 }
  - { offset: 0x3F7BE, size: 0x8, addend: 0x0, symName: __ZNSt3__110shared_ptrIN7Entropy6Vulkan7Devices14ILogicalDeviceEE4swapB8de200100ERS5_, symObjAddr: 0x22D0, symBinAddr: 0xB478, symSize: 0x44 }
  - { offset: 0x3F7F1, size: 0x8, addend: 0x0, symName: __ZNSt3__110shared_ptrIN7Entropy6Vulkan7Devices14ILogicalDeviceEEC2B8de200100EOS5_, symObjAddr: 0x2314, symBinAddr: 0xB4BC, symSize: 0x40 }
  - { offset: 0x3F828, size: 0x8, addend: 0x0, symName: __ZNSt3__110shared_ptrIN7Entropy6Assets13IAssetManagerEEC1B8de200100I8IServiceEERKNS0_IT_EEPS3_, symObjAddr: 0x23D4, symBinAddr: 0xB57C, symSize: 0x3C }
  - { offset: 0x3F877, size: 0x8, addend: 0x0, symName: __ZNSt3__110shared_ptrIN7Entropy6Assets13IAssetManagerEEC2B8de200100I8IServiceEERKNS0_IT_EEPS3_, symObjAddr: 0x2410, symBinAddr: 0xB5B8, symSize: 0x68 }
  - { offset: 0x3F8C6, size: 0x8, addend: 0x0, symName: __ZNSt3__110shared_ptrIN7Entropy6Assets13IAssetManagerEEC1B8de200100EOS4_, symObjAddr: 0x2478, symBinAddr: 0xB620, symSize: 0x34 }
  - { offset: 0x3F8FD, size: 0x8, addend: 0x0, symName: __ZNSt3__110shared_ptrIN7Entropy6Assets13IAssetManagerEE4swapB8de200100ERS4_, symObjAddr: 0x24AC, symBinAddr: 0xB654, symSize: 0x44 }
  - { offset: 0x3F930, size: 0x8, addend: 0x0, symName: __ZNSt3__110shared_ptrIN7Entropy6Assets13IAssetManagerEEC2B8de200100EOS4_, symObjAddr: 0x24F0, symBinAddr: 0xB698, symSize: 0x40 }
  - { offset: 0x3F967, size: 0x8, addend: 0x0, symName: __ZNSt3__19allocatorIN5flecs5worldEEC1B8de200100Ev, symObjAddr: 0x2640, symBinAddr: 0xB7E8, symSize: 0x2C }
  - { offset: 0x3F9DB, size: 0x8, addend: 0x0, symName: __ZNSt3__118__allocation_guardINS_9allocatorINS_20__shared_ptr_emplaceIN5flecs5worldENS1_IS4_EEEEEEEC1B8de200100IS5_EET_m, symObjAddr: 0x266C, symBinAddr: 0xB814, symSize: 0x34 }
  - { offset: 0x3FA28, size: 0x8, addend: 0x0, symName: __ZNKSt3__118__allocation_guardINS_9allocatorINS_20__shared_ptr_emplaceIN5flecs5worldENS1_IS4_EEEEEEE5__getB8de200100Ev, symObjAddr: 0x26A0, symBinAddr: 0xB848, symSize: 0x18 }
  - { offset: 0x3FA4C, size: 0x8, addend: 0x0, symName: __ZNSt3__120__shared_ptr_emplaceIN5flecs5worldENS_9allocatorIS2_EEEC1B8de200100IJES4_Li0EEES4_DpOT_, symObjAddr: 0x26B8, symBinAddr: 0xB860, symSize: 0x2C }
  - { offset: 0x3FA96, size: 0x8, addend: 0x0, symName: __ZNSt3__118__allocation_guardINS_9allocatorINS_20__shared_ptr_emplaceIN5flecs5worldENS1_IS4_EEEEEEE13__release_ptrB8de200100Ev, symObjAddr: 0x26E4, symBinAddr: 0xB88C, symSize: 0x24 }
  - { offset: 0x3FAC8, size: 0x8, addend: 0x0, symName: __ZNSt3__110shared_ptrIN5flecs5worldEE27__create_with_control_blockB8de200100IS2_NS_20__shared_ptr_emplaceIS2_NS_9allocatorIS2_EEEEEES3_PT_PT0_, symObjAddr: 0x2708, symBinAddr: 0xB8B0, symSize: 0xA4 }
  - { offset: 0x3FB1D, size: 0x8, addend: 0x0, symName: __ZNSt3__120__shared_ptr_emplaceIN5flecs5worldENS_9allocatorIS2_EEE10__get_elemB8de200100Ev, symObjAddr: 0x27AC, symBinAddr: 0xB954, symSize: 0x28 }
  - { offset: 0x3FB41, size: 0x8, addend: 0x0, symName: __ZNSt3__118__allocation_guardINS_9allocatorINS_20__shared_ptr_emplaceIN5flecs5worldENS1_IS4_EEEEEEED1B8de200100Ev, symObjAddr: 0x27D4, symBinAddr: 0xB97C, symSize: 0x2C }
  - { offset: 0x3FB69, size: 0x8, addend: 0x0, symName: __ZNSt3__118__allocation_guardINS_9allocatorINS_20__shared_ptr_emplaceIN5flecs5worldENS1_IS4_EEEEEEEC2B8de200100IS5_EET_m, symObjAddr: 0x2800, symBinAddr: 0xB9A8, symSize: 0x50 }
  - { offset: 0x3FBBB, size: 0x8, addend: 0x0, symName: __ZNSt3__19allocatorINS_20__shared_ptr_emplaceIN5flecs5worldENS0_IS3_EEEEEC1B8de200100IS3_EERKNS0_IT_EE, symObjAddr: 0x2850, symBinAddr: 0xB9F8, symSize: 0x34 }
  - { offset: 0x3FBF6, size: 0x8, addend: 0x0, symName: __ZNSt3__116allocator_traitsINS_9allocatorINS_20__shared_ptr_emplaceIN5flecs5worldENS1_IS4_EEEEEEE8allocateB8de200100ERS7_m, symObjAddr: 0x2884, symBinAddr: 0xBA2C, symSize: 0x2C }
  - { offset: 0x3FC28, size: 0x8, addend: 0x0, symName: __ZNSt3__19allocatorINS_20__shared_ptr_emplaceIN5flecs5worldENS0_IS3_EEEEEC2B8de200100IS3_EERKNS0_IT_EE, symObjAddr: 0x28B0, symBinAddr: 0xBA58, symSize: 0x30 }
  - { offset: 0x3FC63, size: 0x8, addend: 0x0, symName: __ZNSt3__116__non_trivial_ifILb1ENS_9allocatorINS_20__shared_ptr_emplaceIN5flecs5worldENS1_IS4_EEEEEEEC2B8de200100Ev, symObjAddr: 0x28E0, symBinAddr: 0xBA88, symSize: 0x14 }
  - { offset: 0x3FC8B, size: 0x8, addend: 0x0, symName: __ZNSt3__19allocatorINS_20__shared_ptr_emplaceIN5flecs5worldENS0_IS3_EEEEE8allocateB8de200100Em, symObjAddr: 0x28F4, symBinAddr: 0xBA9C, symSize: 0x50 }
  - { offset: 0x3FCC7, size: 0x8, addend: 0x0, symName: __ZNSt3__116allocator_traitsINS_9allocatorINS_20__shared_ptr_emplaceIN5flecs5worldENS1_IS4_EEEEEEE8max_sizeB8de200100IS7_Li0EEEmRKS7_, symObjAddr: 0x2944, symBinAddr: 0xBAEC, symSize: 0x24 }
  - { offset: 0x3FCF9, size: 0x8, addend: 0x0, symName: __ZNKSt3__19allocatorINS_20__shared_ptr_emplaceIN5flecs5worldENS0_IS3_EEEEE8max_sizeB8de200100Ev, symObjAddr: 0x2A08, symBinAddr: 0xBBB0, symSize: 0x14 }
  - { offset: 0x3FD1D, size: 0x8, addend: 0x0, symName: __ZNSt3__120__shared_ptr_emplaceIN5flecs5worldENS_9allocatorIS2_EEEC2B8de200100IJES4_Li0EEES4_DpOT_, symObjAddr: 0x2A88, symBinAddr: 0xBC30, symSize: 0xB4 }
  - { offset: 0x3FD86, size: 0x8, addend: 0x0, symName: __ZNSt3__119__shared_weak_countC2B8de200100El, symObjAddr: 0x2B3C, symBinAddr: 0xBCE4, symSize: 0x4C }
  - { offset: 0x3FDBC, size: 0x8, addend: 0x0, symName: __ZNSt3__120__shared_ptr_emplaceIN5flecs5worldENS_9allocatorIS2_EEE8_StorageC1B8de200100EOS4_, symObjAddr: 0x2B88, symBinAddr: 0xBD30, symSize: 0x34 }
  - { offset: 0x3FDF2, size: 0x8, addend: 0x0, symName: __ZNSt3__120__shared_ptr_emplaceIN5flecs5worldENS_9allocatorIS2_EEE11__get_allocB8de200100Ev, symObjAddr: 0x2BBC, symBinAddr: 0xBD64, symSize: 0x28 }
  - { offset: 0x3FE1B, size: 0x8, addend: 0x0, symName: __ZNSt3__116allocator_traitsINS_9allocatorIN5flecs5worldEEEE9constructB8de200100IS3_JELi0EEEvRS4_PT_DpOT0_, symObjAddr: 0x2BE4, symBinAddr: 0xBD8C, symSize: 0x2C }
  - { offset: 0x3FE61, size: 0x8, addend: 0x0, symName: __ZNSt3__120__shared_ptr_emplaceIN5flecs5worldENS_9allocatorIS2_EEE8_StorageD1B8de200100Ev, symObjAddr: 0x2C10, symBinAddr: 0xBDB8, symSize: 0x2C }
  - { offset: 0x3FE89, size: 0x8, addend: 0x0, symName: __ZNSt3__120__shared_ptr_emplaceIN5flecs5worldENS_9allocatorIS2_EEED1Ev, symObjAddr: 0x2C3C, symBinAddr: 0xBDE4, symSize: 0x2C }
  - { offset: 0x3FEB3, size: 0x8, addend: 0x0, symName: __ZNSt3__120__shared_ptr_emplaceIN5flecs5worldENS_9allocatorIS2_EEED0Ev, symObjAddr: 0x2C68, symBinAddr: 0xBE10, symSize: 0x30 }
  - { offset: 0x3FEDD, size: 0x8, addend: 0x0, symName: __ZNSt3__120__shared_ptr_emplaceIN5flecs5worldENS_9allocatorIS2_EEE16__on_zero_sharedEv, symObjAddr: 0x2C98, symBinAddr: 0xBE40, symSize: 0x24 }
  - { offset: 0x3FF01, size: 0x8, addend: 0x0, symName: __ZNSt3__120__shared_ptr_emplaceIN5flecs5worldENS_9allocatorIS2_EEE21__on_zero_shared_weakEv, symObjAddr: 0x2CBC, symBinAddr: 0xBE64, symSize: 0x5C }
  - { offset: 0x3FF3E, size: 0x8, addend: 0x0, symName: __ZNSt3__114__shared_countC2B8de200100El, symObjAddr: 0x2D18, symBinAddr: 0xBEC0, symSize: 0x30 }
  - { offset: 0x3FF74, size: 0x8, addend: 0x0, symName: __ZNSt3__120__shared_ptr_emplaceIN5flecs5worldENS_9allocatorIS2_EEE8_StorageC2B8de200100EOS4_, symObjAddr: 0x2D48, symBinAddr: 0xBEF0, symSize: 0x30 }
  - { offset: 0x3FFAA, size: 0x8, addend: 0x0, symName: __ZNSt3__120__shared_ptr_emplaceIN5flecs5worldENS_9allocatorIS2_EEE8_Storage11__get_allocB8de200100Ev, symObjAddr: 0x2D78, symBinAddr: 0xBF20, symSize: 0x14 }
  - { offset: 0x3FFCE, size: 0x8, addend: 0x0, symName: __ZNSt3__19allocatorIN5flecs5worldEE9constructB8de200100IS2_JEEEvPT_DpOT0_, symObjAddr: 0x2D8C, symBinAddr: 0xBF34, symSize: 0x28 }
  - { offset: 0x4000E, size: 0x8, addend: 0x0, symName: __ZN5flecs5worldC1Ev, symObjAddr: 0x2DB4, symBinAddr: 0xBF5C, symSize: 0x2C }
  - { offset: 0x40036, size: 0x8, addend: 0x0, symName: __ZN5flecs5worldC2Ev, symObjAddr: 0x2DE0, symBinAddr: 0xBF88, symSize: 0x3C }
  - { offset: 0x4005E, size: 0x8, addend: 0x0, symName: __ZN5flecs5world23init_builtin_componentsEv, symObjAddr: 0x2E1C, symBinAddr: 0xBFC4, symSize: 0x8C }
  - { offset: 0x40084, size: 0x8, addend: 0x0, symName: __ZNK5flecs5world9componentI12EcsComponentJEEENS_9componentIT_EEDpOT0_, symObjAddr: 0x2EA8, symBinAddr: 0xC050, symSize: 0x44 }
  - { offset: 0x400B6, size: 0x8, addend: 0x0, symName: __ZNK5flecs5world9componentI13EcsIdentifierJEEENS_9componentIT_EEDpOT0_, symObjAddr: 0x2EEC, symBinAddr: 0xC094, symSize: 0x44 }
  - { offset: 0x400E8, size: 0x8, addend: 0x0, symName: __ZNK5flecs5world9componentI7EcsPolyJEEENS_9componentIT_EEDpOT0_, symObjAddr: 0x2F30, symBinAddr: 0xC0D8, symSize: 0x44 }
  - { offset: 0x4011A, size: 0x8, addend: 0x0, symName: __ZN5flecs9componentI12EcsComponentEC1EP11ecs_world_tPKcby, symObjAddr: 0x345C, symBinAddr: 0xC604, symSize: 0x50 }
  - { offset: 0x4017E, size: 0x8, addend: 0x0, symName: __ZN5flecs9componentI12EcsComponentEC2EP11ecs_world_tPKcby, symObjAddr: 0x34AC, symBinAddr: 0xC654, symSize: 0x74 }
  - { offset: 0x401E2, size: 0x8, addend: 0x0, symName: __ZN5flecs17untyped_componentC2Ev, symObjAddr: 0x3520, symBinAddr: 0xC6C8, symSize: 0x2C }
  - { offset: 0x4020A, size: 0x8, addend: 0x0, symName: __ZN5flecs1_9type_implI12EcsComponentE11register_idEP11ecs_world_tPKcbbby, symObjAddr: 0x354C, symBinAddr: 0xC6F4, symSize: 0x240 }
  - { offset: 0x4029C, size: 0x8, addend: 0x0, symName: __ZN5flecs6entityC2Ev, symObjAddr: 0x378C, symBinAddr: 0xC934, symSize: 0x34 }
  - { offset: 0x402C9, size: 0x8, addend: 0x0, symName: __ZN5flecs14entity_builderINS_6entityEEC2Ev, symObjAddr: 0x37C0, symBinAddr: 0xC968, symSize: 0x2C }
  - { offset: 0x402F3, size: 0x8, addend: 0x0, symName: __ZN5flecs11entity_viewC2Ev, symObjAddr: 0x37EC, symBinAddr: 0xC994, symSize: 0x2C }
  - { offset: 0x4031B, size: 0x8, addend: 0x0, symName: __ZN5flecs2idC2Ev, symObjAddr: 0x3818, symBinAddr: 0xC9C0, symSize: 0x1C }
  - { offset: 0x40343, size: 0x8, addend: 0x0, symName: __ZN5flecs1_9type_implI12EcsComponentE4initEb, symObjAddr: 0x3834, symBinAddr: 0xC9DC, symSize: 0x60 }
  - { offset: 0x40366, size: 0x8, addend: 0x0, symName: __ZN5flecs1_9type_implI12EcsComponentE4sizeEv, symObjAddr: 0x3A00, symBinAddr: 0xCBA8, symSize: 0x9C }
  - { offset: 0x4037A, size: 0x8, addend: 0x0, symName: __ZN5flecs1_9type_implI12EcsComponentE9alignmentEv, symObjAddr: 0x3A9C, symBinAddr: 0xCC44, symSize: 0x9C }
  - { offset: 0x4038D, size: 0x8, addend: 0x0, symName: __ZN5flecs9componentI13EcsIdentifierEC1EP11ecs_world_tPKcby, symObjAddr: 0x3B60, symBinAddr: 0xCD08, symSize: 0x50 }
  - { offset: 0x403F1, size: 0x8, addend: 0x0, symName: __ZN5flecs9componentI13EcsIdentifierEC2EP11ecs_world_tPKcby, symObjAddr: 0x3BB0, symBinAddr: 0xCD58, symSize: 0x74 }
  - { offset: 0x40455, size: 0x8, addend: 0x0, symName: __ZN5flecs1_9type_implI13EcsIdentifierE11register_idEP11ecs_world_tPKcbbby, symObjAddr: 0x3C24, symBinAddr: 0xCDCC, symSize: 0x240 }
  - { offset: 0x404E7, size: 0x8, addend: 0x0, symName: __ZN5flecs1_9type_implI13EcsIdentifierE4initEb, symObjAddr: 0x3E64, symBinAddr: 0xD00C, symSize: 0x60 }
  - { offset: 0x4050A, size: 0x8, addend: 0x0, symName: __ZN5flecs1_9type_implI13EcsIdentifierE4sizeEv, symObjAddr: 0x4030, symBinAddr: 0xD1D8, symSize: 0x9C }
  - { offset: 0x4051E, size: 0x8, addend: 0x0, symName: __ZN5flecs1_9type_implI13EcsIdentifierE9alignmentEv, symObjAddr: 0x40CC, symBinAddr: 0xD274, symSize: 0x9C }
  - { offset: 0x40531, size: 0x8, addend: 0x0, symName: __ZN5flecs9componentI7EcsPolyEC1EP11ecs_world_tPKcby, symObjAddr: 0x4190, symBinAddr: 0xD338, symSize: 0x50 }
  - { offset: 0x40595, size: 0x8, addend: 0x0, symName: __ZN5flecs9componentI7EcsPolyEC2EP11ecs_world_tPKcby, symObjAddr: 0x41E0, symBinAddr: 0xD388, symSize: 0x74 }
  - { offset: 0x405F9, size: 0x8, addend: 0x0, symName: __ZN5flecs1_9type_implI7EcsPolyE11register_idEP11ecs_world_tPKcbbby, symObjAddr: 0x4254, symBinAddr: 0xD3FC, symSize: 0x240 }
  - { offset: 0x4068B, size: 0x8, addend: 0x0, symName: __ZN5flecs1_9type_implI7EcsPolyE4initEb, symObjAddr: 0x4494, symBinAddr: 0xD63C, symSize: 0x5C }
  - { offset: 0x406AE, size: 0x8, addend: 0x0, symName: __ZN5flecs1_9type_implI7EcsPolyE4sizeEv, symObjAddr: 0x465C, symBinAddr: 0xD804, symSize: 0x9C }
  - { offset: 0x406C2, size: 0x8, addend: 0x0, symName: __ZN5flecs1_9type_implI7EcsPolyE9alignmentEv, symObjAddr: 0x46F8, symBinAddr: 0xD8A0, symSize: 0x9C }
  - { offset: 0x40738, size: 0x8, addend: 0x0, symName: __ZNK5flecs5world9componentI13EcsTickSourceJRA26_KcEEENS_9componentIT_EEDpOT0_, symObjAddr: 0x47BC, symBinAddr: 0xD964, symSize: 0x48 }
  - { offset: 0x4077E, size: 0x8, addend: 0x0, symName: __ZN5flecs9componentI13EcsTickSourceEC1EP11ecs_world_tPKcby, symObjAddr: 0x4804, symBinAddr: 0xD9AC, symSize: 0x50 }
  - { offset: 0x407E2, size: 0x8, addend: 0x0, symName: __ZN5flecs9componentI13EcsTickSourceEC2EP11ecs_world_tPKcby, symObjAddr: 0x4854, symBinAddr: 0xD9FC, symSize: 0x74 }
  - { offset: 0x40846, size: 0x8, addend: 0x0, symName: __ZN5flecs1_9type_implI13EcsTickSourceE11register_idEP11ecs_world_tPKcbbby, symObjAddr: 0x48C8, symBinAddr: 0xDA70, symSize: 0x240 }
  - { offset: 0x408D8, size: 0x8, addend: 0x0, symName: __ZN5flecs1_9type_implI13EcsTickSourceE4initEb, symObjAddr: 0x4B08, symBinAddr: 0xDCB0, symSize: 0x60 }
  - { offset: 0x408FB, size: 0x8, addend: 0x0, symName: __ZN5flecs1_9type_implI13EcsTickSourceE4sizeEv, symObjAddr: 0x4CD4, symBinAddr: 0xDE7C, symSize: 0x9C }
  - { offset: 0x4090F, size: 0x8, addend: 0x0, symName: __ZN5flecs1_9type_implI13EcsTickSourceE9alignmentEv, symObjAddr: 0x4D70, symBinAddr: 0xDF18, symSize: 0x9C }
  - { offset: 0x40985, size: 0x8, addend: 0x0, symName: __ZNK5flecs5world9componentI13EcsRateFilterJRA25_KcEEENS_9componentIT_EEDpOT0_, symObjAddr: 0x4E34, symBinAddr: 0xDFDC, symSize: 0x48 }
  - { offset: 0x40A22, size: 0x8, addend: 0x0, symName: __ZNK5flecs5world9componentI8EcsTimerJRA20_KcEEENS_9componentIT_EEDpOT0_, symObjAddr: 0x4E7C, symBinAddr: 0xE024, symSize: 0x48 }
  - { offset: 0x40A68, size: 0x8, addend: 0x0, symName: __ZN5flecs9componentI13EcsRateFilterEC1EP11ecs_world_tPKcby, symObjAddr: 0x4EC4, symBinAddr: 0xE06C, symSize: 0x50 }
  - { offset: 0x40ACC, size: 0x8, addend: 0x0, symName: __ZN5flecs9componentI13EcsRateFilterEC2EP11ecs_world_tPKcby, symObjAddr: 0x4F14, symBinAddr: 0xE0BC, symSize: 0x74 }
  - { offset: 0x40B30, size: 0x8, addend: 0x0, symName: __ZN5flecs1_9type_implI13EcsRateFilterE11register_idEP11ecs_world_tPKcbbby, symObjAddr: 0x4F88, symBinAddr: 0xE130, symSize: 0x240 }
  - { offset: 0x40BC2, size: 0x8, addend: 0x0, symName: __ZN5flecs1_9type_implI13EcsRateFilterE4initEb, symObjAddr: 0x51C8, symBinAddr: 0xE370, symSize: 0x60 }
  - { offset: 0x40BE5, size: 0x8, addend: 0x0, symName: __ZN5flecs1_9type_implI13EcsRateFilterE4sizeEv, symObjAddr: 0x5394, symBinAddr: 0xE53C, symSize: 0x9C }
  - { offset: 0x40BF9, size: 0x8, addend: 0x0, symName: __ZN5flecs1_9type_implI13EcsRateFilterE9alignmentEv, symObjAddr: 0x5430, symBinAddr: 0xE5D8, symSize: 0x9C }
  - { offset: 0x40C0C, size: 0x8, addend: 0x0, symName: __ZN5flecs9componentI8EcsTimerEC1EP11ecs_world_tPKcby, symObjAddr: 0x54F4, symBinAddr: 0xE69C, symSize: 0x50 }
  - { offset: 0x40C70, size: 0x8, addend: 0x0, symName: __ZN5flecs9componentI8EcsTimerEC2EP11ecs_world_tPKcby, symObjAddr: 0x5544, symBinAddr: 0xE6EC, symSize: 0x74 }
  - { offset: 0x40CD4, size: 0x8, addend: 0x0, symName: __ZN5flecs1_9type_implI8EcsTimerE11register_idEP11ecs_world_tPKcbbby, symObjAddr: 0x55B8, symBinAddr: 0xE760, symSize: 0x240 }
  - { offset: 0x40D66, size: 0x8, addend: 0x0, symName: __ZN5flecs1_9type_implI8EcsTimerE4initEb, symObjAddr: 0x57F8, symBinAddr: 0xE9A0, symSize: 0x60 }
  - { offset: 0x40D89, size: 0x8, addend: 0x0, symName: __ZN5flecs1_9type_implI8EcsTimerE4sizeEv, symObjAddr: 0x59C4, symBinAddr: 0xEB6C, symSize: 0x9C }
  - { offset: 0x40D9D, size: 0x8, addend: 0x0, symName: __ZN5flecs1_9type_implI8EcsTimerE9alignmentEv, symObjAddr: 0x5A60, symBinAddr: 0xEC08, symSize: 0x9C }
  - { offset: 0x40E13, size: 0x8, addend: 0x0, symName: __ZNK5flecs5world9componentI17EcsDocDescriptionJRA24_KcEEENS_9componentIT_EEDpOT0_, symObjAddr: 0x5B24, symBinAddr: 0xECCC, symSize: 0x48 }
  - { offset: 0x40E59, size: 0x8, addend: 0x0, symName: __ZN5flecs9componentI17EcsDocDescriptionEC1EP11ecs_world_tPKcby, symObjAddr: 0x5B6C, symBinAddr: 0xED14, symSize: 0x50 }
  - { offset: 0x40EBD, size: 0x8, addend: 0x0, symName: __ZN5flecs9componentI17EcsDocDescriptionEC2EP11ecs_world_tPKcby, symObjAddr: 0x5BBC, symBinAddr: 0xED64, symSize: 0x74 }
  - { offset: 0x40F21, size: 0x8, addend: 0x0, symName: __ZN5flecs1_9type_implI17EcsDocDescriptionE11register_idEP11ecs_world_tPKcbbby, symObjAddr: 0x5C30, symBinAddr: 0xEDD8, symSize: 0x240 }
  - { offset: 0x40FB3, size: 0x8, addend: 0x0, symName: __ZN5flecs1_9type_implI17EcsDocDescriptionE4initEb, symObjAddr: 0x5E70, symBinAddr: 0xF018, symSize: 0x5C }
  - { offset: 0x40FD6, size: 0x8, addend: 0x0, symName: __ZN5flecs1_9type_implI17EcsDocDescriptionE4sizeEv, symObjAddr: 0x6038, symBinAddr: 0xF1E0, symSize: 0x9C }
  - { offset: 0x40FEA, size: 0x8, addend: 0x0, symName: __ZN5flecs1_9type_implI17EcsDocDescriptionE9alignmentEv, symObjAddr: 0x60D4, symBinAddr: 0xF27C, symSize: 0x9C }
  - { offset: 0x4104A, size: 0x8, addend: 0x0, symName: __ZNK5flecs5world9componentI7EcsRestJRA18_KcEEENS_9componentIT_EEDpOT0_, symObjAddr: 0x6198, symBinAddr: 0xF340, symSize: 0x48 }
  - { offset: 0x41090, size: 0x8, addend: 0x0, symName: __ZN5flecs9componentI7EcsRestEC1EP11ecs_world_tPKcby, symObjAddr: 0x61E0, symBinAddr: 0xF388, symSize: 0x50 }
  - { offset: 0x410F4, size: 0x8, addend: 0x0, symName: __ZN5flecs9componentI7EcsRestEC2EP11ecs_world_tPKcby, symObjAddr: 0x6230, symBinAddr: 0xF3D8, symSize: 0x74 }
  - { offset: 0x41158, size: 0x8, addend: 0x0, symName: __ZN5flecs1_9type_implI7EcsRestE11register_idEP11ecs_world_tPKcbbby, symObjAddr: 0x62A4, symBinAddr: 0xF44C, symSize: 0x240 }
  - { offset: 0x411EA, size: 0x8, addend: 0x0, symName: __ZN5flecs1_9type_implI7EcsRestE4initEb, symObjAddr: 0x64E4, symBinAddr: 0xF68C, symSize: 0x60 }
  - { offset: 0x4120D, size: 0x8, addend: 0x0, symName: __ZN5flecs1_9type_implI7EcsRestE4sizeEv, symObjAddr: 0x66B0, symBinAddr: 0xF858, symSize: 0x9C }
  - { offset: 0x41221, size: 0x8, addend: 0x0, symName: __ZN5flecs1_9type_implI7EcsRestE9alignmentEv, symObjAddr: 0x674C, symBinAddr: 0xF8F4, symSize: 0x9C }
  - { offset: 0x4127C, size: 0x8, addend: 0x0, symName: __ZNK5flecs5world9componentIbJRA18_KcEEENS_9componentIT_EEDpOT0_, symObjAddr: 0x6810, symBinAddr: 0xF9B8, symSize: 0x48 }
  - { offset: 0x41305, size: 0x8, addend: 0x0, symName: __ZNK5flecs5world9componentIcJRA18_KcEEENS_9componentIT_EEDpOT0_, symObjAddr: 0x6858, symBinAddr: 0xFA00, symSize: 0x48 }
  - { offset: 0x413A2, size: 0x8, addend: 0x0, symName: __ZNK5flecs5world9componentIhJRA16_KcEEENS_9componentIT_EEDpOT0_, symObjAddr: 0x68A0, symBinAddr: 0xFA48, symSize: 0x48 }
  - { offset: 0x41441, size: 0x8, addend: 0x0, symName: __ZNK5flecs5world9componentItJRA17_KcEEENS_9componentIT_EEDpOT0_, symObjAddr: 0x68E8, symBinAddr: 0xFA90, symSize: 0x48 }
  - { offset: 0x414CF, size: 0x8, addend: 0x0, symName: __ZNK5flecs5world9componentIjJRA17_KcEEENS_9componentIT_EEDpOT0_, symObjAddr: 0x6930, symBinAddr: 0xFAD8, symSize: 0x48 }
  - { offset: 0x41558, size: 0x8, addend: 0x0, symName: __ZNK5flecs5world9componentIyJRA17_KcEEENS_9componentIT_EEDpOT0_, symObjAddr: 0x6978, symBinAddr: 0xFB20, symSize: 0x48 }
  - { offset: 0x415EB, size: 0x8, addend: 0x0, symName: __ZNK5flecs5world9componentIaJRA16_KcEEENS_9componentIT_EEDpOT0_, symObjAddr: 0x69C0, symBinAddr: 0xFB68, symSize: 0x48 }
  - { offset: 0x4167E, size: 0x8, addend: 0x0, symName: __ZNK5flecs5world9componentIsJRA17_KcEEENS_9componentIT_EEDpOT0_, symObjAddr: 0x6A08, symBinAddr: 0xFBB0, symSize: 0x48 }
  - { offset: 0x4170C, size: 0x8, addend: 0x0, symName: __ZNK5flecs5world9componentIiJRA17_KcEEENS_9componentIT_EEDpOT0_, symObjAddr: 0x6A50, symBinAddr: 0xFBF8, symSize: 0x48 }
  - { offset: 0x4179F, size: 0x8, addend: 0x0, symName: __ZNK5flecs5world9componentIxJRA17_KcEEENS_9componentIT_EEDpOT0_, symObjAddr: 0x6A98, symBinAddr: 0xFC40, symSize: 0x48 }
  - { offset: 0x4182D, size: 0x8, addend: 0x0, symName: __ZNK5flecs5world9componentIfJRA17_KcEEENS_9componentIT_EEDpOT0_, symObjAddr: 0x6AE0, symBinAddr: 0xFC88, symSize: 0x48 }
  - { offset: 0x418C0, size: 0x8, addend: 0x0, symName: __ZNK5flecs5world9componentIdJRA17_KcEEENS_9componentIT_EEDpOT0_, symObjAddr: 0x6B28, symBinAddr: 0xFCD0, symSize: 0x48 }
  - { offset: 0x4195D, size: 0x8, addend: 0x0, symName: __ZNK5flecs5world9componentI15ecs_type_kind_tJRA23_KcEEENS_9componentIT_EEDpOT0_, symObjAddr: 0x6B70, symBinAddr: 0xFD18, symSize: 0x48 }
  - { offset: 0x41A06, size: 0x8, addend: 0x0, symName: __ZNK5flecs5world9componentI20ecs_primitive_kind_tJRA28_KcEEENS_9componentIT_EEDpOT0_, symObjAddr: 0x6BB8, symBinAddr: 0xFD60, symSize: 0x48 }
  - { offset: 0x41AAF, size: 0x8, addend: 0x0, symName: __ZNK5flecs5world9componentI12ecs_member_tJRA22_KcEEENS_9componentIT_EEDpOT0_, symObjAddr: 0x6C00, symBinAddr: 0xFDA8, symSize: 0x48 }
  - { offset: 0x41B58, size: 0x8, addend: 0x0, symName: __ZNK5flecs5world9componentI19ecs_enum_constant_tJRA27_KcEEENS_9componentIT_EEDpOT0_, symObjAddr: 0x6C48, symBinAddr: 0xFDF0, symSize: 0x48 }
  - { offset: 0x41C01, size: 0x8, addend: 0x0, symName: __ZNK5flecs5world9componentI22ecs_bitmask_constant_tJRA30_KcEEENS_9componentIT_EEDpOT0_, symObjAddr: 0x6C90, symBinAddr: 0xFE38, symSize: 0x48 }
  - { offset: 0x41C94, size: 0x8, addend: 0x0, symName: __ZNK5flecs5world9componentI7EcsTypeJRA18_KcEEENS_9componentIT_EEDpOT0_, symObjAddr: 0x6CD8, symBinAddr: 0xFE80, symSize: 0x48 }
  - { offset: 0x41D27, size: 0x8, addend: 0x0, symName: __ZNK5flecs5world9componentI17EcsTypeSerializerJRA28_KcEEENS_9componentIT_EEDpOT0_, symObjAddr: 0x6D20, symBinAddr: 0xFEC8, symSize: 0x48 }
  - { offset: 0x41DBA, size: 0x8, addend: 0x0, symName: __ZNK5flecs5world9componentI12EcsPrimitiveJRA23_KcEEENS_9componentIT_EEDpOT0_, symObjAddr: 0x6D68, symBinAddr: 0xFF10, symSize: 0x48 }
  - { offset: 0x41E4D, size: 0x8, addend: 0x0, symName: __ZNK5flecs5world9componentI7EcsEnumJRA18_KcEEENS_9componentIT_EEDpOT0_, symObjAddr: 0x6DB0, symBinAddr: 0xFF58, symSize: 0x48 }
  - { offset: 0x41EEA, size: 0x8, addend: 0x0, symName: __ZNK5flecs5world9componentI10EcsBitmaskJRA21_KcEEENS_9componentIT_EEDpOT0_, symObjAddr: 0x6DF8, symBinAddr: 0xFFA0, symSize: 0x48 }
  - { offset: 0x41F7D, size: 0x8, addend: 0x0, symName: __ZNK5flecs5world9componentI9EcsMemberJRA20_KcEEENS_9componentIT_EEDpOT0_, symObjAddr: 0x6E40, symBinAddr: 0xFFE8, symSize: 0x48 }
  - { offset: 0x42010, size: 0x8, addend: 0x0, symName: __ZNK5flecs5world9componentI15EcsMemberRangesJRA27_KcEEENS_9componentIT_EEDpOT0_, symObjAddr: 0x6E88, symBinAddr: 0x10030, symSize: 0x48 }
  - { offset: 0x420A3, size: 0x8, addend: 0x0, symName: __ZNK5flecs5world9componentI9EcsStructJRA20_KcEEENS_9componentIT_EEDpOT0_, symObjAddr: 0x6ED0, symBinAddr: 0x10078, symSize: 0x48 }
  - { offset: 0x42140, size: 0x8, addend: 0x0, symName: __ZNK5flecs5world9componentI8EcsArrayJRA19_KcEEENS_9componentIT_EEDpOT0_, symObjAddr: 0x6F18, symBinAddr: 0x100C0, symSize: 0x48 }
  - { offset: 0x421D3, size: 0x8, addend: 0x0, symName: __ZNK5flecs5world9componentI9EcsVectorJRA20_KcEEENS_9componentIT_EEDpOT0_, symObjAddr: 0x6F60, symBinAddr: 0x10108, symSize: 0x48 }
  - { offset: 0x42266, size: 0x8, addend: 0x0, symName: __ZNK5flecs5world9componentI7EcsUnitJRA18_KcEEENS_9componentIT_EEDpOT0_, symObjAddr: 0x6FA8, symBinAddr: 0x10150, symSize: 0x48 }
  - { offset: 0x422AC, size: 0x8, addend: 0x0, symName: __ZN5flecs1_9type_implIlE12init_builtinEP11ecs_world_tyb, symObjAddr: 0x6FF0, symBinAddr: 0x10198, symSize: 0x48 }
  - { offset: 0x422EA, size: 0x8, addend: 0x0, symName: __ZNK5flecs5worldcvP11ecs_world_tEv, symObjAddr: 0x7038, symBinAddr: 0x101E0, symSize: 0x18 }
  - { offset: 0x4230E, size: 0x8, addend: 0x0, symName: __ZN5flecs1_9type_implImE12init_builtinEP11ecs_world_tyb, symObjAddr: 0x7050, symBinAddr: 0x101F8, symSize: 0x48 }
  - { offset: 0x42356, size: 0x8, addend: 0x0, symName: __ZNK5flecs5world6entityIJRA13_KcEEENS_6entityEDpOT_, symObjAddr: 0x7098, symBinAddr: 0x10240, symSize: 0x3C }
  - { offset: 0x42393, size: 0x8, addend: 0x0, symName: __ZNK5flecs14entity_builderINS_6entityEE3addEy, symObjAddr: 0x70D4, symBinAddr: 0x1027C, symSize: 0x40 }
  - { offset: 0x423CF, size: 0x8, addend: 0x0, symName: __ZNK5flecs14entity_builderINS_6entityEE5scopeIZNS_4meta1_4initERNS_5worldEEUlvE_EERKS1_RKT_, symObjAddr: 0x7114, symBinAddr: 0x102BC, symSize: 0x58 }
  - { offset: 0x4241B, size: 0x8, addend: 0x0, symName: __ZN5flecs9componentIbEC1EP11ecs_world_tPKcby, symObjAddr: 0x716C, symBinAddr: 0x10314, symSize: 0x50 }
  - { offset: 0x4247F, size: 0x8, addend: 0x0, symName: __ZN5flecs9componentIbEC2EP11ecs_world_tPKcby, symObjAddr: 0x71BC, symBinAddr: 0x10364, symSize: 0x74 }
  - { offset: 0x424E3, size: 0x8, addend: 0x0, symName: __ZN5flecs1_9type_implIbE11register_idEP11ecs_world_tPKcbbby, symObjAddr: 0x7230, symBinAddr: 0x103D8, symSize: 0x240 }
  - { offset: 0x42575, size: 0x8, addend: 0x0, symName: __ZN5flecs1_9type_implIbE4initEb, symObjAddr: 0x7470, symBinAddr: 0x10618, symSize: 0x5C }
  - { offset: 0x42598, size: 0x8, addend: 0x0, symName: __ZN5flecs1_9type_implIbE4sizeEv, symObjAddr: 0x7638, symBinAddr: 0x107E0, symSize: 0x9C }
  - { offset: 0x425AC, size: 0x8, addend: 0x0, symName: __ZN5flecs1_9type_implIbE9alignmentEv, symObjAddr: 0x76D4, symBinAddr: 0x1087C, symSize: 0x9C }
  - { offset: 0x425BF, size: 0x8, addend: 0x0, symName: __ZN5flecs9componentIcEC1EP11ecs_world_tPKcby, symObjAddr: 0x7798, symBinAddr: 0x10940, symSize: 0x50 }
  - { offset: 0x42623, size: 0x8, addend: 0x0, symName: __ZN5flecs9componentIcEC2EP11ecs_world_tPKcby, symObjAddr: 0x77E8, symBinAddr: 0x10990, symSize: 0x74 }
  - { offset: 0x42687, size: 0x8, addend: 0x0, symName: __ZN5flecs1_9type_implIcE11register_idEP11ecs_world_tPKcbbby, symObjAddr: 0x785C, symBinAddr: 0x10A04, symSize: 0x240 }
  - { offset: 0x42719, size: 0x8, addend: 0x0, symName: __ZN5flecs1_9type_implIcE4initEb, symObjAddr: 0x7A9C, symBinAddr: 0x10C44, symSize: 0x5C }
  - { offset: 0x4273C, size: 0x8, addend: 0x0, symName: __ZN5flecs1_9type_implIcE4sizeEv, symObjAddr: 0x7C64, symBinAddr: 0x10E0C, symSize: 0x9C }
  - { offset: 0x42750, size: 0x8, addend: 0x0, symName: __ZN5flecs1_9type_implIcE9alignmentEv, symObjAddr: 0x7D00, symBinAddr: 0x10EA8, symSize: 0x9C }
  - { offset: 0x42763, size: 0x8, addend: 0x0, symName: __ZN5flecs9componentIhEC1EP11ecs_world_tPKcby, symObjAddr: 0x7DC4, symBinAddr: 0x10F6C, symSize: 0x50 }
  - { offset: 0x427C7, size: 0x8, addend: 0x0, symName: __ZN5flecs9componentIhEC2EP11ecs_world_tPKcby, symObjAddr: 0x7E14, symBinAddr: 0x10FBC, symSize: 0x74 }
  - { offset: 0x4282B, size: 0x8, addend: 0x0, symName: __ZN5flecs1_9type_implIhE11register_idEP11ecs_world_tPKcbbby, symObjAddr: 0x7E88, symBinAddr: 0x11030, symSize: 0x240 }
  - { offset: 0x428BD, size: 0x8, addend: 0x0, symName: __ZN5flecs1_9type_implIhE4initEb, symObjAddr: 0x80C8, symBinAddr: 0x11270, symSize: 0x5C }
  - { offset: 0x428E0, size: 0x8, addend: 0x0, symName: __ZN5flecs1_9type_implIhE4sizeEv, symObjAddr: 0x81E4, symBinAddr: 0x1138C, symSize: 0x9C }
  - { offset: 0x428F4, size: 0x8, addend: 0x0, symName: __ZN5flecs1_9type_implIhE9alignmentEv, symObjAddr: 0x8280, symBinAddr: 0x11428, symSize: 0x9C }
  - { offset: 0x42907, size: 0x8, addend: 0x0, symName: __ZN5flecs9componentItEC1EP11ecs_world_tPKcby, symObjAddr: 0x8344, symBinAddr: 0x114EC, symSize: 0x50 }
  - { offset: 0x4296B, size: 0x8, addend: 0x0, symName: __ZN5flecs9componentItEC2EP11ecs_world_tPKcby, symObjAddr: 0x8394, symBinAddr: 0x1153C, symSize: 0x74 }
  - { offset: 0x429CF, size: 0x8, addend: 0x0, symName: __ZN5flecs1_9type_implItE11register_idEP11ecs_world_tPKcbbby, symObjAddr: 0x8408, symBinAddr: 0x115B0, symSize: 0x240 }
  - { offset: 0x42A61, size: 0x8, addend: 0x0, symName: __ZN5flecs1_9type_implItE4initEb, symObjAddr: 0x8648, symBinAddr: 0x117F0, symSize: 0x5C }
  - { offset: 0x42A84, size: 0x8, addend: 0x0, symName: __ZN5flecs1_9type_implItE4sizeEv, symObjAddr: 0x8764, symBinAddr: 0x1190C, symSize: 0x9C }
  - { offset: 0x42A98, size: 0x8, addend: 0x0, symName: __ZN5flecs1_9type_implItE9alignmentEv, symObjAddr: 0x8800, symBinAddr: 0x119A8, symSize: 0x9C }
  - { offset: 0x42AAB, size: 0x8, addend: 0x0, symName: __ZN5flecs9componentIjEC1EP11ecs_world_tPKcby, symObjAddr: 0x88C4, symBinAddr: 0x11A6C, symSize: 0x50 }
  - { offset: 0x42B0F, size: 0x8, addend: 0x0, symName: __ZN5flecs9componentIjEC2EP11ecs_world_tPKcby, symObjAddr: 0x8914, symBinAddr: 0x11ABC, symSize: 0x74 }
  - { offset: 0x42B73, size: 0x8, addend: 0x0, symName: __ZN5flecs1_9type_implIjE11register_idEP11ecs_world_tPKcbbby, symObjAddr: 0x8988, symBinAddr: 0x11B30, symSize: 0x240 }
  - { offset: 0x42C05, size: 0x8, addend: 0x0, symName: __ZN5flecs1_9type_implIjE4initEb, symObjAddr: 0x8BC8, symBinAddr: 0x11D70, symSize: 0x5C }
  - { offset: 0x42C28, size: 0x8, addend: 0x0, symName: __ZN5flecs1_9type_implIjE4sizeEv, symObjAddr: 0x8CE4, symBinAddr: 0x11E8C, symSize: 0x9C }
  - { offset: 0x42C3C, size: 0x8, addend: 0x0, symName: __ZN5flecs1_9type_implIjE9alignmentEv, symObjAddr: 0x8D80, symBinAddr: 0x11F28, symSize: 0x9C }
  - { offset: 0x42C4F, size: 0x8, addend: 0x0, symName: __ZN5flecs9componentIyEC1EP11ecs_world_tPKcby, symObjAddr: 0x8E44, symBinAddr: 0x11FEC, symSize: 0x50 }
  - { offset: 0x42CB3, size: 0x8, addend: 0x0, symName: __ZN5flecs9componentIyEC2EP11ecs_world_tPKcby, symObjAddr: 0x8E94, symBinAddr: 0x1203C, symSize: 0x74 }
  - { offset: 0x42D17, size: 0x8, addend: 0x0, symName: __ZN5flecs1_9type_implIyE11register_idEP11ecs_world_tPKcbbby, symObjAddr: 0x8F08, symBinAddr: 0x120B0, symSize: 0x240 }
  - { offset: 0x42DA9, size: 0x8, addend: 0x0, symName: __ZN5flecs1_9type_implIyE4initEb, symObjAddr: 0x9148, symBinAddr: 0x122F0, symSize: 0x5C }
  - { offset: 0x42DCC, size: 0x8, addend: 0x0, symName: __ZN5flecs1_9type_implIyE4sizeEv, symObjAddr: 0x9264, symBinAddr: 0x1240C, symSize: 0x9C }
  - { offset: 0x42DE0, size: 0x8, addend: 0x0, symName: __ZN5flecs1_9type_implIyE9alignmentEv, symObjAddr: 0x9300, symBinAddr: 0x124A8, symSize: 0x9C }
  - { offset: 0x42DF3, size: 0x8, addend: 0x0, symName: __ZN5flecs9componentIaEC1EP11ecs_world_tPKcby, symObjAddr: 0x93C4, symBinAddr: 0x1256C, symSize: 0x50 }
  - { offset: 0x42E57, size: 0x8, addend: 0x0, symName: __ZN5flecs9componentIaEC2EP11ecs_world_tPKcby, symObjAddr: 0x9414, symBinAddr: 0x125BC, symSize: 0x74 }
  - { offset: 0x42EBB, size: 0x8, addend: 0x0, symName: __ZN5flecs1_9type_implIaE11register_idEP11ecs_world_tPKcbbby, symObjAddr: 0x9488, symBinAddr: 0x12630, symSize: 0x240 }
  - { offset: 0x42F4D, size: 0x8, addend: 0x0, symName: __ZN5flecs1_9type_implIaE4initEb, symObjAddr: 0x96C8, symBinAddr: 0x12870, symSize: 0x5C }
  - { offset: 0x42F70, size: 0x8, addend: 0x0, symName: __ZN5flecs1_9type_implIaE4sizeEv, symObjAddr: 0x97E4, symBinAddr: 0x1298C, symSize: 0x9C }
  - { offset: 0x42F84, size: 0x8, addend: 0x0, symName: __ZN5flecs1_9type_implIaE9alignmentEv, symObjAddr: 0x9880, symBinAddr: 0x12A28, symSize: 0x9C }
  - { offset: 0x42F97, size: 0x8, addend: 0x0, symName: __ZN5flecs9componentIsEC1EP11ecs_world_tPKcby, symObjAddr: 0x9944, symBinAddr: 0x12AEC, symSize: 0x50 }
  - { offset: 0x42FFB, size: 0x8, addend: 0x0, symName: __ZN5flecs9componentIsEC2EP11ecs_world_tPKcby, symObjAddr: 0x9994, symBinAddr: 0x12B3C, symSize: 0x74 }
  - { offset: 0x4305F, size: 0x8, addend: 0x0, symName: __ZN5flecs1_9type_implIsE11register_idEP11ecs_world_tPKcbbby, symObjAddr: 0x9A08, symBinAddr: 0x12BB0, symSize: 0x240 }
  - { offset: 0x430F1, size: 0x8, addend: 0x0, symName: __ZN5flecs1_9type_implIsE4initEb, symObjAddr: 0x9C48, symBinAddr: 0x12DF0, symSize: 0x5C }
  - { offset: 0x43114, size: 0x8, addend: 0x0, symName: __ZN5flecs1_9type_implIsE4sizeEv, symObjAddr: 0x9D64, symBinAddr: 0x12F0C, symSize: 0x9C }
  - { offset: 0x43128, size: 0x8, addend: 0x0, symName: __ZN5flecs1_9type_implIsE9alignmentEv, symObjAddr: 0x9E00, symBinAddr: 0x12FA8, symSize: 0x9C }
  - { offset: 0x4313B, size: 0x8, addend: 0x0, symName: __ZN5flecs9componentIiEC1EP11ecs_world_tPKcby, symObjAddr: 0x9EC4, symBinAddr: 0x1306C, symSize: 0x50 }
  - { offset: 0x4319F, size: 0x8, addend: 0x0, symName: __ZN5flecs9componentIiEC2EP11ecs_world_tPKcby, symObjAddr: 0x9F14, symBinAddr: 0x130BC, symSize: 0x74 }
  - { offset: 0x43203, size: 0x8, addend: 0x0, symName: __ZN5flecs1_9type_implIiE11register_idEP11ecs_world_tPKcbbby, symObjAddr: 0x9F88, symBinAddr: 0x13130, symSize: 0x240 }
  - { offset: 0x43295, size: 0x8, addend: 0x0, symName: __ZN5flecs1_9type_implIiE4initEb, symObjAddr: 0xA1C8, symBinAddr: 0x13370, symSize: 0x5C }
  - { offset: 0x432B8, size: 0x8, addend: 0x0, symName: __ZN5flecs1_9type_implIiE4sizeEv, symObjAddr: 0xA2E4, symBinAddr: 0x1348C, symSize: 0x9C }
  - { offset: 0x432CC, size: 0x8, addend: 0x0, symName: __ZN5flecs1_9type_implIiE9alignmentEv, symObjAddr: 0xA380, symBinAddr: 0x13528, symSize: 0x9C }
  - { offset: 0x432DF, size: 0x8, addend: 0x0, symName: __ZN5flecs9componentIxEC1EP11ecs_world_tPKcby, symObjAddr: 0xA444, symBinAddr: 0x135EC, symSize: 0x50 }
  - { offset: 0x43343, size: 0x8, addend: 0x0, symName: __ZN5flecs9componentIxEC2EP11ecs_world_tPKcby, symObjAddr: 0xA494, symBinAddr: 0x1363C, symSize: 0x74 }
  - { offset: 0x433A7, size: 0x8, addend: 0x0, symName: __ZN5flecs1_9type_implIxE11register_idEP11ecs_world_tPKcbbby, symObjAddr: 0xA508, symBinAddr: 0x136B0, symSize: 0x240 }
  - { offset: 0x43439, size: 0x8, addend: 0x0, symName: __ZN5flecs1_9type_implIxE4initEb, symObjAddr: 0xA748, symBinAddr: 0x138F0, symSize: 0x5C }
  - { offset: 0x4345C, size: 0x8, addend: 0x0, symName: __ZN5flecs1_9type_implIxE4sizeEv, symObjAddr: 0xA864, symBinAddr: 0x13A0C, symSize: 0x9C }
  - { offset: 0x43470, size: 0x8, addend: 0x0, symName: __ZN5flecs1_9type_implIxE9alignmentEv, symObjAddr: 0xA900, symBinAddr: 0x13AA8, symSize: 0x9C }
  - { offset: 0x43483, size: 0x8, addend: 0x0, symName: __ZN5flecs9componentIfEC1EP11ecs_world_tPKcby, symObjAddr: 0xA9C4, symBinAddr: 0x13B6C, symSize: 0x50 }
  - { offset: 0x434E7, size: 0x8, addend: 0x0, symName: __ZN5flecs9componentIfEC2EP11ecs_world_tPKcby, symObjAddr: 0xAA14, symBinAddr: 0x13BBC, symSize: 0x74 }
  - { offset: 0x4354B, size: 0x8, addend: 0x0, symName: __ZN5flecs1_9type_implIfE11register_idEP11ecs_world_tPKcbbby, symObjAddr: 0xAA88, symBinAddr: 0x13C30, symSize: 0x240 }
  - { offset: 0x435DD, size: 0x8, addend: 0x0, symName: __ZN5flecs1_9type_implIfE4initEb, symObjAddr: 0xACC8, symBinAddr: 0x13E70, symSize: 0x5C }
  - { offset: 0x43600, size: 0x8, addend: 0x0, symName: __ZN5flecs1_9type_implIfE4sizeEv, symObjAddr: 0xADE4, symBinAddr: 0x13F8C, symSize: 0x9C }
  - { offset: 0x43614, size: 0x8, addend: 0x0, symName: __ZN5flecs1_9type_implIfE9alignmentEv, symObjAddr: 0xAE80, symBinAddr: 0x14028, symSize: 0x9C }
  - { offset: 0x43627, size: 0x8, addend: 0x0, symName: __ZN5flecs9componentIdEC1EP11ecs_world_tPKcby, symObjAddr: 0xAF44, symBinAddr: 0x140EC, symSize: 0x50 }
  - { offset: 0x4368B, size: 0x8, addend: 0x0, symName: __ZN5flecs9componentIdEC2EP11ecs_world_tPKcby, symObjAddr: 0xAF94, symBinAddr: 0x1413C, symSize: 0x74 }
  - { offset: 0x436EF, size: 0x8, addend: 0x0, symName: __ZN5flecs1_9type_implIdE11register_idEP11ecs_world_tPKcbbby, symObjAddr: 0xB008, symBinAddr: 0x141B0, symSize: 0x240 }
  - { offset: 0x43781, size: 0x8, addend: 0x0, symName: __ZN5flecs1_9type_implIdE4initEb, symObjAddr: 0xB248, symBinAddr: 0x143F0, symSize: 0x5C }
  - { offset: 0x437A4, size: 0x8, addend: 0x0, symName: __ZN5flecs1_9type_implIdE4sizeEv, symObjAddr: 0xB364, symBinAddr: 0x1450C, symSize: 0x9C }
  - { offset: 0x437B8, size: 0x8, addend: 0x0, symName: __ZN5flecs1_9type_implIdE9alignmentEv, symObjAddr: 0xB400, symBinAddr: 0x145A8, symSize: 0x9C }
  - { offset: 0x437CB, size: 0x8, addend: 0x0, symName: __ZN5flecs9componentI15ecs_type_kind_tEC1EP11ecs_world_tPKcby, symObjAddr: 0xB4C4, symBinAddr: 0x1466C, symSize: 0x50 }
  - { offset: 0x4382F, size: 0x8, addend: 0x0, symName: __ZN5flecs9componentI15ecs_type_kind_tEC2EP11ecs_world_tPKcby, symObjAddr: 0xB514, symBinAddr: 0x146BC, symSize: 0x74 }
  - { offset: 0x43893, size: 0x8, addend: 0x0, symName: __ZN5flecs1_9type_implI15ecs_type_kind_tE11register_idEP11ecs_world_tPKcbbby, symObjAddr: 0xB588, symBinAddr: 0x14730, symSize: 0x240 }
  - { offset: 0x43925, size: 0x8, addend: 0x0, symName: __ZN5flecs1_9type_implI15ecs_type_kind_tE4initEb, symObjAddr: 0xB7C8, symBinAddr: 0x14970, symSize: 0x5C }
  - { offset: 0x43948, size: 0x8, addend: 0x0, symName: __ZN5flecs1_9type_implI15ecs_type_kind_tE4sizeEv, symObjAddr: 0xB990, symBinAddr: 0x14B38, symSize: 0x9C }
  - { offset: 0x4395C, size: 0x8, addend: 0x0, symName: __ZN5flecs1_9type_implI15ecs_type_kind_tE9alignmentEv, symObjAddr: 0xBA2C, symBinAddr: 0x14BD4, symSize: 0x9C }
  - { offset: 0x4396F, size: 0x8, addend: 0x0, symName: __ZN5flecs1_9enum_typeI15ecs_type_kind_tE18register_for_worldEP11ecs_world_ty, symObjAddr: 0xBB98, symBinAddr: 0x14D40, symSize: 0x164 }
  - { offset: 0x439EF, size: 0x8, addend: 0x0, symName: __ZN5flecs1_9enum_typeI15ecs_type_kind_tEC1Ev, symObjAddr: 0xBCFC, symBinAddr: 0x14EA4, symSize: 0x2C }
  - { offset: 0x43A17, size: 0x8, addend: 0x0, symName: __ZN5flecs1_9enum_typeI15ecs_type_kind_tEC2Ev, symObjAddr: 0xBD28, symBinAddr: 0x14ED0, symSize: 0x8C }
  - { offset: 0x43A44, size: 0x8, addend: 0x0, symName: __ZN5flecs1_15enum_reflectionI15ecs_type_kind_tNS0_9enum_typeIS2_E15reflection_initEE9each_enumILj6EJS4_EEEjDpRT0_, symObjAddr: 0xBDB4, symBinAddr: 0x14F5C, symSize: 0x30 }
  - { offset: 0x43A7C, size: 0x8, addend: 0x0, symName: __ZN5flecs1_15enum_reflectionI15ecs_type_kind_tNS0_9enum_typeIS2_E15reflection_initEE15each_mask_rangeILj6ELj2147483648EJS4_EEEjjDpRT1_, symObjAddr: 0xBDE4, symBinAddr: 0x14F8C, symSize: 0x34 }
  - { offset: 0x43ACF, size: 0x8, addend: 0x0, symName: __ZN5flecs1_15enum_reflectionI15ecs_type_kind_tNS0_9enum_typeIS2_E15reflection_initEE15each_enum_rangeILj0ELj6EJS4_EEEjjDpRT1_, symObjAddr: 0xBE18, symBinAddr: 0x14FC0, symSize: 0x34 }
  - { offset: 0x43B24, size: 0x8, addend: 0x0, symName: __ZN5flecs1_9enum_typeI15ecs_type_kind_tE15reflection_init15handle_constantILj2147483648ELi0EEEjjRS3_, symObjAddr: 0xBE4C, symBinAddr: 0x14FF4, symSize: 0x18 }
  - { offset: 0x43B66, size: 0x8, addend: 0x0, symName: __ZN5flecs1_15enum_reflectionI15ecs_type_kind_tNS0_9enum_typeIS2_E15reflection_initEE15each_mask_rangeILj6ELj1073741824EJS4_EEEjjDpRT1_, symObjAddr: 0xBE64, symBinAddr: 0x1500C, symSize: 0x34 }
  - { offset: 0x43BBA, size: 0x8, addend: 0x0, symName: __ZN5flecs1_9enum_typeI15ecs_type_kind_tE15reflection_init15handle_constantILj1073741824ELi0EEEjjRS3_, symObjAddr: 0xBE98, symBinAddr: 0x15040, symSize: 0x18 }
  - { offset: 0x43BFC, size: 0x8, addend: 0x0, symName: __ZN5flecs1_15enum_reflectionI15ecs_type_kind_tNS0_9enum_typeIS2_E15reflection_initEE15each_mask_rangeILj6ELj536870912EJS4_EEEjjDpRT1_, symObjAddr: 0xBEB0, symBinAddr: 0x15058, symSize: 0x34 }
  - { offset: 0x43C50, size: 0x8, addend: 0x0, symName: __ZN5flecs1_9enum_typeI15ecs_type_kind_tE15reflection_init15handle_constantILj536870912ELi0EEEjjRS3_, symObjAddr: 0xBEE4, symBinAddr: 0x1508C, symSize: 0x18 }
  - { offset: 0x43C92, size: 0x8, addend: 0x0, symName: __ZN5flecs1_15enum_reflectionI15ecs_type_kind_tNS0_9enum_typeIS2_E15reflection_initEE15each_mask_rangeILj6ELj268435456EJS4_EEEjjDpRT1_, symObjAddr: 0xBEFC, symBinAddr: 0x150A4, symSize: 0x34 }
  - { offset: 0x43CE6, size: 0x8, addend: 0x0, symName: __ZN5flecs1_9enum_typeI15ecs_type_kind_tE15reflection_init15handle_constantILj268435456ELi0EEEjjRS3_, symObjAddr: 0xBF30, symBinAddr: 0x150D8, symSize: 0x18 }
  - { offset: 0x43D28, size: 0x8, addend: 0x0, symName: __ZN5flecs1_15enum_reflectionI15ecs_type_kind_tNS0_9enum_typeIS2_E15reflection_initEE15each_mask_rangeILj6ELj134217728EJS4_EEEjjDpRT1_, symObjAddr: 0xBF48, symBinAddr: 0x150F0, symSize: 0x34 }
  - { offset: 0x43D7B, size: 0x8, addend: 0x0, symName: __ZN5flecs1_9enum_typeI15ecs_type_kind_tE15reflection_init15handle_constantILj134217728ELi0EEEjjRS3_, symObjAddr: 0xBF7C, symBinAddr: 0x15124, symSize: 0x18 }
  - { offset: 0x43DBC, size: 0x8, addend: 0x0, symName: __ZN5flecs1_15enum_reflectionI15ecs_type_kind_tNS0_9enum_typeIS2_E15reflection_initEE15each_mask_rangeILj6ELj67108864EJS4_EEEjjDpRT1_, symObjAddr: 0xBF94, symBinAddr: 0x1513C, symSize: 0x34 }
  - { offset: 0x43E0F, size: 0x8, addend: 0x0, symName: __ZN5flecs1_9enum_typeI15ecs_type_kind_tE15reflection_init15handle_constantILj67108864ELi0EEEjjRS3_, symObjAddr: 0xBFC8, symBinAddr: 0x15170, symSize: 0x18 }
  - { offset: 0x43E50, size: 0x8, addend: 0x0, symName: __ZN5flecs1_15enum_reflectionI15ecs_type_kind_tNS0_9enum_typeIS2_E15reflection_initEE15each_mask_rangeILj6ELj33554432EJS4_EEEjjDpRT1_, symObjAddr: 0xBFE0, symBinAddr: 0x15188, symSize: 0x34 }
  - { offset: 0x43EA3, size: 0x8, addend: 0x0, symName: __ZN5flecs1_9enum_typeI15ecs_type_kind_tE15reflection_init15handle_constantILj33554432ELi0EEEjjRS3_, symObjAddr: 0xC014, symBinAddr: 0x151BC, symSize: 0x18 }
  - { offset: 0x43EE4, size: 0x8, addend: 0x0, symName: __ZN5flecs1_15enum_reflectionI15ecs_type_kind_tNS0_9enum_typeIS2_E15reflection_initEE15each_mask_rangeILj6ELj16777216EJS4_EEEjjDpRT1_, symObjAddr: 0xC02C, symBinAddr: 0x151D4, symSize: 0x34 }
  - { offset: 0x43F37, size: 0x8, addend: 0x0, symName: __ZN5flecs1_9enum_typeI15ecs_type_kind_tE15reflection_init15handle_constantILj16777216ELi0EEEjjRS3_, symObjAddr: 0xC060, symBinAddr: 0x15208, symSize: 0x18 }
  - { offset: 0x43F78, size: 0x8, addend: 0x0, symName: __ZN5flecs1_15enum_reflectionI15ecs_type_kind_tNS0_9enum_typeIS2_E15reflection_initEE15each_mask_rangeILj6ELj8388608EJS4_EEEjjDpRT1_, symObjAddr: 0xC078, symBinAddr: 0x15220, symSize: 0x34 }
  - { offset: 0x43FCB, size: 0x8, addend: 0x0, symName: __ZN5flecs1_9enum_typeI15ecs_type_kind_tE15reflection_init15handle_constantILj8388608ELi0EEEjjRS3_, symObjAddr: 0xC0AC, symBinAddr: 0x15254, symSize: 0x18 }
  - { offset: 0x4400C, size: 0x8, addend: 0x0, symName: __ZN5flecs1_15enum_reflectionI15ecs_type_kind_tNS0_9enum_typeIS2_E15reflection_initEE15each_mask_rangeILj6ELj4194304EJS4_EEEjjDpRT1_, symObjAddr: 0xC0C4, symBinAddr: 0x1526C, symSize: 0x34 }
  - { offset: 0x4405F, size: 0x8, addend: 0x0, symName: __ZN5flecs1_9enum_typeI15ecs_type_kind_tE15reflection_init15handle_constantILj4194304ELi0EEEjjRS3_, symObjAddr: 0xC0F8, symBinAddr: 0x152A0, symSize: 0x18 }
  - { offset: 0x440A0, size: 0x8, addend: 0x0, symName: __ZN5flecs1_15enum_reflectionI15ecs_type_kind_tNS0_9enum_typeIS2_E15reflection_initEE15each_mask_rangeILj6ELj2097152EJS4_EEEjjDpRT1_, symObjAddr: 0xC110, symBinAddr: 0x152B8, symSize: 0x34 }
  - { offset: 0x440F3, size: 0x8, addend: 0x0, symName: __ZN5flecs1_9enum_typeI15ecs_type_kind_tE15reflection_init15handle_constantILj2097152ELi0EEEjjRS3_, symObjAddr: 0xC144, symBinAddr: 0x152EC, symSize: 0x18 }
  - { offset: 0x44134, size: 0x8, addend: 0x0, symName: __ZN5flecs1_15enum_reflectionI15ecs_type_kind_tNS0_9enum_typeIS2_E15reflection_initEE15each_mask_rangeILj6ELj1048576EJS4_EEEjjDpRT1_, symObjAddr: 0xC15C, symBinAddr: 0x15304, symSize: 0x34 }
  - { offset: 0x44186, size: 0x8, addend: 0x0, symName: __ZN5flecs1_9enum_typeI15ecs_type_kind_tE15reflection_init15handle_constantILj1048576ELi0EEEjjRS3_, symObjAddr: 0xC190, symBinAddr: 0x15338, symSize: 0x18 }
  - { offset: 0x441C6, size: 0x8, addend: 0x0, symName: __ZN5flecs1_15enum_reflectionI15ecs_type_kind_tNS0_9enum_typeIS2_E15reflection_initEE15each_mask_rangeILj6ELj524288EJS4_EEEjjDpRT1_, symObjAddr: 0xC1A8, symBinAddr: 0x15350, symSize: 0x34 }
  - { offset: 0x44218, size: 0x8, addend: 0x0, symName: __ZN5flecs1_9enum_typeI15ecs_type_kind_tE15reflection_init15handle_constantILj524288ELi0EEEjjRS3_, symObjAddr: 0xC1DC, symBinAddr: 0x15384, symSize: 0x18 }
  - { offset: 0x44258, size: 0x8, addend: 0x0, symName: __ZN5flecs1_15enum_reflectionI15ecs_type_kind_tNS0_9enum_typeIS2_E15reflection_initEE15each_mask_rangeILj6ELj262144EJS4_EEEjjDpRT1_, symObjAddr: 0xC1F4, symBinAddr: 0x1539C, symSize: 0x34 }
  - { offset: 0x442AA, size: 0x8, addend: 0x0, symName: __ZN5flecs1_9enum_typeI15ecs_type_kind_tE15reflection_init15handle_constantILj262144ELi0EEEjjRS3_, symObjAddr: 0xC228, symBinAddr: 0x153D0, symSize: 0x18 }
  - { offset: 0x442EA, size: 0x8, addend: 0x0, symName: __ZN5flecs1_15enum_reflectionI15ecs_type_kind_tNS0_9enum_typeIS2_E15reflection_initEE15each_mask_rangeILj6ELj131072EJS4_EEEjjDpRT1_, symObjAddr: 0xC240, symBinAddr: 0x153E8, symSize: 0x34 }
  - { offset: 0x4433C, size: 0x8, addend: 0x0, symName: __ZN5flecs1_9enum_typeI15ecs_type_kind_tE15reflection_init15handle_constantILj131072ELi0EEEjjRS3_, symObjAddr: 0xC274, symBinAddr: 0x1541C, symSize: 0x18 }
  - { offset: 0x4437C, size: 0x8, addend: 0x0, symName: __ZN5flecs1_15enum_reflectionI15ecs_type_kind_tNS0_9enum_typeIS2_E15reflection_initEE15each_mask_rangeILj6ELj65536EJS4_EEEjjDpRT1_, symObjAddr: 0xC28C, symBinAddr: 0x15434, symSize: 0x34 }
  - { offset: 0x443CE, size: 0x8, addend: 0x0, symName: __ZN5flecs1_9enum_typeI15ecs_type_kind_tE15reflection_init15handle_constantILj65536ELi0EEEjjRS3_, symObjAddr: 0xC2C0, symBinAddr: 0x15468, symSize: 0x18 }
  - { offset: 0x4440E, size: 0x8, addend: 0x0, symName: __ZN5flecs1_15enum_reflectionI15ecs_type_kind_tNS0_9enum_typeIS2_E15reflection_initEE15each_mask_rangeILj6ELj32768EJS4_EEEjjDpRT1_, symObjAddr: 0xC2D8, symBinAddr: 0x15480, symSize: 0x34 }
  - { offset: 0x44460, size: 0x8, addend: 0x0, symName: __ZN5flecs1_9enum_typeI15ecs_type_kind_tE15reflection_init15handle_constantILj32768ELi0EEEjjRS3_, symObjAddr: 0xC30C, symBinAddr: 0x154B4, symSize: 0x18 }
  - { offset: 0x444A0, size: 0x8, addend: 0x0, symName: __ZN5flecs1_15enum_reflectionI15ecs_type_kind_tNS0_9enum_typeIS2_E15reflection_initEE15each_mask_rangeILj6ELj16384EJS4_EEEjjDpRT1_, symObjAddr: 0xC324, symBinAddr: 0x154CC, symSize: 0x34 }
  - { offset: 0x444F2, size: 0x8, addend: 0x0, symName: __ZN5flecs1_9enum_typeI15ecs_type_kind_tE15reflection_init15handle_constantILj16384ELi0EEEjjRS3_, symObjAddr: 0xC358, symBinAddr: 0x15500, symSize: 0x18 }
  - { offset: 0x44532, size: 0x8, addend: 0x0, symName: __ZN5flecs1_15enum_reflectionI15ecs_type_kind_tNS0_9enum_typeIS2_E15reflection_initEE15each_mask_rangeILj6ELj8192EJS4_EEEjjDpRT1_, symObjAddr: 0xC370, symBinAddr: 0x15518, symSize: 0x34 }
  - { offset: 0x44583, size: 0x8, addend: 0x0, symName: __ZN5flecs1_9enum_typeI15ecs_type_kind_tE15reflection_init15handle_constantILj8192ELi0EEEjjRS3_, symObjAddr: 0xC3A4, symBinAddr: 0x1554C, symSize: 0x18 }
  - { offset: 0x445C2, size: 0x8, addend: 0x0, symName: __ZN5flecs1_15enum_reflectionI15ecs_type_kind_tNS0_9enum_typeIS2_E15reflection_initEE15each_mask_rangeILj6ELj4096EJS4_EEEjjDpRT1_, symObjAddr: 0xC3BC, symBinAddr: 0x15564, symSize: 0x34 }
  - { offset: 0x44613, size: 0x8, addend: 0x0, symName: __ZN5flecs1_9enum_typeI15ecs_type_kind_tE15reflection_init15handle_constantILj4096ELi0EEEjjRS3_, symObjAddr: 0xC3F0, symBinAddr: 0x15598, symSize: 0x18 }
  - { offset: 0x44652, size: 0x8, addend: 0x0, symName: __ZN5flecs1_15enum_reflectionI15ecs_type_kind_tNS0_9enum_typeIS2_E15reflection_initEE15each_mask_rangeILj6ELj2048EJS4_EEEjjDpRT1_, symObjAddr: 0xC408, symBinAddr: 0x155B0, symSize: 0x34 }
  - { offset: 0x446A3, size: 0x8, addend: 0x0, symName: __ZN5flecs1_9enum_typeI15ecs_type_kind_tE15reflection_init15handle_constantILj2048ELi0EEEjjRS3_, symObjAddr: 0xC43C, symBinAddr: 0x155E4, symSize: 0x18 }
  - { offset: 0x446E2, size: 0x8, addend: 0x0, symName: __ZN5flecs1_15enum_reflectionI15ecs_type_kind_tNS0_9enum_typeIS2_E15reflection_initEE15each_mask_rangeILj6ELj1024EJS4_EEEjjDpRT1_, symObjAddr: 0xC454, symBinAddr: 0x155FC, symSize: 0x34 }
  - { offset: 0x44733, size: 0x8, addend: 0x0, symName: __ZN5flecs1_9enum_typeI15ecs_type_kind_tE15reflection_init15handle_constantILj1024ELi0EEEjjRS3_, symObjAddr: 0xC488, symBinAddr: 0x15630, symSize: 0x18 }
  - { offset: 0x44772, size: 0x8, addend: 0x0, symName: __ZN5flecs1_15enum_reflectionI15ecs_type_kind_tNS0_9enum_typeIS2_E15reflection_initEE15each_mask_rangeILj6ELj512EJS4_EEEjjDpRT1_, symObjAddr: 0xC4A0, symBinAddr: 0x15648, symSize: 0x34 }
  - { offset: 0x447C3, size: 0x8, addend: 0x0, symName: __ZN5flecs1_9enum_typeI15ecs_type_kind_tE15reflection_init15handle_constantILj512ELi0EEEjjRS3_, symObjAddr: 0xC4D4, symBinAddr: 0x1567C, symSize: 0x18 }
  - { offset: 0x44802, size: 0x8, addend: 0x0, symName: __ZN5flecs1_15enum_reflectionI15ecs_type_kind_tNS0_9enum_typeIS2_E15reflection_initEE15each_mask_rangeILj6ELj256EJS4_EEEjjDpRT1_, symObjAddr: 0xC4EC, symBinAddr: 0x15694, symSize: 0x34 }
  - { offset: 0x44853, size: 0x8, addend: 0x0, symName: __ZN5flecs1_9enum_typeI15ecs_type_kind_tE15reflection_init15handle_constantILj256ELi0EEEjjRS3_, symObjAddr: 0xC520, symBinAddr: 0x156C8, symSize: 0x18 }
  - { offset: 0x44892, size: 0x8, addend: 0x0, symName: __ZN5flecs1_15enum_reflectionI15ecs_type_kind_tNS0_9enum_typeIS2_E15reflection_initEE15each_mask_rangeILj6ELj128EJS4_EEEjjDpRT1_, symObjAddr: 0xC538, symBinAddr: 0x156E0, symSize: 0x34 }
  - { offset: 0x448E3, size: 0x8, addend: 0x0, symName: __ZN5flecs1_9enum_typeI15ecs_type_kind_tE15reflection_init15handle_constantILj128ELi0EEEjjRS3_, symObjAddr: 0xC56C, symBinAddr: 0x15714, symSize: 0x18 }
  - { offset: 0x44922, size: 0x8, addend: 0x0, symName: __ZN5flecs1_15enum_reflectionI15ecs_type_kind_tNS0_9enum_typeIS2_E15reflection_initEE15each_mask_rangeILj6ELj64EJS4_EEEjjDpRT1_, symObjAddr: 0xC584, symBinAddr: 0x1572C, symSize: 0x34 }
  - { offset: 0x44972, size: 0x8, addend: 0x0, symName: __ZN5flecs1_9enum_typeI15ecs_type_kind_tE15reflection_init15handle_constantILj64ELi0EEEjjRS3_, symObjAddr: 0xC5B8, symBinAddr: 0x15760, symSize: 0x18 }
  - { offset: 0x449B0, size: 0x8, addend: 0x0, symName: __ZN5flecs1_15enum_reflectionI15ecs_type_kind_tNS0_9enum_typeIS2_E15reflection_initEE15each_mask_rangeILj6ELj32EJS4_EEEjjDpRT1_, symObjAddr: 0xC5D0, symBinAddr: 0x15778, symSize: 0x34 }
  - { offset: 0x44A00, size: 0x8, addend: 0x0, symName: __ZN5flecs1_9enum_typeI15ecs_type_kind_tE15reflection_init15handle_constantILj32ELi0EEEjjRS3_, symObjAddr: 0xC604, symBinAddr: 0x157AC, symSize: 0x18 }
  - { offset: 0x44A3E, size: 0x8, addend: 0x0, symName: __ZN5flecs1_15enum_reflectionI15ecs_type_kind_tNS0_9enum_typeIS2_E15reflection_initEE15each_mask_rangeILj6ELj16EJS4_EEEjjDpRT1_, symObjAddr: 0xC61C, symBinAddr: 0x157C4, symSize: 0x34 }
  - { offset: 0x44A8E, size: 0x8, addend: 0x0, symName: __ZN5flecs1_9enum_typeI15ecs_type_kind_tE15reflection_init15handle_constantILj16ELi0EEEjjRS3_, symObjAddr: 0xC650, symBinAddr: 0x157F8, symSize: 0x18 }
  - { offset: 0x44ACC, size: 0x8, addend: 0x0, symName: __ZN5flecs1_15enum_reflectionI15ecs_type_kind_tNS0_9enum_typeIS2_E15reflection_initEE15each_mask_rangeILj6ELj8EJS4_EEEjjDpRT1_, symObjAddr: 0xC668, symBinAddr: 0x15810, symSize: 0x34 }
  - { offset: 0x44B1C, size: 0x8, addend: 0x0, symName: __ZN5flecs1_9enum_typeI15ecs_type_kind_tE15reflection_init15handle_constantILj8ELi0EEEjjRS3_, symObjAddr: 0xC69C, symBinAddr: 0x15844, symSize: 0x18 }
  - { offset: 0x44B5B, size: 0x8, addend: 0x0, symName: __ZN5flecs1_15enum_reflectionI15ecs_type_kind_tNS0_9enum_typeIS2_E15reflection_initEE15each_mask_rangeILj6ELj4EJS4_EEEjjDpRT1_, symObjAddr: 0xC6B4, symBinAddr: 0x1585C, symSize: 0x18 }
  - { offset: 0x44BAA, size: 0x8, addend: 0x0, symName: __ZN5flecs1_15enum_reflectionI15ecs_type_kind_tNS0_9enum_typeIS2_E15reflection_initEE15each_enum_rangeILj4ELj6EJS4_EEEjjDpRT1_, symObjAddr: 0xC6CC, symBinAddr: 0x15874, symSize: 0x34 }
  - { offset: 0x44BF9, size: 0x8, addend: 0x0, symName: __ZN5flecs1_15enum_reflectionI15ecs_type_kind_tNS0_9enum_typeIS2_E15reflection_initEE15each_enum_rangeILj0ELj3EJS4_EEEjjDpRT1_, symObjAddr: 0xC700, symBinAddr: 0x158A8, symSize: 0x34 }
  - { offset: 0x44C48, size: 0x8, addend: 0x0, symName: __ZN5flecs1_15enum_reflectionI15ecs_type_kind_tNS0_9enum_typeIS2_E15reflection_initEE15each_enum_rangeILj6ELj6EJS4_EEEjjDpRT1_, symObjAddr: 0xC734, symBinAddr: 0x158DC, symSize: 0x2C }
  - { offset: 0x44C97, size: 0x8, addend: 0x0, symName: __ZN5flecs1_15enum_reflectionI15ecs_type_kind_tNS0_9enum_typeIS2_E15reflection_initEE15each_enum_rangeILj4ELj5EJS4_EEEjjDpRT1_, symObjAddr: 0xC760, symBinAddr: 0x15908, symSize: 0x34 }
  - { offset: 0x44CE6, size: 0x8, addend: 0x0, symName: __ZN5flecs1_9enum_typeI15ecs_type_kind_tE15reflection_init15handle_constantILj6ELi0EEEjjRS3_, symObjAddr: 0xC794, symBinAddr: 0x1593C, symSize: 0x254 }
  - { offset: 0x44D49, size: 0x8, addend: 0x0, symName: __ZNSt3__114numeric_limitsIjE3minB8de200100Ev, symObjAddr: 0xCA28, symBinAddr: 0x15BD0, symSize: 0x14 }
  - { offset: 0x44D62, size: 0x8, addend: 0x0, symName: __ZN5flecs6string6lengthILm87EEEmRAT__Kc, symObjAddr: 0xCA3C, symBinAddr: 0x15BE4, symSize: 0x14 }
  - { offset: 0x44D8A, size: 0x8, addend: 0x0, symName: __ZNSt3__123__libcpp_numeric_limitsIjLb1EE3minB8de200100Ev, symObjAddr: 0xCA50, symBinAddr: 0x15BF8, symSize: 0x8 }
  - { offset: 0x44D9D, size: 0x8, addend: 0x0, symName: __ZN5flecs1_9enum_typeI15ecs_type_kind_tE15reflection_init15handle_constantILj5ELi0EEEjjRS3_, symObjAddr: 0xCA58, symBinAddr: 0x15C00, symSize: 0x254 }
  - { offset: 0x44DFF, size: 0x8, addend: 0x0, symName: __ZN5flecs1_9enum_typeI15ecs_type_kind_tE15reflection_init15handle_constantILj4ELi0EEEjjRS3_, symObjAddr: 0xCCAC, symBinAddr: 0x15E54, symSize: 0x254 }
  - { offset: 0x44E67, size: 0x8, addend: 0x0, symName: __ZN5flecs6string6lengthILm86EEEmRAT__Kc, symObjAddr: 0xCF80, symBinAddr: 0x16128, symSize: 0x14 }
  - { offset: 0x44E8F, size: 0x8, addend: 0x0, symName: __ZN5flecs1_15enum_reflectionI15ecs_type_kind_tNS0_9enum_typeIS2_E15reflection_initEE15each_enum_rangeILj2ELj3EJS4_EEEjjDpRT1_, symObjAddr: 0xCF94, symBinAddr: 0x1613C, symSize: 0x34 }
  - { offset: 0x44EDE, size: 0x8, addend: 0x0, symName: __ZN5flecs1_15enum_reflectionI15ecs_type_kind_tNS0_9enum_typeIS2_E15reflection_initEE15each_enum_rangeILj0ELj1EJS4_EEEjjDpRT1_, symObjAddr: 0xCFC8, symBinAddr: 0x16170, symSize: 0x34 }
  - { offset: 0x44F2D, size: 0x8, addend: 0x0, symName: __ZN5flecs1_9enum_typeI15ecs_type_kind_tE15reflection_init15handle_constantILj3ELi0EEEjjRS3_, symObjAddr: 0xCFFC, symBinAddr: 0x161A4, symSize: 0x254 }
  - { offset: 0x44F8F, size: 0x8, addend: 0x0, symName: __ZN5flecs1_9enum_typeI15ecs_type_kind_tE15reflection_init15handle_constantILj2ELi0EEEjjRS3_, symObjAddr: 0xD250, symBinAddr: 0x163F8, symSize: 0x254 }
  - { offset: 0x44FF7, size: 0x8, addend: 0x0, symName: __ZN5flecs6string6lengthILm85EEEmRAT__Kc, symObjAddr: 0xD524, symBinAddr: 0x166CC, symSize: 0x14 }
  - { offset: 0x4501F, size: 0x8, addend: 0x0, symName: __ZN5flecs1_9enum_typeI15ecs_type_kind_tE15reflection_init15handle_constantILj1ELi0EEEjjRS3_, symObjAddr: 0xD538, symBinAddr: 0x166E0, symSize: 0x254 }
  - { offset: 0x45081, size: 0x8, addend: 0x0, symName: __ZN5flecs1_9enum_typeI15ecs_type_kind_tE15reflection_init15handle_constantILj0ELi0EEEjjRS3_, symObjAddr: 0xD78C, symBinAddr: 0x16934, symSize: 0x250 }
  - { offset: 0x450E9, size: 0x8, addend: 0x0, symName: __ZN5flecs6string6lengthILm88EEEmRAT__Kc, symObjAddr: 0xDA1C, symBinAddr: 0x16BC4, symSize: 0x14 }
  - { offset: 0x45117, size: 0x8, addend: 0x0, symName: __ZN5flecs6string6lengthILm90EEEmRAT__Kc, symObjAddr: 0xDA70, symBinAddr: 0x16C18, symSize: 0x14 }
  - { offset: 0x4513F, size: 0x8, addend: 0x0, symName: __ZN5flecs1_9type_implIjE2idEP11ecs_world_t, symObjAddr: 0xDA84, symBinAddr: 0x16C2C, symSize: 0x70 }
  - { offset: 0x4516F, size: 0x8, addend: 0x0, symName: __ZN5flecs1_9type_implI15ecs_type_kind_tE2idEP11ecs_world_t, symObjAddr: 0xDAF4, symBinAddr: 0x16C9C, symSize: 0x70 }
  - { offset: 0x4519F, size: 0x8, addend: 0x0, symName: __ZN5flecs9componentI20ecs_primitive_kind_tEC1EP11ecs_world_tPKcby, symObjAddr: 0xDB64, symBinAddr: 0x16D0C, symSize: 0x50 }
  - { offset: 0x45203, size: 0x8, addend: 0x0, symName: __ZN5flecs9componentI20ecs_primitive_kind_tEC2EP11ecs_world_tPKcby, symObjAddr: 0xDBB4, symBinAddr: 0x16D5C, symSize: 0x74 }
  - { offset: 0x45267, size: 0x8, addend: 0x0, symName: __ZN5flecs1_9type_implI20ecs_primitive_kind_tE11register_idEP11ecs_world_tPKcbbby, symObjAddr: 0xDC28, symBinAddr: 0x16DD0, symSize: 0x240 }
  - { offset: 0x452F9, size: 0x8, addend: 0x0, symName: __ZN5flecs1_9type_implI20ecs_primitive_kind_tE4initEb, symObjAddr: 0xDE68, symBinAddr: 0x17010, symSize: 0x5C }
  - { offset: 0x4531C, size: 0x8, addend: 0x0, symName: __ZN5flecs1_9type_implI20ecs_primitive_kind_tE4sizeEv, symObjAddr: 0xE030, symBinAddr: 0x171D8, symSize: 0x9C }
  - { offset: 0x45330, size: 0x8, addend: 0x0, symName: __ZN5flecs1_9type_implI20ecs_primitive_kind_tE9alignmentEv, symObjAddr: 0xE0CC, symBinAddr: 0x17274, symSize: 0x9C }
  - { offset: 0x45343, size: 0x8, addend: 0x0, symName: __ZN5flecs1_9enum_typeI20ecs_primitive_kind_tE18register_for_worldEP11ecs_world_ty, symObjAddr: 0xE238, symBinAddr: 0x173E0, symSize: 0x164 }
  - { offset: 0x453C3, size: 0x8, addend: 0x0, symName: __ZN5flecs1_9enum_typeI20ecs_primitive_kind_tEC1Ev, symObjAddr: 0xE39C, symBinAddr: 0x17544, symSize: 0x2C }
  - { offset: 0x453EB, size: 0x8, addend: 0x0, symName: __ZN5flecs1_9enum_typeI20ecs_primitive_kind_tEC2Ev, symObjAddr: 0xE3C8, symBinAddr: 0x17570, symSize: 0x8C }
  - { offset: 0x45418, size: 0x8, addend: 0x0, symName: __ZN5flecs1_15enum_reflectionI20ecs_primitive_kind_tNS0_9enum_typeIS2_E15reflection_initEE9each_enumILj18EJS4_EEEjDpRT0_, symObjAddr: 0xE454, symBinAddr: 0x175FC, symSize: 0x30 }
  - { offset: 0x45450, size: 0x8, addend: 0x0, symName: __ZN5flecs1_15enum_reflectionI20ecs_primitive_kind_tNS0_9enum_typeIS2_E15reflection_initEE15each_mask_rangeILj18ELj2147483648EJS4_EEEjjDpRT1_, symObjAddr: 0xE484, symBinAddr: 0x1762C, symSize: 0x34 }
  - { offset: 0x454A3, size: 0x8, addend: 0x0, symName: __ZN5flecs1_15enum_reflectionI20ecs_primitive_kind_tNS0_9enum_typeIS2_E15reflection_initEE15each_enum_rangeILj0ELj18EJS4_EEEjjDpRT1_, symObjAddr: 0xE4B8, symBinAddr: 0x17660, symSize: 0x34 }
  - { offset: 0x454F8, size: 0x8, addend: 0x0, symName: __ZN5flecs1_9enum_typeI20ecs_primitive_kind_tE15reflection_init15handle_constantILj2147483648ELi0EEEjjRS3_, symObjAddr: 0xE4EC, symBinAddr: 0x17694, symSize: 0x18 }
  - { offset: 0x4553A, size: 0x8, addend: 0x0, symName: __ZN5flecs1_15enum_reflectionI20ecs_primitive_kind_tNS0_9enum_typeIS2_E15reflection_initEE15each_mask_rangeILj18ELj1073741824EJS4_EEEjjDpRT1_, symObjAddr: 0xE504, symBinAddr: 0x176AC, symSize: 0x34 }
  - { offset: 0x4558E, size: 0x8, addend: 0x0, symName: __ZN5flecs1_9enum_typeI20ecs_primitive_kind_tE15reflection_init15handle_constantILj1073741824ELi0EEEjjRS3_, symObjAddr: 0xE538, symBinAddr: 0x176E0, symSize: 0x18 }
  - { offset: 0x455D0, size: 0x8, addend: 0x0, symName: __ZN5flecs1_15enum_reflectionI20ecs_primitive_kind_tNS0_9enum_typeIS2_E15reflection_initEE15each_mask_rangeILj18ELj536870912EJS4_EEEjjDpRT1_, symObjAddr: 0xE550, symBinAddr: 0x176F8, symSize: 0x34 }
  - { offset: 0x45624, size: 0x8, addend: 0x0, symName: __ZN5flecs1_9enum_typeI20ecs_primitive_kind_tE15reflection_init15handle_constantILj536870912ELi0EEEjjRS3_, symObjAddr: 0xE584, symBinAddr: 0x1772C, symSize: 0x18 }
  - { offset: 0x45666, size: 0x8, addend: 0x0, symName: __ZN5flecs1_15enum_reflectionI20ecs_primitive_kind_tNS0_9enum_typeIS2_E15reflection_initEE15each_mask_rangeILj18ELj268435456EJS4_EEEjjDpRT1_, symObjAddr: 0xE59C, symBinAddr: 0x17744, symSize: 0x34 }
  - { offset: 0x456BA, size: 0x8, addend: 0x0, symName: __ZN5flecs1_9enum_typeI20ecs_primitive_kind_tE15reflection_init15handle_constantILj268435456ELi0EEEjjRS3_, symObjAddr: 0xE5D0, symBinAddr: 0x17778, symSize: 0x18 }
  - { offset: 0x456FC, size: 0x8, addend: 0x0, symName: __ZN5flecs1_15enum_reflectionI20ecs_primitive_kind_tNS0_9enum_typeIS2_E15reflection_initEE15each_mask_rangeILj18ELj134217728EJS4_EEEjjDpRT1_, symObjAddr: 0xE5E8, symBinAddr: 0x17790, symSize: 0x34 }
  - { offset: 0x4574F, size: 0x8, addend: 0x0, symName: __ZN5flecs1_9enum_typeI20ecs_primitive_kind_tE15reflection_init15handle_constantILj134217728ELi0EEEjjRS3_, symObjAddr: 0xE61C, symBinAddr: 0x177C4, symSize: 0x18 }
  - { offset: 0x45790, size: 0x8, addend: 0x0, symName: __ZN5flecs1_15enum_reflectionI20ecs_primitive_kind_tNS0_9enum_typeIS2_E15reflection_initEE15each_mask_rangeILj18ELj67108864EJS4_EEEjjDpRT1_, symObjAddr: 0xE634, symBinAddr: 0x177DC, symSize: 0x34 }
  - { offset: 0x457E3, size: 0x8, addend: 0x0, symName: __ZN5flecs1_9enum_typeI20ecs_primitive_kind_tE15reflection_init15handle_constantILj67108864ELi0EEEjjRS3_, symObjAddr: 0xE668, symBinAddr: 0x17810, symSize: 0x18 }
  - { offset: 0x45824, size: 0x8, addend: 0x0, symName: __ZN5flecs1_15enum_reflectionI20ecs_primitive_kind_tNS0_9enum_typeIS2_E15reflection_initEE15each_mask_rangeILj18ELj33554432EJS4_EEEjjDpRT1_, symObjAddr: 0xE680, symBinAddr: 0x17828, symSize: 0x34 }
  - { offset: 0x45877, size: 0x8, addend: 0x0, symName: __ZN5flecs1_9enum_typeI20ecs_primitive_kind_tE15reflection_init15handle_constantILj33554432ELi0EEEjjRS3_, symObjAddr: 0xE6B4, symBinAddr: 0x1785C, symSize: 0x18 }
  - { offset: 0x458B8, size: 0x8, addend: 0x0, symName: __ZN5flecs1_15enum_reflectionI20ecs_primitive_kind_tNS0_9enum_typeIS2_E15reflection_initEE15each_mask_rangeILj18ELj16777216EJS4_EEEjjDpRT1_, symObjAddr: 0xE6CC, symBinAddr: 0x17874, symSize: 0x34 }
  - { offset: 0x4590B, size: 0x8, addend: 0x0, symName: __ZN5flecs1_9enum_typeI20ecs_primitive_kind_tE15reflection_init15handle_constantILj16777216ELi0EEEjjRS3_, symObjAddr: 0xE700, symBinAddr: 0x178A8, symSize: 0x18 }
  - { offset: 0x4594C, size: 0x8, addend: 0x0, symName: __ZN5flecs1_15enum_reflectionI20ecs_primitive_kind_tNS0_9enum_typeIS2_E15reflection_initEE15each_mask_rangeILj18ELj8388608EJS4_EEEjjDpRT1_, symObjAddr: 0xE718, symBinAddr: 0x178C0, symSize: 0x34 }
  - { offset: 0x4599F, size: 0x8, addend: 0x0, symName: __ZN5flecs1_9enum_typeI20ecs_primitive_kind_tE15reflection_init15handle_constantILj8388608ELi0EEEjjRS3_, symObjAddr: 0xE74C, symBinAddr: 0x178F4, symSize: 0x18 }
  - { offset: 0x459E0, size: 0x8, addend: 0x0, symName: __ZN5flecs1_15enum_reflectionI20ecs_primitive_kind_tNS0_9enum_typeIS2_E15reflection_initEE15each_mask_rangeILj18ELj4194304EJS4_EEEjjDpRT1_, symObjAddr: 0xE764, symBinAddr: 0x1790C, symSize: 0x34 }
  - { offset: 0x45A33, size: 0x8, addend: 0x0, symName: __ZN5flecs1_9enum_typeI20ecs_primitive_kind_tE15reflection_init15handle_constantILj4194304ELi0EEEjjRS3_, symObjAddr: 0xE798, symBinAddr: 0x17940, symSize: 0x18 }
  - { offset: 0x45A74, size: 0x8, addend: 0x0, symName: __ZN5flecs1_15enum_reflectionI20ecs_primitive_kind_tNS0_9enum_typeIS2_E15reflection_initEE15each_mask_rangeILj18ELj2097152EJS4_EEEjjDpRT1_, symObjAddr: 0xE7B0, symBinAddr: 0x17958, symSize: 0x34 }
  - { offset: 0x45AC7, size: 0x8, addend: 0x0, symName: __ZN5flecs1_9enum_typeI20ecs_primitive_kind_tE15reflection_init15handle_constantILj2097152ELi0EEEjjRS3_, symObjAddr: 0xE7E4, symBinAddr: 0x1798C, symSize: 0x18 }
  - { offset: 0x45B08, size: 0x8, addend: 0x0, symName: __ZN5flecs1_15enum_reflectionI20ecs_primitive_kind_tNS0_9enum_typeIS2_E15reflection_initEE15each_mask_rangeILj18ELj1048576EJS4_EEEjjDpRT1_, symObjAddr: 0xE7FC, symBinAddr: 0x179A4, symSize: 0x34 }
  - { offset: 0x45B5A, size: 0x8, addend: 0x0, symName: __ZN5flecs1_9enum_typeI20ecs_primitive_kind_tE15reflection_init15handle_constantILj1048576ELi0EEEjjRS3_, symObjAddr: 0xE830, symBinAddr: 0x179D8, symSize: 0x18 }
  - { offset: 0x45B9A, size: 0x8, addend: 0x0, symName: __ZN5flecs1_15enum_reflectionI20ecs_primitive_kind_tNS0_9enum_typeIS2_E15reflection_initEE15each_mask_rangeILj18ELj524288EJS4_EEEjjDpRT1_, symObjAddr: 0xE848, symBinAddr: 0x179F0, symSize: 0x34 }
  - { offset: 0x45BEC, size: 0x8, addend: 0x0, symName: __ZN5flecs1_9enum_typeI20ecs_primitive_kind_tE15reflection_init15handle_constantILj524288ELi0EEEjjRS3_, symObjAddr: 0xE87C, symBinAddr: 0x17A24, symSize: 0x18 }
  - { offset: 0x45C2C, size: 0x8, addend: 0x0, symName: __ZN5flecs1_15enum_reflectionI20ecs_primitive_kind_tNS0_9enum_typeIS2_E15reflection_initEE15each_mask_rangeILj18ELj262144EJS4_EEEjjDpRT1_, symObjAddr: 0xE894, symBinAddr: 0x17A3C, symSize: 0x34 }
  - { offset: 0x45C7E, size: 0x8, addend: 0x0, symName: __ZN5flecs1_9enum_typeI20ecs_primitive_kind_tE15reflection_init15handle_constantILj262144ELi0EEEjjRS3_, symObjAddr: 0xE8C8, symBinAddr: 0x17A70, symSize: 0x18 }
  - { offset: 0x45CBE, size: 0x8, addend: 0x0, symName: __ZN5flecs1_15enum_reflectionI20ecs_primitive_kind_tNS0_9enum_typeIS2_E15reflection_initEE15each_mask_rangeILj18ELj131072EJS4_EEEjjDpRT1_, symObjAddr: 0xE8E0, symBinAddr: 0x17A88, symSize: 0x34 }
  - { offset: 0x45D10, size: 0x8, addend: 0x0, symName: __ZN5flecs1_9enum_typeI20ecs_primitive_kind_tE15reflection_init15handle_constantILj131072ELi0EEEjjRS3_, symObjAddr: 0xE914, symBinAddr: 0x17ABC, symSize: 0x18 }
  - { offset: 0x45D50, size: 0x8, addend: 0x0, symName: __ZN5flecs1_15enum_reflectionI20ecs_primitive_kind_tNS0_9enum_typeIS2_E15reflection_initEE15each_mask_rangeILj18ELj65536EJS4_EEEjjDpRT1_, symObjAddr: 0xE92C, symBinAddr: 0x17AD4, symSize: 0x34 }
  - { offset: 0x45DA2, size: 0x8, addend: 0x0, symName: __ZN5flecs1_9enum_typeI20ecs_primitive_kind_tE15reflection_init15handle_constantILj65536ELi0EEEjjRS3_, symObjAddr: 0xE960, symBinAddr: 0x17B08, symSize: 0x18 }
  - { offset: 0x45DE2, size: 0x8, addend: 0x0, symName: __ZN5flecs1_15enum_reflectionI20ecs_primitive_kind_tNS0_9enum_typeIS2_E15reflection_initEE15each_mask_rangeILj18ELj32768EJS4_EEEjjDpRT1_, symObjAddr: 0xE978, symBinAddr: 0x17B20, symSize: 0x34 }
  - { offset: 0x45E34, size: 0x8, addend: 0x0, symName: __ZN5flecs1_9enum_typeI20ecs_primitive_kind_tE15reflection_init15handle_constantILj32768ELi0EEEjjRS3_, symObjAddr: 0xE9AC, symBinAddr: 0x17B54, symSize: 0x18 }
  - { offset: 0x45E74, size: 0x8, addend: 0x0, symName: __ZN5flecs1_15enum_reflectionI20ecs_primitive_kind_tNS0_9enum_typeIS2_E15reflection_initEE15each_mask_rangeILj18ELj16384EJS4_EEEjjDpRT1_, symObjAddr: 0xE9C4, symBinAddr: 0x17B6C, symSize: 0x34 }
  - { offset: 0x45EC6, size: 0x8, addend: 0x0, symName: __ZN5flecs1_9enum_typeI20ecs_primitive_kind_tE15reflection_init15handle_constantILj16384ELi0EEEjjRS3_, symObjAddr: 0xE9F8, symBinAddr: 0x17BA0, symSize: 0x18 }
  - { offset: 0x45F06, size: 0x8, addend: 0x0, symName: __ZN5flecs1_15enum_reflectionI20ecs_primitive_kind_tNS0_9enum_typeIS2_E15reflection_initEE15each_mask_rangeILj18ELj8192EJS4_EEEjjDpRT1_, symObjAddr: 0xEA10, symBinAddr: 0x17BB8, symSize: 0x34 }
  - { offset: 0x45F57, size: 0x8, addend: 0x0, symName: __ZN5flecs1_9enum_typeI20ecs_primitive_kind_tE15reflection_init15handle_constantILj8192ELi0EEEjjRS3_, symObjAddr: 0xEA44, symBinAddr: 0x17BEC, symSize: 0x18 }
  - { offset: 0x45F96, size: 0x8, addend: 0x0, symName: __ZN5flecs1_15enum_reflectionI20ecs_primitive_kind_tNS0_9enum_typeIS2_E15reflection_initEE15each_mask_rangeILj18ELj4096EJS4_EEEjjDpRT1_, symObjAddr: 0xEA5C, symBinAddr: 0x17C04, symSize: 0x34 }
  - { offset: 0x45FE7, size: 0x8, addend: 0x0, symName: __ZN5flecs1_9enum_typeI20ecs_primitive_kind_tE15reflection_init15handle_constantILj4096ELi0EEEjjRS3_, symObjAddr: 0xEA90, symBinAddr: 0x17C38, symSize: 0x18 }
  - { offset: 0x46026, size: 0x8, addend: 0x0, symName: __ZN5flecs1_15enum_reflectionI20ecs_primitive_kind_tNS0_9enum_typeIS2_E15reflection_initEE15each_mask_rangeILj18ELj2048EJS4_EEEjjDpRT1_, symObjAddr: 0xEAA8, symBinAddr: 0x17C50, symSize: 0x34 }
  - { offset: 0x46077, size: 0x8, addend: 0x0, symName: __ZN5flecs1_9enum_typeI20ecs_primitive_kind_tE15reflection_init15handle_constantILj2048ELi0EEEjjRS3_, symObjAddr: 0xEADC, symBinAddr: 0x17C84, symSize: 0x18 }
  - { offset: 0x460B6, size: 0x8, addend: 0x0, symName: __ZN5flecs1_15enum_reflectionI20ecs_primitive_kind_tNS0_9enum_typeIS2_E15reflection_initEE15each_mask_rangeILj18ELj1024EJS4_EEEjjDpRT1_, symObjAddr: 0xEAF4, symBinAddr: 0x17C9C, symSize: 0x34 }
  - { offset: 0x46107, size: 0x8, addend: 0x0, symName: __ZN5flecs1_9enum_typeI20ecs_primitive_kind_tE15reflection_init15handle_constantILj1024ELi0EEEjjRS3_, symObjAddr: 0xEB28, symBinAddr: 0x17CD0, symSize: 0x18 }
  - { offset: 0x46146, size: 0x8, addend: 0x0, symName: __ZN5flecs1_15enum_reflectionI20ecs_primitive_kind_tNS0_9enum_typeIS2_E15reflection_initEE15each_mask_rangeILj18ELj512EJS4_EEEjjDpRT1_, symObjAddr: 0xEB40, symBinAddr: 0x17CE8, symSize: 0x34 }
  - { offset: 0x46197, size: 0x8, addend: 0x0, symName: __ZN5flecs1_9enum_typeI20ecs_primitive_kind_tE15reflection_init15handle_constantILj512ELi0EEEjjRS3_, symObjAddr: 0xEB74, symBinAddr: 0x17D1C, symSize: 0x18 }
  - { offset: 0x461D6, size: 0x8, addend: 0x0, symName: __ZN5flecs1_15enum_reflectionI20ecs_primitive_kind_tNS0_9enum_typeIS2_E15reflection_initEE15each_mask_rangeILj18ELj256EJS4_EEEjjDpRT1_, symObjAddr: 0xEB8C, symBinAddr: 0x17D34, symSize: 0x34 }
  - { offset: 0x46227, size: 0x8, addend: 0x0, symName: __ZN5flecs1_9enum_typeI20ecs_primitive_kind_tE15reflection_init15handle_constantILj256ELi0EEEjjRS3_, symObjAddr: 0xEBC0, symBinAddr: 0x17D68, symSize: 0x18 }
  - { offset: 0x46266, size: 0x8, addend: 0x0, symName: __ZN5flecs1_15enum_reflectionI20ecs_primitive_kind_tNS0_9enum_typeIS2_E15reflection_initEE15each_mask_rangeILj18ELj128EJS4_EEEjjDpRT1_, symObjAddr: 0xEBD8, symBinAddr: 0x17D80, symSize: 0x34 }
  - { offset: 0x462B7, size: 0x8, addend: 0x0, symName: __ZN5flecs1_9enum_typeI20ecs_primitive_kind_tE15reflection_init15handle_constantILj128ELi0EEEjjRS3_, symObjAddr: 0xEC0C, symBinAddr: 0x17DB4, symSize: 0x18 }
  - { offset: 0x462F6, size: 0x8, addend: 0x0, symName: __ZN5flecs1_15enum_reflectionI20ecs_primitive_kind_tNS0_9enum_typeIS2_E15reflection_initEE15each_mask_rangeILj18ELj64EJS4_EEEjjDpRT1_, symObjAddr: 0xEC24, symBinAddr: 0x17DCC, symSize: 0x34 }
  - { offset: 0x46346, size: 0x8, addend: 0x0, symName: __ZN5flecs1_9enum_typeI20ecs_primitive_kind_tE15reflection_init15handle_constantILj64ELi0EEEjjRS3_, symObjAddr: 0xEC58, symBinAddr: 0x17E00, symSize: 0x18 }
  - { offset: 0x46384, size: 0x8, addend: 0x0, symName: __ZN5flecs1_15enum_reflectionI20ecs_primitive_kind_tNS0_9enum_typeIS2_E15reflection_initEE15each_mask_rangeILj18ELj32EJS4_EEEjjDpRT1_, symObjAddr: 0xEC70, symBinAddr: 0x17E18, symSize: 0x34 }
  - { offset: 0x463D4, size: 0x8, addend: 0x0, symName: __ZN5flecs1_9enum_typeI20ecs_primitive_kind_tE15reflection_init15handle_constantILj32ELi0EEEjjRS3_, symObjAddr: 0xECA4, symBinAddr: 0x17E4C, symSize: 0x18 }
  - { offset: 0x46413, size: 0x8, addend: 0x0, symName: __ZN5flecs1_15enum_reflectionI20ecs_primitive_kind_tNS0_9enum_typeIS2_E15reflection_initEE15each_mask_rangeILj18ELj16EJS4_EEEjjDpRT1_, symObjAddr: 0xECBC, symBinAddr: 0x17E64, symSize: 0x18 }
  - { offset: 0x46462, size: 0x8, addend: 0x0, symName: __ZN5flecs1_15enum_reflectionI20ecs_primitive_kind_tNS0_9enum_typeIS2_E15reflection_initEE15each_enum_rangeILj10ELj18EJS4_EEEjjDpRT1_, symObjAddr: 0xECD4, symBinAddr: 0x17E7C, symSize: 0x34 }
  - { offset: 0x464B1, size: 0x8, addend: 0x0, symName: __ZN5flecs1_15enum_reflectionI20ecs_primitive_kind_tNS0_9enum_typeIS2_E15reflection_initEE15each_enum_rangeILj0ELj9EJS4_EEEjjDpRT1_, symObjAddr: 0xED08, symBinAddr: 0x17EB0, symSize: 0x34 }
  - { offset: 0x46500, size: 0x8, addend: 0x0, symName: __ZN5flecs1_15enum_reflectionI20ecs_primitive_kind_tNS0_9enum_typeIS2_E15reflection_initEE15each_enum_rangeILj15ELj18EJS4_EEEjjDpRT1_, symObjAddr: 0xED3C, symBinAddr: 0x17EE4, symSize: 0x34 }
  - { offset: 0x4654F, size: 0x8, addend: 0x0, symName: __ZN5flecs1_15enum_reflectionI20ecs_primitive_kind_tNS0_9enum_typeIS2_E15reflection_initEE15each_enum_rangeILj10ELj14EJS4_EEEjjDpRT1_, symObjAddr: 0xED70, symBinAddr: 0x17F18, symSize: 0x34 }
  - { offset: 0x4659E, size: 0x8, addend: 0x0, symName: __ZN5flecs1_15enum_reflectionI20ecs_primitive_kind_tNS0_9enum_typeIS2_E15reflection_initEE15each_enum_rangeILj17ELj18EJS4_EEEjjDpRT1_, symObjAddr: 0xEDA4, symBinAddr: 0x17F4C, symSize: 0x34 }
  - { offset: 0x465ED, size: 0x8, addend: 0x0, symName: __ZN5flecs1_15enum_reflectionI20ecs_primitive_kind_tNS0_9enum_typeIS2_E15reflection_initEE15each_enum_rangeILj15ELj16EJS4_EEEjjDpRT1_, symObjAddr: 0xEDD8, symBinAddr: 0x17F80, symSize: 0x34 }
  - { offset: 0x4663C, size: 0x8, addend: 0x0, symName: __ZN5flecs1_9enum_typeI20ecs_primitive_kind_tE15reflection_init15handle_constantILj18ELi0EEEjjRS3_, symObjAddr: 0xEE0C, symBinAddr: 0x17FB4, symSize: 0x254 }
  - { offset: 0x4669E, size: 0x8, addend: 0x0, symName: __ZN5flecs1_9enum_typeI20ecs_primitive_kind_tE15reflection_init15handle_constantILj17ELi0EEEjjRS3_, symObjAddr: 0xF060, symBinAddr: 0x18208, symSize: 0x254 }
  - { offset: 0x46706, size: 0x8, addend: 0x0, symName: __ZN5flecs6string6lengthILm84EEEmRAT__Kc, symObjAddr: 0xF2F4, symBinAddr: 0x1849C, symSize: 0x14 }
  - { offset: 0x4672E, size: 0x8, addend: 0x0, symName: __ZN5flecs1_9enum_typeI20ecs_primitive_kind_tE15reflection_init15handle_constantILj16ELi0EEEjjRS3_, symObjAddr: 0xF348, symBinAddr: 0x184F0, symSize: 0x254 }
  - { offset: 0x46790, size: 0x8, addend: 0x0, symName: __ZN5flecs1_9enum_typeI20ecs_primitive_kind_tE15reflection_init15handle_constantILj15ELi0EEEjjRS3_, symObjAddr: 0xF59C, symBinAddr: 0x18744, symSize: 0x254 }
  - { offset: 0x467F2, size: 0x8, addend: 0x0, symName: __ZN5flecs1_15enum_reflectionI20ecs_primitive_kind_tNS0_9enum_typeIS2_E15reflection_initEE15each_enum_rangeILj13ELj14EJS4_EEEjjDpRT1_, symObjAddr: 0xF870, symBinAddr: 0x18A18, symSize: 0x34 }
  - { offset: 0x46841, size: 0x8, addend: 0x0, symName: __ZN5flecs1_15enum_reflectionI20ecs_primitive_kind_tNS0_9enum_typeIS2_E15reflection_initEE15each_enum_rangeILj10ELj12EJS4_EEEjjDpRT1_, symObjAddr: 0xF8A4, symBinAddr: 0x18A4C, symSize: 0x34 }
  - { offset: 0x46890, size: 0x8, addend: 0x0, symName: __ZN5flecs1_9enum_typeI20ecs_primitive_kind_tE15reflection_init15handle_constantILj14ELi0EEEjjRS3_, symObjAddr: 0xF8D8, symBinAddr: 0x18A80, symSize: 0x254 }
  - { offset: 0x468F2, size: 0x8, addend: 0x0, symName: __ZN5flecs1_9enum_typeI20ecs_primitive_kind_tE15reflection_init15handle_constantILj13ELi0EEEjjRS3_, symObjAddr: 0xFB2C, symBinAddr: 0x18CD4, symSize: 0x254 }
  - { offset: 0x46954, size: 0x8, addend: 0x0, symName: __ZN5flecs1_15enum_reflectionI20ecs_primitive_kind_tNS0_9enum_typeIS2_E15reflection_initEE15each_enum_rangeILj12ELj12EJS4_EEEjjDpRT1_, symObjAddr: 0xFE00, symBinAddr: 0x18FA8, symSize: 0x2C }
  - { offset: 0x469A3, size: 0x8, addend: 0x0, symName: __ZN5flecs1_15enum_reflectionI20ecs_primitive_kind_tNS0_9enum_typeIS2_E15reflection_initEE15each_enum_rangeILj10ELj11EJS4_EEEjjDpRT1_, symObjAddr: 0xFE2C, symBinAddr: 0x18FD4, symSize: 0x34 }
  - { offset: 0x469F2, size: 0x8, addend: 0x0, symName: __ZN5flecs1_9enum_typeI20ecs_primitive_kind_tE15reflection_init15handle_constantILj12ELi0EEEjjRS3_, symObjAddr: 0xFE60, symBinAddr: 0x19008, symSize: 0x254 }
  - { offset: 0x46A54, size: 0x8, addend: 0x0, symName: __ZN5flecs1_9enum_typeI20ecs_primitive_kind_tE15reflection_init15handle_constantILj11ELi0EEEjjRS3_, symObjAddr: 0x100F4, symBinAddr: 0x1929C, symSize: 0x254 }
  - { offset: 0x46AB6, size: 0x8, addend: 0x0, symName: __ZN5flecs1_9enum_typeI20ecs_primitive_kind_tE15reflection_init15handle_constantILj10ELi0EEEjjRS3_, symObjAddr: 0x10348, symBinAddr: 0x194F0, symSize: 0x254 }
  - { offset: 0x46B18, size: 0x8, addend: 0x0, symName: __ZN5flecs1_15enum_reflectionI20ecs_primitive_kind_tNS0_9enum_typeIS2_E15reflection_initEE15each_enum_rangeILj5ELj9EJS4_EEEjjDpRT1_, symObjAddr: 0x1061C, symBinAddr: 0x197C4, symSize: 0x34 }
  - { offset: 0x46B67, size: 0x8, addend: 0x0, symName: __ZN5flecs1_15enum_reflectionI20ecs_primitive_kind_tNS0_9enum_typeIS2_E15reflection_initEE15each_enum_rangeILj0ELj4EJS4_EEEjjDpRT1_, symObjAddr: 0x10650, symBinAddr: 0x197F8, symSize: 0x34 }
  - { offset: 0x46BB6, size: 0x8, addend: 0x0, symName: __ZN5flecs1_15enum_reflectionI20ecs_primitive_kind_tNS0_9enum_typeIS2_E15reflection_initEE15each_enum_rangeILj8ELj9EJS4_EEEjjDpRT1_, symObjAddr: 0x10684, symBinAddr: 0x1982C, symSize: 0x34 }
  - { offset: 0x46C05, size: 0x8, addend: 0x0, symName: __ZN5flecs1_15enum_reflectionI20ecs_primitive_kind_tNS0_9enum_typeIS2_E15reflection_initEE15each_enum_rangeILj5ELj7EJS4_EEEjjDpRT1_, symObjAddr: 0x106B8, symBinAddr: 0x19860, symSize: 0x34 }
  - { offset: 0x46C54, size: 0x8, addend: 0x0, symName: __ZN5flecs1_9enum_typeI20ecs_primitive_kind_tE15reflection_init15handle_constantILj9ELi0EEEjjRS3_, symObjAddr: 0x106EC, symBinAddr: 0x19894, symSize: 0x254 }
  - { offset: 0x46CB6, size: 0x8, addend: 0x0, symName: __ZN5flecs1_9enum_typeI20ecs_primitive_kind_tE15reflection_init15handle_constantILj8ELi0EEEjjRS3_, symObjAddr: 0x10940, symBinAddr: 0x19AE8, symSize: 0x254 }
  - { offset: 0x46D18, size: 0x8, addend: 0x0, symName: __ZN5flecs1_15enum_reflectionI20ecs_primitive_kind_tNS0_9enum_typeIS2_E15reflection_initEE15each_enum_rangeILj7ELj7EJS4_EEEjjDpRT1_, symObjAddr: 0x10C14, symBinAddr: 0x19DBC, symSize: 0x2C }
  - { offset: 0x46D67, size: 0x8, addend: 0x0, symName: __ZN5flecs1_15enum_reflectionI20ecs_primitive_kind_tNS0_9enum_typeIS2_E15reflection_initEE15each_enum_rangeILj5ELj6EJS4_EEEjjDpRT1_, symObjAddr: 0x10C40, symBinAddr: 0x19DE8, symSize: 0x34 }
  - { offset: 0x46DB6, size: 0x8, addend: 0x0, symName: __ZN5flecs1_9enum_typeI20ecs_primitive_kind_tE15reflection_init15handle_constantILj7ELi0EEEjjRS3_, symObjAddr: 0x10C74, symBinAddr: 0x19E1C, symSize: 0x254 }
  - { offset: 0x46E18, size: 0x8, addend: 0x0, symName: __ZN5flecs1_9enum_typeI20ecs_primitive_kind_tE15reflection_init15handle_constantILj6ELi0EEEjjRS3_, symObjAddr: 0x10F08, symBinAddr: 0x1A0B0, symSize: 0x254 }
  - { offset: 0x46E7A, size: 0x8, addend: 0x0, symName: __ZN5flecs1_9enum_typeI20ecs_primitive_kind_tE15reflection_init15handle_constantILj5ELi0EEEjjRS3_, symObjAddr: 0x1115C, symBinAddr: 0x1A304, symSize: 0x254 }
  - { offset: 0x46EDC, size: 0x8, addend: 0x0, symName: __ZN5flecs1_15enum_reflectionI20ecs_primitive_kind_tNS0_9enum_typeIS2_E15reflection_initEE15each_enum_rangeILj3ELj4EJS4_EEEjjDpRT1_, symObjAddr: 0x11430, symBinAddr: 0x1A5D8, symSize: 0x34 }
  - { offset: 0x46F2B, size: 0x8, addend: 0x0, symName: __ZN5flecs1_15enum_reflectionI20ecs_primitive_kind_tNS0_9enum_typeIS2_E15reflection_initEE15each_enum_rangeILj0ELj2EJS4_EEEjjDpRT1_, symObjAddr: 0x11464, symBinAddr: 0x1A60C, symSize: 0x34 }
  - { offset: 0x46F7A, size: 0x8, addend: 0x0, symName: __ZN5flecs1_9enum_typeI20ecs_primitive_kind_tE15reflection_init15handle_constantILj4ELi0EEEjjRS3_, symObjAddr: 0x11498, symBinAddr: 0x1A640, symSize: 0x254 }
  - { offset: 0x46FDC, size: 0x8, addend: 0x0, symName: __ZN5flecs1_9enum_typeI20ecs_primitive_kind_tE15reflection_init15handle_constantILj3ELi0EEEjjRS3_, symObjAddr: 0x116EC, symBinAddr: 0x1A894, symSize: 0x254 }
  - { offset: 0x4703E, size: 0x8, addend: 0x0, symName: __ZN5flecs1_15enum_reflectionI20ecs_primitive_kind_tNS0_9enum_typeIS2_E15reflection_initEE15each_enum_rangeILj2ELj2EJS4_EEEjjDpRT1_, symObjAddr: 0x119C0, symBinAddr: 0x1AB68, symSize: 0x2C }
  - { offset: 0x4708D, size: 0x8, addend: 0x0, symName: __ZN5flecs1_15enum_reflectionI20ecs_primitive_kind_tNS0_9enum_typeIS2_E15reflection_initEE15each_enum_rangeILj0ELj1EJS4_EEEjjDpRT1_, symObjAddr: 0x119EC, symBinAddr: 0x1AB94, symSize: 0x34 }
  - { offset: 0x470DC, size: 0x8, addend: 0x0, symName: __ZN5flecs1_9enum_typeI20ecs_primitive_kind_tE15reflection_init15handle_constantILj2ELi0EEEjjRS3_, symObjAddr: 0x11A20, symBinAddr: 0x1ABC8, symSize: 0x254 }
  - { offset: 0x4713E, size: 0x8, addend: 0x0, symName: __ZN5flecs1_9enum_typeI20ecs_primitive_kind_tE15reflection_init15handle_constantILj1ELi0EEEjjRS3_, symObjAddr: 0x11CB4, symBinAddr: 0x1AE5C, symSize: 0x254 }
  - { offset: 0x471A1, size: 0x8, addend: 0x0, symName: __ZN5flecs1_9enum_typeI20ecs_primitive_kind_tE15reflection_init15handle_constantILj0ELi0EEEjjRS3_, symObjAddr: 0x11F08, symBinAddr: 0x1B0B0, symSize: 0x18 }
  - { offset: 0x471DF, size: 0x8, addend: 0x0, symName: __ZN5flecs1_9type_implI20ecs_primitive_kind_tE2idEP11ecs_world_t, symObjAddr: 0x11F60, symBinAddr: 0x1B108, symSize: 0x70 }
  - { offset: 0x4720F, size: 0x8, addend: 0x0, symName: __ZN5flecs9componentI12ecs_member_tEC1EP11ecs_world_tPKcby, symObjAddr: 0x11FD0, symBinAddr: 0x1B178, symSize: 0x50 }
  - { offset: 0x47273, size: 0x8, addend: 0x0, symName: __ZN5flecs9componentI12ecs_member_tEC2EP11ecs_world_tPKcby, symObjAddr: 0x12020, symBinAddr: 0x1B1C8, symSize: 0x74 }
  - { offset: 0x472D7, size: 0x8, addend: 0x0, symName: __ZN5flecs1_9type_implI12ecs_member_tE11register_idEP11ecs_world_tPKcbbby, symObjAddr: 0x12094, symBinAddr: 0x1B23C, symSize: 0x240 }
  - { offset: 0x47369, size: 0x8, addend: 0x0, symName: __ZN5flecs1_9type_implI12ecs_member_tE4initEb, symObjAddr: 0x122D4, symBinAddr: 0x1B47C, symSize: 0x60 }
  - { offset: 0x4738C, size: 0x8, addend: 0x0, symName: __ZN5flecs1_9type_implI12ecs_member_tE4sizeEv, symObjAddr: 0x124A0, symBinAddr: 0x1B648, symSize: 0x9C }
  - { offset: 0x473A0, size: 0x8, addend: 0x0, symName: __ZN5flecs1_9type_implI12ecs_member_tE9alignmentEv, symObjAddr: 0x1253C, symBinAddr: 0x1B6E4, symSize: 0x9C }
  - { offset: 0x473B3, size: 0x8, addend: 0x0, symName: __ZN5flecs9componentI19ecs_enum_constant_tEC1EP11ecs_world_tPKcby, symObjAddr: 0x12600, symBinAddr: 0x1B7A8, symSize: 0x50 }
  - { offset: 0x47417, size: 0x8, addend: 0x0, symName: __ZN5flecs9componentI19ecs_enum_constant_tEC2EP11ecs_world_tPKcby, symObjAddr: 0x12650, symBinAddr: 0x1B7F8, symSize: 0x74 }
  - { offset: 0x4747B, size: 0x8, addend: 0x0, symName: __ZN5flecs1_9type_implI19ecs_enum_constant_tE11register_idEP11ecs_world_tPKcbbby, symObjAddr: 0x126C4, symBinAddr: 0x1B86C, symSize: 0x240 }
  - { offset: 0x4750D, size: 0x8, addend: 0x0, symName: __ZN5flecs1_9type_implI19ecs_enum_constant_tE4initEb, symObjAddr: 0x12904, symBinAddr: 0x1BAAC, symSize: 0x60 }
  - { offset: 0x47530, size: 0x8, addend: 0x0, symName: __ZN5flecs1_9type_implI19ecs_enum_constant_tE4sizeEv, symObjAddr: 0x12AD0, symBinAddr: 0x1BC78, symSize: 0x9C }
  - { offset: 0x47544, size: 0x8, addend: 0x0, symName: __ZN5flecs1_9type_implI19ecs_enum_constant_tE9alignmentEv, symObjAddr: 0x12B6C, symBinAddr: 0x1BD14, symSize: 0x9C }
  - { offset: 0x47557, size: 0x8, addend: 0x0, symName: __ZN5flecs9componentI22ecs_bitmask_constant_tEC1EP11ecs_world_tPKcby, symObjAddr: 0x12C30, symBinAddr: 0x1BDD8, symSize: 0x50 }
  - { offset: 0x475BB, size: 0x8, addend: 0x0, symName: __ZN5flecs9componentI22ecs_bitmask_constant_tEC2EP11ecs_world_tPKcby, symObjAddr: 0x12C80, symBinAddr: 0x1BE28, symSize: 0x74 }
  - { offset: 0x4761F, size: 0x8, addend: 0x0, symName: __ZN5flecs1_9type_implI22ecs_bitmask_constant_tE11register_idEP11ecs_world_tPKcbbby, symObjAddr: 0x12CF4, symBinAddr: 0x1BE9C, symSize: 0x240 }
  - { offset: 0x476B1, size: 0x8, addend: 0x0, symName: __ZN5flecs1_9type_implI22ecs_bitmask_constant_tE4initEb, symObjAddr: 0x12F34, symBinAddr: 0x1C0DC, symSize: 0x60 }
  - { offset: 0x476D4, size: 0x8, addend: 0x0, symName: __ZN5flecs1_9type_implI22ecs_bitmask_constant_tE4sizeEv, symObjAddr: 0x13100, symBinAddr: 0x1C2A8, symSize: 0x9C }
  - { offset: 0x476E8, size: 0x8, addend: 0x0, symName: __ZN5flecs1_9type_implI22ecs_bitmask_constant_tE9alignmentEv, symObjAddr: 0x1319C, symBinAddr: 0x1C344, symSize: 0x9C }
  - { offset: 0x476FB, size: 0x8, addend: 0x0, symName: __ZN5flecs9componentI7EcsTypeEC1EP11ecs_world_tPKcby, symObjAddr: 0x13260, symBinAddr: 0x1C408, symSize: 0x50 }
  - { offset: 0x4775F, size: 0x8, addend: 0x0, symName: __ZN5flecs9componentI7EcsTypeEC2EP11ecs_world_tPKcby, symObjAddr: 0x132B0, symBinAddr: 0x1C458, symSize: 0x74 }
  - { offset: 0x477C3, size: 0x8, addend: 0x0, symName: __ZN5flecs1_9type_implI7EcsTypeE11register_idEP11ecs_world_tPKcbbby, symObjAddr: 0x13324, symBinAddr: 0x1C4CC, symSize: 0x240 }
  - { offset: 0x47855, size: 0x8, addend: 0x0, symName: __ZN5flecs1_9type_implI7EcsTypeE4initEb, symObjAddr: 0x13564, symBinAddr: 0x1C70C, symSize: 0x60 }
  - { offset: 0x47878, size: 0x8, addend: 0x0, symName: __ZN5flecs1_9type_implI7EcsTypeE4sizeEv, symObjAddr: 0x13730, symBinAddr: 0x1C8D8, symSize: 0x9C }
  - { offset: 0x4788C, size: 0x8, addend: 0x0, symName: __ZN5flecs1_9type_implI7EcsTypeE9alignmentEv, symObjAddr: 0x137CC, symBinAddr: 0x1C974, symSize: 0x9C }
  - { offset: 0x4789F, size: 0x8, addend: 0x0, symName: __ZN5flecs9componentI17EcsTypeSerializerEC1EP11ecs_world_tPKcby, symObjAddr: 0x13890, symBinAddr: 0x1CA38, symSize: 0x50 }
  - { offset: 0x47903, size: 0x8, addend: 0x0, symName: __ZN5flecs9componentI17EcsTypeSerializerEC2EP11ecs_world_tPKcby, symObjAddr: 0x138E0, symBinAddr: 0x1CA88, symSize: 0x74 }
  - { offset: 0x47967, size: 0x8, addend: 0x0, symName: __ZN5flecs1_9type_implI17EcsTypeSerializerE11register_idEP11ecs_world_tPKcbbby, symObjAddr: 0x13954, symBinAddr: 0x1CAFC, symSize: 0x240 }
  - { offset: 0x479F9, size: 0x8, addend: 0x0, symName: __ZN5flecs1_9type_implI17EcsTypeSerializerE4initEb, symObjAddr: 0x13B94, symBinAddr: 0x1CD3C, symSize: 0x60 }
  - { offset: 0x47A1C, size: 0x8, addend: 0x0, symName: __ZN5flecs1_9type_implI17EcsTypeSerializerE4sizeEv, symObjAddr: 0x13D60, symBinAddr: 0x1CF08, symSize: 0x9C }
  - { offset: 0x47A30, size: 0x8, addend: 0x0, symName: __ZN5flecs1_9type_implI17EcsTypeSerializerE9alignmentEv, symObjAddr: 0x13DFC, symBinAddr: 0x1CFA4, symSize: 0x9C }
  - { offset: 0x47A43, size: 0x8, addend: 0x0, symName: __ZN5flecs9componentI12EcsPrimitiveEC1EP11ecs_world_tPKcby, symObjAddr: 0x13EC0, symBinAddr: 0x1D068, symSize: 0x50 }
  - { offset: 0x47AA7, size: 0x8, addend: 0x0, symName: __ZN5flecs9componentI12EcsPrimitiveEC2EP11ecs_world_tPKcby, symObjAddr: 0x13F10, symBinAddr: 0x1D0B8, symSize: 0x74 }
  - { offset: 0x47B0B, size: 0x8, addend: 0x0, symName: __ZN5flecs1_9type_implI12EcsPrimitiveE11register_idEP11ecs_world_tPKcbbby, symObjAddr: 0x13F84, symBinAddr: 0x1D12C, symSize: 0x240 }
  - { offset: 0x47B9D, size: 0x8, addend: 0x0, symName: __ZN5flecs1_9type_implI12EcsPrimitiveE4initEb, symObjAddr: 0x141C4, symBinAddr: 0x1D36C, symSize: 0x5C }
  - { offset: 0x47BC0, size: 0x8, addend: 0x0, symName: __ZN5flecs1_9type_implI12EcsPrimitiveE4sizeEv, symObjAddr: 0x1438C, symBinAddr: 0x1D534, symSize: 0x9C }
  - { offset: 0x47BD4, size: 0x8, addend: 0x0, symName: __ZN5flecs1_9type_implI12EcsPrimitiveE9alignmentEv, symObjAddr: 0x14428, symBinAddr: 0x1D5D0, symSize: 0x9C }
  - { offset: 0x47BE7, size: 0x8, addend: 0x0, symName: __ZN5flecs9componentI7EcsEnumEC1EP11ecs_world_tPKcby, symObjAddr: 0x144EC, symBinAddr: 0x1D694, symSize: 0x50 }
  - { offset: 0x47C4B, size: 0x8, addend: 0x0, symName: __ZN5flecs9componentI7EcsEnumEC2EP11ecs_world_tPKcby, symObjAddr: 0x1453C, symBinAddr: 0x1D6E4, symSize: 0x74 }
  - { offset: 0x47CAF, size: 0x8, addend: 0x0, symName: __ZN5flecs1_9type_implI7EcsEnumE11register_idEP11ecs_world_tPKcbbby, symObjAddr: 0x145B0, symBinAddr: 0x1D758, symSize: 0x240 }
  - { offset: 0x47D41, size: 0x8, addend: 0x0, symName: __ZN5flecs1_9type_implI7EcsEnumE4initEb, symObjAddr: 0x147F0, symBinAddr: 0x1D998, symSize: 0x5C }
  - { offset: 0x47D64, size: 0x8, addend: 0x0, symName: __ZN5flecs1_9type_implI7EcsEnumE4sizeEv, symObjAddr: 0x149B8, symBinAddr: 0x1DB60, symSize: 0x9C }
  - { offset: 0x47D78, size: 0x8, addend: 0x0, symName: __ZN5flecs1_9type_implI7EcsEnumE9alignmentEv, symObjAddr: 0x14A54, symBinAddr: 0x1DBFC, symSize: 0x9C }
  - { offset: 0x47D8B, size: 0x8, addend: 0x0, symName: __ZN5flecs9componentI10EcsBitmaskEC1EP11ecs_world_tPKcby, symObjAddr: 0x14B18, symBinAddr: 0x1DCC0, symSize: 0x50 }
  - { offset: 0x47DEF, size: 0x8, addend: 0x0, symName: __ZN5flecs9componentI10EcsBitmaskEC2EP11ecs_world_tPKcby, symObjAddr: 0x14B68, symBinAddr: 0x1DD10, symSize: 0x74 }
  - { offset: 0x47E53, size: 0x8, addend: 0x0, symName: __ZN5flecs1_9type_implI10EcsBitmaskE11register_idEP11ecs_world_tPKcbbby, symObjAddr: 0x14BDC, symBinAddr: 0x1DD84, symSize: 0x240 }
  - { offset: 0x47EE5, size: 0x8, addend: 0x0, symName: __ZN5flecs1_9type_implI10EcsBitmaskE4initEb, symObjAddr: 0x14E1C, symBinAddr: 0x1DFC4, symSize: 0x5C }
  - { offset: 0x47F08, size: 0x8, addend: 0x0, symName: __ZN5flecs1_9type_implI10EcsBitmaskE4sizeEv, symObjAddr: 0x14FE4, symBinAddr: 0x1E18C, symSize: 0x9C }
  - { offset: 0x47F1C, size: 0x8, addend: 0x0, symName: __ZN5flecs1_9type_implI10EcsBitmaskE9alignmentEv, symObjAddr: 0x15080, symBinAddr: 0x1E228, symSize: 0x9C }
  - { offset: 0x47F2F, size: 0x8, addend: 0x0, symName: __ZN5flecs9componentI9EcsMemberEC1EP11ecs_world_tPKcby, symObjAddr: 0x15144, symBinAddr: 0x1E2EC, symSize: 0x50 }
  - { offset: 0x47F93, size: 0x8, addend: 0x0, symName: __ZN5flecs9componentI9EcsMemberEC2EP11ecs_world_tPKcby, symObjAddr: 0x15194, symBinAddr: 0x1E33C, symSize: 0x74 }
  - { offset: 0x47FF7, size: 0x8, addend: 0x0, symName: __ZN5flecs1_9type_implI9EcsMemberE11register_idEP11ecs_world_tPKcbbby, symObjAddr: 0x15208, symBinAddr: 0x1E3B0, symSize: 0x240 }
  - { offset: 0x48089, size: 0x8, addend: 0x0, symName: __ZN5flecs1_9type_implI9EcsMemberE4initEb, symObjAddr: 0x15448, symBinAddr: 0x1E5F0, symSize: 0x60 }
  - { offset: 0x480AC, size: 0x8, addend: 0x0, symName: __ZN5flecs1_9type_implI9EcsMemberE4sizeEv, symObjAddr: 0x15614, symBinAddr: 0x1E7BC, symSize: 0x9C }
  - { offset: 0x480C0, size: 0x8, addend: 0x0, symName: __ZN5flecs1_9type_implI9EcsMemberE9alignmentEv, symObjAddr: 0x156B0, symBinAddr: 0x1E858, symSize: 0x9C }
  - { offset: 0x480D3, size: 0x8, addend: 0x0, symName: __ZN5flecs9componentI15EcsMemberRangesEC1EP11ecs_world_tPKcby, symObjAddr: 0x15774, symBinAddr: 0x1E91C, symSize: 0x50 }
  - { offset: 0x48137, size: 0x8, addend: 0x0, symName: __ZN5flecs9componentI15EcsMemberRangesEC2EP11ecs_world_tPKcby, symObjAddr: 0x157C4, symBinAddr: 0x1E96C, symSize: 0x74 }
  - { offset: 0x4819B, size: 0x8, addend: 0x0, symName: __ZN5flecs1_9type_implI15EcsMemberRangesE11register_idEP11ecs_world_tPKcbbby, symObjAddr: 0x15838, symBinAddr: 0x1E9E0, symSize: 0x240 }
  - { offset: 0x4822D, size: 0x8, addend: 0x0, symName: __ZN5flecs1_9type_implI15EcsMemberRangesE4initEb, symObjAddr: 0x15A78, symBinAddr: 0x1EC20, symSize: 0x60 }
  - { offset: 0x48250, size: 0x8, addend: 0x0, symName: __ZN5flecs1_9type_implI15EcsMemberRangesE4sizeEv, symObjAddr: 0x15C44, symBinAddr: 0x1EDEC, symSize: 0x9C }
  - { offset: 0x48264, size: 0x8, addend: 0x0, symName: __ZN5flecs1_9type_implI15EcsMemberRangesE9alignmentEv, symObjAddr: 0x15CE0, symBinAddr: 0x1EE88, symSize: 0x9C }
  - { offset: 0x48277, size: 0x8, addend: 0x0, symName: __ZN5flecs9componentI9EcsStructEC1EP11ecs_world_tPKcby, symObjAddr: 0x15DA4, symBinAddr: 0x1EF4C, symSize: 0x50 }
  - { offset: 0x482DB, size: 0x8, addend: 0x0, symName: __ZN5flecs9componentI9EcsStructEC2EP11ecs_world_tPKcby, symObjAddr: 0x15DF4, symBinAddr: 0x1EF9C, symSize: 0x74 }
  - { offset: 0x4833F, size: 0x8, addend: 0x0, symName: __ZN5flecs1_9type_implI9EcsStructE11register_idEP11ecs_world_tPKcbbby, symObjAddr: 0x15E68, symBinAddr: 0x1F010, symSize: 0x240 }
  - { offset: 0x483D1, size: 0x8, addend: 0x0, symName: __ZN5flecs1_9type_implI9EcsStructE4initEb, symObjAddr: 0x160A8, symBinAddr: 0x1F250, symSize: 0x60 }
  - { offset: 0x483F4, size: 0x8, addend: 0x0, symName: __ZN5flecs1_9type_implI9EcsStructE4sizeEv, symObjAddr: 0x16274, symBinAddr: 0x1F41C, symSize: 0x9C }
  - { offset: 0x48408, size: 0x8, addend: 0x0, symName: __ZN5flecs1_9type_implI9EcsStructE9alignmentEv, symObjAddr: 0x16310, symBinAddr: 0x1F4B8, symSize: 0x9C }
  - { offset: 0x4841B, size: 0x8, addend: 0x0, symName: __ZN5flecs9componentI8EcsArrayEC1EP11ecs_world_tPKcby, symObjAddr: 0x163D4, symBinAddr: 0x1F57C, symSize: 0x50 }
  - { offset: 0x4847F, size: 0x8, addend: 0x0, symName: __ZN5flecs9componentI8EcsArrayEC2EP11ecs_world_tPKcby, symObjAddr: 0x16424, symBinAddr: 0x1F5CC, symSize: 0x74 }
  - { offset: 0x484E3, size: 0x8, addend: 0x0, symName: __ZN5flecs1_9type_implI8EcsArrayE11register_idEP11ecs_world_tPKcbbby, symObjAddr: 0x16498, symBinAddr: 0x1F640, symSize: 0x240 }
  - { offset: 0x48575, size: 0x8, addend: 0x0, symName: __ZN5flecs1_9type_implI8EcsArrayE4initEb, symObjAddr: 0x166D8, symBinAddr: 0x1F880, symSize: 0x60 }
  - { offset: 0x48598, size: 0x8, addend: 0x0, symName: __ZN5flecs1_9type_implI8EcsArrayE4sizeEv, symObjAddr: 0x168A4, symBinAddr: 0x1FA4C, symSize: 0x9C }
  - { offset: 0x485AC, size: 0x8, addend: 0x0, symName: __ZN5flecs1_9type_implI8EcsArrayE9alignmentEv, symObjAddr: 0x16940, symBinAddr: 0x1FAE8, symSize: 0x9C }
  - { offset: 0x485BF, size: 0x8, addend: 0x0, symName: __ZN5flecs9componentI9EcsVectorEC1EP11ecs_world_tPKcby, symObjAddr: 0x16A04, symBinAddr: 0x1FBAC, symSize: 0x50 }
  - { offset: 0x48623, size: 0x8, addend: 0x0, symName: __ZN5flecs9componentI9EcsVectorEC2EP11ecs_world_tPKcby, symObjAddr: 0x16A54, symBinAddr: 0x1FBFC, symSize: 0x74 }
  - { offset: 0x48687, size: 0x8, addend: 0x0, symName: __ZN5flecs1_9type_implI9EcsVectorE11register_idEP11ecs_world_tPKcbbby, symObjAddr: 0x16AC8, symBinAddr: 0x1FC70, symSize: 0x240 }
  - { offset: 0x48719, size: 0x8, addend: 0x0, symName: __ZN5flecs1_9type_implI9EcsVectorE4initEb, symObjAddr: 0x16D08, symBinAddr: 0x1FEB0, symSize: 0x5C }
  - { offset: 0x4873C, size: 0x8, addend: 0x0, symName: __ZN5flecs1_9type_implI9EcsVectorE4sizeEv, symObjAddr: 0x16ED0, symBinAddr: 0x20078, symSize: 0x9C }
  - { offset: 0x48750, size: 0x8, addend: 0x0, symName: __ZN5flecs1_9type_implI9EcsVectorE9alignmentEv, symObjAddr: 0x16F6C, symBinAddr: 0x20114, symSize: 0x9C }
  - { offset: 0x48763, size: 0x8, addend: 0x0, symName: __ZN5flecs9componentI7EcsUnitEC1EP11ecs_world_tPKcby, symObjAddr: 0x17030, symBinAddr: 0x201D8, symSize: 0x50 }
  - { offset: 0x487C7, size: 0x8, addend: 0x0, symName: __ZN5flecs9componentI7EcsUnitEC2EP11ecs_world_tPKcby, symObjAddr: 0x17080, symBinAddr: 0x20228, symSize: 0x74 }
  - { offset: 0x4882B, size: 0x8, addend: 0x0, symName: __ZN5flecs1_9type_implI7EcsUnitE11register_idEP11ecs_world_tPKcbbby, symObjAddr: 0x170F4, symBinAddr: 0x2029C, symSize: 0x240 }
  - { offset: 0x488BD, size: 0x8, addend: 0x0, symName: __ZN5flecs1_9type_implI7EcsUnitE4initEb, symObjAddr: 0x17334, symBinAddr: 0x204DC, symSize: 0x60 }
  - { offset: 0x488E0, size: 0x8, addend: 0x0, symName: __ZN5flecs1_9type_implI7EcsUnitE4sizeEv, symObjAddr: 0x17500, symBinAddr: 0x206A8, symSize: 0x9C }
  - { offset: 0x488F4, size: 0x8, addend: 0x0, symName: __ZN5flecs1_9type_implI7EcsUnitE9alignmentEv, symObjAddr: 0x1759C, symBinAddr: 0x20744, symSize: 0x9C }
  - { offset: 0x48907, size: 0x8, addend: 0x0, symName: __ZN5flecs1_9type_implIlE4initEb, symObjAddr: 0x17660, symBinAddr: 0x20808, symSize: 0x5C }
  - { offset: 0x4892A, size: 0x8, addend: 0x0, symName: ___cxx_global_var_init.58, symObjAddr: 0x274A8, symBinAddr: 0x2FD58, symSize: 0x18 }
  - { offset: 0x4893D, size: 0x8, addend: 0x0, symName: __ZN5flecs1_9type_implImE4initEb, symObjAddr: 0x176BC, symBinAddr: 0x20864, symSize: 0x5C }
  - { offset: 0x48960, size: 0x8, addend: 0x0, symName: ___cxx_global_var_init.59, symObjAddr: 0x274C0, symBinAddr: 0x2FD70, symSize: 0x18 }
  - { offset: 0x48973, size: 0x8, addend: 0x0, symName: __ZN5flecs6entityC1EP11ecs_world_tPKc, symObjAddr: 0x17718, symBinAddr: 0x208C0, symSize: 0x3C }
  - { offset: 0x489B7, size: 0x8, addend: 0x0, symName: __ZN5flecs6entityC2EP11ecs_world_tPKc, symObjAddr: 0x17754, symBinAddr: 0x208FC, symSize: 0x8C }
  - { offset: 0x48A18, size: 0x8, addend: 0x0, symName: __ZNK5flecs14entity_builderINS_6entityEE7to_baseEv, symObjAddr: 0x177E0, symBinAddr: 0x20988, symSize: 0x14 }
  - { offset: 0x48A3D, size: 0x8, addend: 0x0, symName: ___cxx_global_var_init.61, symObjAddr: 0x274D8, symBinAddr: 0x2FD88, symSize: 0x18 }
  - { offset: 0x48A55, size: 0x8, addend: 0x0, symName: __ZZN5flecs4meta1_4initERNS_5worldEENKUlvE_clEv, symObjAddr: 0x177F4, symBinAddr: 0x2099C, symSize: 0x70 }
  - { offset: 0x48A7D, size: 0x8, addend: 0x0, symName: __ZNK5flecs5world9componentINS_11entity_viewEJEEENS_9componentIT_EEDpOT0_, symObjAddr: 0x17864, symBinAddr: 0x20A0C, symSize: 0x44 }
  - { offset: 0x48ABF, size: 0x8, addend: 0x0, symName: __ZN5flecs9componentINS_11entity_viewEE6opaqueIFNS_6opaqueIS1_vEERNS_5worldEEEERS2_RKT_, symObjAddr: 0x178A8, symBinAddr: 0x20A50, symSize: 0xE4 }
  - { offset: 0x48B16, size: 0x8, addend: 0x0, symName: __ZNK5flecs5world9componentINS_6entityEJEEENS_9componentIT_EEDpOT0_, symObjAddr: 0x17A60, symBinAddr: 0x20C08, symSize: 0x44 }
  - { offset: 0x48B58, size: 0x8, addend: 0x0, symName: __ZN5flecs9componentINS_6entityEE6opaqueIFNS_6opaqueIS1_vEERNS_5worldEEEERS2_RKT_, symObjAddr: 0x17AA4, symBinAddr: 0x20C4C, symSize: 0xE4 }
  - { offset: 0x48BAF, size: 0x8, addend: 0x0, symName: __ZN5flecs9componentINS_11entity_viewEEC1EP11ecs_world_tPKcby, symObjAddr: 0x17C5C, symBinAddr: 0x20E04, symSize: 0x50 }
  - { offset: 0x48C13, size: 0x8, addend: 0x0, symName: __ZN5flecs9componentINS_11entity_viewEEC2EP11ecs_world_tPKcby, symObjAddr: 0x17CAC, symBinAddr: 0x20E54, symSize: 0x74 }
  - { offset: 0x48C77, size: 0x8, addend: 0x0, symName: __ZN5flecs1_9type_implINS_11entity_viewEE11register_idEP11ecs_world_tPKcbbby, symObjAddr: 0x17D20, symBinAddr: 0x20EC8, symSize: 0x240 }
  - { offset: 0x48D09, size: 0x8, addend: 0x0, symName: __ZN5flecs1_9type_implINS_11entity_viewEE4initEb, symObjAddr: 0x17F60, symBinAddr: 0x21108, symSize: 0x60 }
  - { offset: 0x48D2C, size: 0x8, addend: 0x0, symName: __ZN5flecs1_9type_implINS_11entity_viewEE4sizeEv, symObjAddr: 0x1812C, symBinAddr: 0x212D4, symSize: 0x9C }
  - { offset: 0x48D40, size: 0x8, addend: 0x0, symName: __ZN5flecs1_9type_implINS_11entity_viewEE9alignmentEv, symObjAddr: 0x181C8, symBinAddr: 0x21370, symSize: 0x9C }
  - { offset: 0x48D53, size: 0x8, addend: 0x0, symName: __ZnwmN5flecs1_19placement_new_tag_tEPv, symObjAddr: 0x18594, symBinAddr: 0x2173C, symSize: 0x18 }
  - { offset: 0x48D93, size: 0x8, addend: 0x0, symName: __ZN5flecs11entity_viewC1Ev, symObjAddr: 0x185AC, symBinAddr: 0x21754, symSize: 0x2C }
  - { offset: 0x48DBB, size: 0x8, addend: 0x0, symName: __ZdlPvN5flecs1_19placement_new_tag_tES_, symObjAddr: 0x185D8, symBinAddr: 0x21780, symSize: 0x14 }
  - { offset: 0x48DF4, size: 0x8, addend: 0x0, symName: ___cxx_global_var_init.66, symObjAddr: 0x274F0, symBinAddr: 0x2FDA0, symSize: 0x18 }
  - { offset: 0x48E07, size: 0x8, addend: 0x0, symName: __ZN5flecs5worldC1EP11ecs_world_t, symObjAddr: 0x185EC, symBinAddr: 0x21794, symSize: 0x34 }
  - { offset: 0x48E3D, size: 0x8, addend: 0x0, symName: __ZN5flecs1_9type_implINS_11entity_viewEE2idEP11ecs_world_t, symObjAddr: 0x18620, symBinAddr: 0x217C8, symSize: 0x70 }
  - { offset: 0x48E6D, size: 0x8, addend: 0x0, symName: __ZN5flecs6opaqueINS_11entity_viewEvED1Ev, symObjAddr: 0x18690, symBinAddr: 0x21838, symSize: 0x2C }
  - { offset: 0x48E95, size: 0x8, addend: 0x0, symName: __ZN5flecs5worldD1Ev, symObjAddr: 0x186BC, symBinAddr: 0x21864, symSize: 0x2C }
  - { offset: 0x48EBD, size: 0x8, addend: 0x0, symName: __ZN5flecs5worldC2EP11ecs_world_t, symObjAddr: 0x186E8, symBinAddr: 0x21890, symSize: 0x50 }
  - { offset: 0x48EF3, size: 0x8, addend: 0x0, symName: __ZN5flecs6opaqueINS_11entity_viewEvED2Ev, symObjAddr: 0x18738, symBinAddr: 0x218E0, symSize: 0x58 }
  - { offset: 0x48F1B, size: 0x8, addend: 0x0, symName: __ZN5flecs5worldD2Ev, symObjAddr: 0x18790, symBinAddr: 0x21938, symSize: 0x34 }
  - { offset: 0x48F43, size: 0x8, addend: 0x0, symName: __ZN5flecs5world7releaseEv, symObjAddr: 0x187C4, symBinAddr: 0x2196C, symSize: 0x98 }
  - { offset: 0x48F67, size: 0x8, addend: 0x0, symName: __ZN5flecs6opaqueINS_11entity_viewEvEC1EP11ecs_world_t, symObjAddr: 0x1885C, symBinAddr: 0x21A04, symSize: 0x34 }
  - { offset: 0x48F9D, size: 0x8, addend: 0x0, symName: __ZN5flecs6opaqueINS_11entity_viewEvE7as_typeEy, symObjAddr: 0x18890, symBinAddr: 0x21A38, symSize: 0x20 }
  - { offset: 0x48FCF, size: 0x8, addend: 0x0, symName: __ZN5flecs6opaqueINS_11entity_viewEvE9serializeEPFiPK16ecs_serializer_tPKS1_E, symObjAddr: 0x188B0, symBinAddr: 0x21A58, symSize: 0x20 }
  - { offset: 0x4900B, size: 0x8, addend: 0x0, symName: __ZZN5flecs4meta1_20flecs_entity_supportINS_11entity_viewEEENS_6opaqueIT_vEERNS_5worldEENKUlPK16ecs_serializer_tPKS3_E_cvPFiSB_SD_EEv, symObjAddr: 0x188D0, symBinAddr: 0x21A78, symSize: 0x18 }
  - { offset: 0x49035, size: 0x8, addend: 0x0, symName: __ZN5flecs6opaqueINS_11entity_viewEvE13assign_entityEPFvPS1_P11ecs_world_tyE, symObjAddr: 0x188E8, symBinAddr: 0x21A90, symSize: 0x20 }
  - { offset: 0x49088, size: 0x8, addend: 0x0, symName: __ZZN5flecs4meta1_20flecs_entity_supportINS_11entity_viewEEENS_6opaqueIT_vEERNS_5worldEENKUlPS3_P11ecs_world_tyE_cvPFvS9_SB_yEEv, symObjAddr: 0x18908, symBinAddr: 0x21AB0, symSize: 0x18 }
  - { offset: 0x490B2, size: 0x8, addend: 0x0, symName: __ZN5flecs6opaqueINS_11entity_viewEvEC2EP11ecs_world_t, symObjAddr: 0x18920, symBinAddr: 0x21AC8, symSize: 0x78 }
  - { offset: 0x490E9, size: 0x8, addend: 0x0, symName: ___cxx_global_var_init.67, symObjAddr: 0x27508, symBinAddr: 0x2FDB8, symSize: 0x18 }
  - { offset: 0x490FD, size: 0x8, addend: 0x0, symName: __ZZN5flecs4meta1_20flecs_entity_supportINS_11entity_viewEEENS_6opaqueIT_vEERNS_5worldEENUlPK16ecs_serializer_tPKS3_E_8__invokeESB_SD_, symObjAddr: 0x18998, symBinAddr: 0x21B40, symSize: 0x30 }
  - { offset: 0x49131, size: 0x8, addend: 0x0, symName: __ZZN5flecs4meta1_20flecs_entity_supportINS_11entity_viewEEENS_6opaqueIT_vEERNS_5worldEENKUlPK16ecs_serializer_tPKS3_E_clESB_SD_, symObjAddr: 0x189C8, symBinAddr: 0x21B70, symSize: 0x44 }
  - { offset: 0x49183, size: 0x8, addend: 0x0, symName: __ZNK5flecs11entity_view2idEv, symObjAddr: 0x18A0C, symBinAddr: 0x21BB4, symSize: 0x18 }
  - { offset: 0x491A7, size: 0x8, addend: 0x0, symName: __ZNK16ecs_serializer_t5valueEyPKv, symObjAddr: 0x18A24, symBinAddr: 0x21BCC, symSize: 0x38 }
  - { offset: 0x491EA, size: 0x8, addend: 0x0, symName: __ZZN5flecs4meta1_20flecs_entity_supportINS_11entity_viewEEENS_6opaqueIT_vEERNS_5worldEENUlPS3_P11ecs_world_tyE_8__invokeES9_SB_y, symObjAddr: 0x18A5C, symBinAddr: 0x21C04, symSize: 0x38 }
  - { offset: 0x4922B, size: 0x8, addend: 0x0, symName: __ZZN5flecs4meta1_20flecs_entity_supportINS_11entity_viewEEENS_6opaqueIT_vEERNS_5worldEENKUlPS3_P11ecs_world_tyE_clES9_SB_y, symObjAddr: 0x18A94, symBinAddr: 0x21C3C, symSize: 0x44 }
  - { offset: 0x4927D, size: 0x8, addend: 0x0, symName: __ZN5flecs11entity_viewC1EP11ecs_world_ty, symObjAddr: 0x18AD8, symBinAddr: 0x21C80, symSize: 0x3C }
  - { offset: 0x492C1, size: 0x8, addend: 0x0, symName: __ZN5flecs11entity_viewC2EP11ecs_world_ty, symObjAddr: 0x18B14, symBinAddr: 0x21CBC, symSize: 0x6C }
  - { offset: 0x49305, size: 0x8, addend: 0x0, symName: __ZN5flecs2idC2EP11ecs_world_ty, symObjAddr: 0x18B80, symBinAddr: 0x21D28, symSize: 0x2C }
  - { offset: 0x49349, size: 0x8, addend: 0x0, symName: __ZN5flecs9componentINS_6entityEEC1EP11ecs_world_tPKcby, symObjAddr: 0x18BAC, symBinAddr: 0x21D54, symSize: 0x50 }
  - { offset: 0x493AD, size: 0x8, addend: 0x0, symName: __ZN5flecs9componentINS_6entityEEC2EP11ecs_world_tPKcby, symObjAddr: 0x18BFC, symBinAddr: 0x21DA4, symSize: 0x74 }
  - { offset: 0x49411, size: 0x8, addend: 0x0, symName: __ZN5flecs1_9type_implINS_6entityEE11register_idEP11ecs_world_tPKcbbby, symObjAddr: 0x18C70, symBinAddr: 0x21E18, symSize: 0x240 }
  - { offset: 0x494A3, size: 0x8, addend: 0x0, symName: __ZN5flecs1_9type_implINS_6entityEE4initEb, symObjAddr: 0x18EB0, symBinAddr: 0x22058, symSize: 0x60 }
  - { offset: 0x494C6, size: 0x8, addend: 0x0, symName: __ZN5flecs1_9type_implINS_6entityEE4sizeEv, symObjAddr: 0x1907C, symBinAddr: 0x22224, symSize: 0x9C }
  - { offset: 0x494DA, size: 0x8, addend: 0x0, symName: __ZN5flecs1_9type_implINS_6entityEE9alignmentEv, symObjAddr: 0x19118, symBinAddr: 0x222C0, symSize: 0x9C }
  - { offset: 0x494ED, size: 0x8, addend: 0x0, symName: __ZN5flecs6entityC1Ev, symObjAddr: 0x194E4, symBinAddr: 0x2268C, symSize: 0x2C }
  - { offset: 0x49515, size: 0x8, addend: 0x0, symName: __ZN5flecs1_9type_implINS_6entityEE2idEP11ecs_world_t, symObjAddr: 0x19510, symBinAddr: 0x226B8, symSize: 0x70 }
  - { offset: 0x49545, size: 0x8, addend: 0x0, symName: __ZN5flecs6opaqueINS_6entityEvED1Ev, symObjAddr: 0x19580, symBinAddr: 0x22728, symSize: 0x2C }
  - { offset: 0x4956D, size: 0x8, addend: 0x0, symName: __ZN5flecs6opaqueINS_6entityEvED2Ev, symObjAddr: 0x195AC, symBinAddr: 0x22754, symSize: 0x58 }
  - { offset: 0x49595, size: 0x8, addend: 0x0, symName: __ZN5flecs6opaqueINS_6entityEvEC1EP11ecs_world_t, symObjAddr: 0x19604, symBinAddr: 0x227AC, symSize: 0x34 }
  - { offset: 0x495CB, size: 0x8, addend: 0x0, symName: __ZN5flecs6opaqueINS_6entityEvE7as_typeEy, symObjAddr: 0x19638, symBinAddr: 0x227E0, symSize: 0x20 }
  - { offset: 0x495FD, size: 0x8, addend: 0x0, symName: __ZN5flecs6opaqueINS_6entityEvE9serializeEPFiPK16ecs_serializer_tPKS1_E, symObjAddr: 0x19658, symBinAddr: 0x22800, symSize: 0x20 }
  - { offset: 0x49639, size: 0x8, addend: 0x0, symName: __ZZN5flecs4meta1_20flecs_entity_supportINS_6entityEEENS_6opaqueIT_vEERNS_5worldEENKUlPK16ecs_serializer_tPKS3_E_cvPFiSB_SD_EEv, symObjAddr: 0x19678, symBinAddr: 0x22820, symSize: 0x18 }
  - { offset: 0x49663, size: 0x8, addend: 0x0, symName: __ZN5flecs6opaqueINS_6entityEvE13assign_entityEPFvPS1_P11ecs_world_tyE, symObjAddr: 0x19690, symBinAddr: 0x22838, symSize: 0x20 }
  - { offset: 0x496B6, size: 0x8, addend: 0x0, symName: __ZZN5flecs4meta1_20flecs_entity_supportINS_6entityEEENS_6opaqueIT_vEERNS_5worldEENKUlPS3_P11ecs_world_tyE_cvPFvS9_SB_yEEv, symObjAddr: 0x196B0, symBinAddr: 0x22858, symSize: 0x18 }
  - { offset: 0x496E0, size: 0x8, addend: 0x0, symName: __ZN5flecs6opaqueINS_6entityEvEC2EP11ecs_world_t, symObjAddr: 0x196C8, symBinAddr: 0x22870, symSize: 0x78 }
  - { offset: 0x49717, size: 0x8, addend: 0x0, symName: __ZZN5flecs4meta1_20flecs_entity_supportINS_6entityEEENS_6opaqueIT_vEERNS_5worldEENUlPK16ecs_serializer_tPKS3_E_8__invokeESB_SD_, symObjAddr: 0x19740, symBinAddr: 0x228E8, symSize: 0x30 }
  - { offset: 0x4974B, size: 0x8, addend: 0x0, symName: __ZZN5flecs4meta1_20flecs_entity_supportINS_6entityEEENS_6opaqueIT_vEERNS_5worldEENKUlPK16ecs_serializer_tPKS3_E_clESB_SD_, symObjAddr: 0x19770, symBinAddr: 0x22918, symSize: 0x44 }
  - { offset: 0x4979E, size: 0x8, addend: 0x0, symName: __ZZN5flecs4meta1_20flecs_entity_supportINS_6entityEEENS_6opaqueIT_vEERNS_5worldEENUlPS3_P11ecs_world_tyE_8__invokeES9_SB_y, symObjAddr: 0x197B4, symBinAddr: 0x2295C, symSize: 0x38 }
  - { offset: 0x497DF, size: 0x8, addend: 0x0, symName: __ZZN5flecs4meta1_20flecs_entity_supportINS_6entityEEENS_6opaqueIT_vEERNS_5worldEENKUlPS3_P11ecs_world_tyE_clES9_SB_y, symObjAddr: 0x197EC, symBinAddr: 0x22994, symSize: 0x44 }
  - { offset: 0x49831, size: 0x8, addend: 0x0, symName: __ZN5flecs6entityC1EPK11ecs_world_ty, symObjAddr: 0x19830, symBinAddr: 0x229D8, symSize: 0x3C }
  - { offset: 0x49875, size: 0x8, addend: 0x0, symName: __ZN5flecs6entityC2EPK11ecs_world_ty, symObjAddr: 0x1986C, symBinAddr: 0x22A14, symSize: 0x44 }
  - { offset: 0x49906, size: 0x8, addend: 0x0, symName: __ZNK5flecs5world9componentI9EcsScriptJRA22_KcEEENS_9componentIT_EEDpOT0_, symObjAddr: 0x198B0, symBinAddr: 0x22A58, symSize: 0x48 }
  - { offset: 0x4994C, size: 0x8, addend: 0x0, symName: __ZN5flecs9componentI9EcsScriptEC1EP11ecs_world_tPKcby, symObjAddr: 0x198F8, symBinAddr: 0x22AA0, symSize: 0x50 }
  - { offset: 0x499B0, size: 0x8, addend: 0x0, symName: __ZN5flecs9componentI9EcsScriptEC2EP11ecs_world_tPKcby, symObjAddr: 0x19948, symBinAddr: 0x22AF0, symSize: 0x74 }
  - { offset: 0x49A14, size: 0x8, addend: 0x0, symName: __ZN5flecs1_9type_implI9EcsScriptE11register_idEP11ecs_world_tPKcbbby, symObjAddr: 0x199BC, symBinAddr: 0x22B64, symSize: 0x240 }
  - { offset: 0x49AA6, size: 0x8, addend: 0x0, symName: __ZN5flecs1_9type_implI9EcsScriptE4initEb, symObjAddr: 0x19BFC, symBinAddr: 0x22DA4, symSize: 0x60 }
  - { offset: 0x49AC9, size: 0x8, addend: 0x0, symName: __ZN5flecs1_9type_implI9EcsScriptE4sizeEv, symObjAddr: 0x19DC8, symBinAddr: 0x22F70, symSize: 0x9C }
  - { offset: 0x49ADD, size: 0x8, addend: 0x0, symName: __ZN5flecs1_9type_implI9EcsScriptE9alignmentEv, symObjAddr: 0x19E64, symBinAddr: 0x2300C, symSize: 0x9C }
  - { offset: 0x49AF0, size: 0x8, addend: 0x0, symName: __ZNSt3__120__shared_ptr_emplaceIN5flecs5worldENS_9allocatorIS2_EEE8_StorageD2B8de200100Ev, symObjAddr: 0x19F28, symBinAddr: 0x230D0, symSize: 0x2C }
  - { offset: 0x49B18, size: 0x8, addend: 0x0, symName: __ZNSt3__120__shared_ptr_emplaceIN5flecs5worldENS_9allocatorIS2_EEED2Ev, symObjAddr: 0x19F54, symBinAddr: 0x230FC, symSize: 0x48 }
  - { offset: 0x49B42, size: 0x8, addend: 0x0, symName: __ZNSt3__120__shared_ptr_emplaceIN5flecs5worldENS_9allocatorIS2_EEE21__on_zero_shared_implB8de200100IS4_Li0EEEvv, symObjAddr: 0x19F9C, symBinAddr: 0x23144, symSize: 0x44 }
  - { offset: 0x49B8E, size: 0x8, addend: 0x0, symName: __ZNSt3__116allocator_traitsINS_9allocatorIN5flecs5worldEEEE7destroyB8de200100IS3_Li0EEEvRS4_PT_, symObjAddr: 0x19FE0, symBinAddr: 0x23188, symSize: 0x2C }
  - { offset: 0x49BCF, size: 0x8, addend: 0x0, symName: __ZNSt3__19allocatorIN5flecs5worldEE7destroyB8de200100EPS2_, symObjAddr: 0x1A00C, symBinAddr: 0x231B4, symSize: 0x28 }
  - { offset: 0x49C01, size: 0x8, addend: 0x0, symName: __ZNSt3__116allocator_traitsINS_9allocatorINS_20__shared_ptr_emplaceIN5flecs5worldENS1_IS4_EEEEEEE10deallocateB8de200100ERS7_PS6_m, symObjAddr: 0x1A034, symBinAddr: 0x231DC, symSize: 0x34 }
  - { offset: 0x49C43, size: 0x8, addend: 0x0, symName: __ZNSt3__114pointer_traitsIPNS_20__shared_ptr_emplaceIN5flecs5worldENS_9allocatorIS3_EEEEE10pointer_toB8de200100ERS6_, symObjAddr: 0x1A068, symBinAddr: 0x23210, symSize: 0x14 }
  - { offset: 0x49C65, size: 0x8, addend: 0x0, symName: __ZNSt3__19allocatorINS_20__shared_ptr_emplaceIN5flecs5worldENS0_IS3_EEEEE10deallocateB8de200100EPS5_m, symObjAddr: 0x1A07C, symBinAddr: 0x23224, symSize: 0x34 }
  - { offset: 0x49CA5, size: 0x8, addend: 0x0, symName: __ZNSt3__110shared_ptrIN5flecs5worldEE18__enable_weak_thisB8de200100Ez, symObjAddr: 0x1A164, symBinAddr: 0x2330C, symSize: 0x10 }
  - { offset: 0x49CCA, size: 0x8, addend: 0x0, symName: __ZNSt3__120__shared_ptr_emplaceIN5flecs5worldENS_9allocatorIS2_EEE8_Storage10__get_elemB8de200100Ev, symObjAddr: 0x1A174, symBinAddr: 0x2331C, symSize: 0x14 }
  - { offset: 0x49CEE, size: 0x8, addend: 0x0, symName: __ZNSt3__118__allocation_guardINS_9allocatorINS_20__shared_ptr_emplaceIN5flecs5worldENS1_IS4_EEEEEEED2B8de200100Ev, symObjAddr: 0x1A188, symBinAddr: 0x23330, symSize: 0x2C }
  - { offset: 0x49D16, size: 0x8, addend: 0x0, symName: __ZNSt3__118__allocation_guardINS_9allocatorINS_20__shared_ptr_emplaceIN5flecs5worldENS1_IS4_EEEEEEE9__destroyB8de200100Ev, symObjAddr: 0x1A1B4, symBinAddr: 0x2335C, symSize: 0x44 }
  - { offset: 0x49D3A, size: 0x8, addend: 0x0, symName: __ZNSt3__19allocatorIN5flecs5worldEEC2B8de200100Ev, symObjAddr: 0x1A1F8, symBinAddr: 0x233A0, symSize: 0x2C }
  - { offset: 0x49D62, size: 0x8, addend: 0x0, symName: __ZNSt3__116__non_trivial_ifILb1ENS_9allocatorIN5flecs5worldEEEEC2B8de200100Ev, symObjAddr: 0x1A224, symBinAddr: 0x233CC, symSize: 0x14 }
  - { offset: 0x49D8A, size: 0x8, addend: 0x0, symName: __ZNSt3__110shared_ptrIN5flecs5worldEEC1B8de200100EOS3_, symObjAddr: 0x1A238, symBinAddr: 0x233E0, symSize: 0x34 }
  - { offset: 0x49DC1, size: 0x8, addend: 0x0, symName: __ZNSt3__110shared_ptrIN5flecs5worldEE4swapB8de200100ERS3_, symObjAddr: 0x1A26C, symBinAddr: 0x23414, symSize: 0x44 }
  - { offset: 0x49DF4, size: 0x8, addend: 0x0, symName: __ZNSt3__110shared_ptrIN5flecs5worldEEC2B8de200100EOS3_, symObjAddr: 0x1A2B0, symBinAddr: 0x23458, symSize: 0x40 }
  - { offset: 0x49E2B, size: 0x8, addend: 0x0, symName: __ZN5flecs16observer_builderIJN7Entropy3ECS4Tags2D2EEEC1EP11ecs_world_tPKc, symObjAddr: 0x1A32C, symBinAddr: 0x234D4, symSize: 0x3C }
  - { offset: 0x49E6F, size: 0x8, addend: 0x0, symName: __ZN5flecs16observer_builderIJN7Entropy3ECS4Tags2D2EEEC2EP11ecs_world_tPKc, symObjAddr: 0x1A368, symBinAddr: 0x23510, symSize: 0x9C }
  - { offset: 0x49EB3, size: 0x8, addend: 0x0, symName: __ZN5flecs1_12node_builderINS_8observerE19ecs_observer_desc_tNS_16observer_builderIJN7Entropy3ECS4Tags2D2EEEENS_18observer_builder_iEJS8_EEC2EP11ecs_world_tPKc, symObjAddr: 0x1A404, symBinAddr: 0x235AC, symSize: 0x124 }
  - { offset: 0x49F0B, size: 0x8, addend: 0x0, symName: __ZN5flecs1_3sigIJN7Entropy3ECS4Tags2D2EEEC1EP11ecs_world_t, symObjAddr: 0x1A528, symBinAddr: 0x236D0, symSize: 0x34 }
  - { offset: 0x49F4B, size: 0x8, addend: 0x0, symName: __ZN5flecs1_3sigIJN7Entropy3ECS4Tags2D2EEE8populateIPNS_16observer_builderIJS5_EEEEEvRKT_, symObjAddr: 0x1A55C, symBinAddr: 0x23704, symSize: 0x140 }
  - { offset: 0x49FE8, size: 0x8, addend: 0x0, symName: __ZN5flecs16observer_builderIJN7Entropy3ECS4Tags2D2EEED0Ev, symObjAddr: 0x1A69C, symBinAddr: 0x23844, symSize: 0x30 }
  - { offset: 0x4A012, size: 0x8, addend: 0x0, symName: __ZN5flecs1_12node_builderINS_8observerE19ecs_observer_desc_tNS_16observer_builderIJN7Entropy3ECS4Tags2D2EEEENS_18observer_builder_iEJS8_EE7world_vEv, symObjAddr: 0x1A6CC, symBinAddr: 0x23874, symSize: 0x18 }
  - { offset: 0x4A036, size: 0x8, addend: 0x0, symName: __ZN5flecs18observer_builder_iINS_16observer_builderIJN7Entropy3ECS4Tags2D2EEEEJS5_EEC2EP19ecs_observer_desc_t, symObjAddr: 0x1A6E4, symBinAddr: 0x2388C, symSize: 0x58 }
  - { offset: 0x4A06C, size: 0x8, addend: 0x0, symName: __ZN5flecs1_12node_builderINS_8observerE19ecs_observer_desc_tNS_16observer_builderIJN7Entropy3ECS4Tags2D2EEEENS_18observer_builder_iEJS8_EED1Ev, symObjAddr: 0x1A73C, symBinAddr: 0x238E4, symSize: 0x2C }
  - { offset: 0x4A096, size: 0x8, addend: 0x0, symName: __ZN5flecs1_12node_builderINS_8observerE19ecs_observer_desc_tNS_16observer_builderIJN7Entropy3ECS4Tags2D2EEEENS_18observer_builder_iEJS8_EED0Ev, symObjAddr: 0x1A768, symBinAddr: 0x23910, symSize: 0x30 }
  - { offset: 0x4A0C0, size: 0x8, addend: 0x0, symName: __ZN5flecs15query_builder_iINS_16observer_builderIJN7Entropy3ECS4Tags2D2EEEEJS5_EEC2EP16ecs_query_desc_ti, symObjAddr: 0x1A798, symBinAddr: 0x23940, symSize: 0x58 }
  - { offset: 0x4A104, size: 0x8, addend: 0x0, symName: __ZN5flecs18observer_builder_iINS_16observer_builderIJN7Entropy3ECS4Tags2D2EEEEJS5_EED1Ev, symObjAddr: 0x1A7F0, symBinAddr: 0x23998, symSize: 0x14 }
  - { offset: 0x4A12E, size: 0x8, addend: 0x0, symName: __ZN5flecs18observer_builder_iINS_16observer_builderIJN7Entropy3ECS4Tags2D2EEEEJS5_EED0Ev, symObjAddr: 0x1A804, symBinAddr: 0x239AC, symSize: 0xC }
  - { offset: 0x4A158, size: 0x8, addend: 0x0, symName: __ZN5flecs14term_builder_iINS_16observer_builderIJN7Entropy3ECS4Tags2D2EEEEEC2Ev, symObjAddr: 0x1A810, symBinAddr: 0x239B8, symSize: 0x40 }
  - { offset: 0x4A180, size: 0x8, addend: 0x0, symName: __ZN5flecs15query_builder_iINS_16observer_builderIJN7Entropy3ECS4Tags2D2EEEEJS5_EED1Ev, symObjAddr: 0x1A850, symBinAddr: 0x239F8, symSize: 0x14 }
  - { offset: 0x4A1AA, size: 0x8, addend: 0x0, symName: __ZN5flecs15query_builder_iINS_16observer_builderIJN7Entropy3ECS4Tags2D2EEEEJS5_EED0Ev, symObjAddr: 0x1A864, symBinAddr: 0x23A0C, symSize: 0xC }
  - { offset: 0x4A1D4, size: 0x8, addend: 0x0, symName: __ZN5flecs18term_ref_builder_iINS_16observer_builderIJN7Entropy3ECS4Tags2D2EEEEEC2Ev, symObjAddr: 0x1A870, symBinAddr: 0x23A18, symSize: 0x28 }
  - { offset: 0x4A1FC, size: 0x8, addend: 0x0, symName: __ZN5flecs14term_builder_iINS_16observer_builderIJN7Entropy3ECS4Tags2D2EEEEED1Ev, symObjAddr: 0x1A898, symBinAddr: 0x23A40, symSize: 0x14 }
  - { offset: 0x4A226, size: 0x8, addend: 0x0, symName: __ZN5flecs14term_builder_iINS_16observer_builderIJN7Entropy3ECS4Tags2D2EEEEED0Ev, symObjAddr: 0x1A8AC, symBinAddr: 0x23A54, symSize: 0xC }
  - { offset: 0x4A250, size: 0x8, addend: 0x0, symName: __ZN5flecs18term_ref_builder_iINS_16observer_builderIJN7Entropy3ECS4Tags2D2EEEEED1Ev, symObjAddr: 0x1A8B8, symBinAddr: 0x23A60, symSize: 0x14 }
  - { offset: 0x4A278, size: 0x8, addend: 0x0, symName: __ZN5flecs18term_ref_builder_iINS_16observer_builderIJN7Entropy3ECS4Tags2D2EEEEED0Ev, symObjAddr: 0x1A8CC, symBinAddr: 0x23A74, symSize: 0xC }
  - { offset: 0x4A2A0, size: 0x8, addend: 0x0, symName: __ZN5flecs1_3sigIJN7Entropy3ECS4Tags2D2EEEC2EP11ecs_world_t, symObjAddr: 0x1A8D8, symBinAddr: 0x23A80, symSize: 0xB0 }
  - { offset: 0x4A2D6, size: 0x8, addend: 0x0, symName: __ZN5flecs1_9type_implIN7Entropy3ECS4Tags2D2EE2idEP11ecs_world_t, symObjAddr: 0x1A988, symBinAddr: 0x23B30, symSize: 0x70 }
  - { offset: 0x4A306, size: 0x8, addend: 0x0, symName: __ZN5flecs5arrayIyLm1EvEC1ERA1_Ky, symObjAddr: 0x1A9F8, symBinAddr: 0x23BA0, symSize: 0x34 }
  - { offset: 0x4A33C, size: 0x8, addend: 0x0, symName: __ZN5flecs5arrayINS_12inout_kind_tELm1EvEC1ERA1_KS1_, symObjAddr: 0x1AA34, symBinAddr: 0x23BDC, symSize: 0x34 }
  - { offset: 0x4A372, size: 0x8, addend: 0x0, symName: __ZN5flecs5arrayINS_11oper_kind_tELm1EvEC1ERA1_KS1_, symObjAddr: 0x1AA70, symBinAddr: 0x23C18, symSize: 0x34 }
  - { offset: 0x4A3A8, size: 0x8, addend: 0x0, symName: __ZN5flecs1_9type_implIN7Entropy3ECS4Tags2D2EE11register_idEP11ecs_world_tPKcbbby, symObjAddr: 0x1AAA4, symBinAddr: 0x23C4C, symSize: 0x240 }
  - { offset: 0x4A43A, size: 0x8, addend: 0x0, symName: __ZN5flecs1_9type_implIN7Entropy3ECS4Tags2D2EE4initEb, symObjAddr: 0x1ACE4, symBinAddr: 0x23E8C, symSize: 0x60 }
  - { offset: 0x4A45D, size: 0x8, addend: 0x0, symName: __ZN5flecs1_9type_implIN7Entropy3ECS4Tags2D2EE4sizeEv, symObjAddr: 0x1AEB0, symBinAddr: 0x24058, symSize: 0x9C }
  - { offset: 0x4A471, size: 0x8, addend: 0x0, symName: __ZN5flecs1_9type_implIN7Entropy3ECS4Tags2D2EE9alignmentEv, symObjAddr: 0x1AF4C, symBinAddr: 0x240F4, symSize: 0x9C }
  - { offset: 0x4A484, size: 0x8, addend: 0x0, symName: __ZN5flecs5arrayIyLm1EvEC2ERA1_Ky, symObjAddr: 0x1B010, symBinAddr: 0x241B8, symSize: 0xFC }
  - { offset: 0x4A4F5, size: 0x8, addend: 0x0, symName: __ZN5flecs5arrayIyLm1EvE5beginEv, symObjAddr: 0x1B10C, symBinAddr: 0x242B4, symSize: 0x34 }
  - { offset: 0x4A519, size: 0x8, addend: 0x0, symName: __ZNK5flecs14array_iteratorIyEneERKS1_, symObjAddr: 0x1B140, symBinAddr: 0x242E8, symSize: 0x2C }
  - { offset: 0x4A54B, size: 0x8, addend: 0x0, symName: __ZN5flecs5arrayIyLm1EvE3endEv, symObjAddr: 0x1B16C, symBinAddr: 0x24314, symSize: 0x34 }
  - { offset: 0x4A56F, size: 0x8, addend: 0x0, symName: __ZNK5flecs14array_iteratorIyEdeEv, symObjAddr: 0x1B1A0, symBinAddr: 0x24348, symSize: 0x20 }
  - { offset: 0x4A593, size: 0x8, addend: 0x0, symName: __ZN5flecs14array_iteratorIyEppEv, symObjAddr: 0x1B1C0, symBinAddr: 0x24368, symSize: 0x20 }
  - { offset: 0x4A5B7, size: 0x8, addend: 0x0, symName: __ZN5flecs14array_iteratorIyEC1EPyi, symObjAddr: 0x1B1E0, symBinAddr: 0x24388, symSize: 0x3C }
  - { offset: 0x4A5FB, size: 0x8, addend: 0x0, symName: __ZN5flecs14array_iteratorIyEC2EPyi, symObjAddr: 0x1B21C, symBinAddr: 0x243C4, symSize: 0x2C }
  - { offset: 0x4A63F, size: 0x8, addend: 0x0, symName: __ZN5flecs5arrayINS_12inout_kind_tELm1EvEC2ERA1_KS1_, symObjAddr: 0x1B248, symBinAddr: 0x243F0, symSize: 0xFC }
  - { offset: 0x4A6B0, size: 0x8, addend: 0x0, symName: __ZN5flecs5arrayINS_12inout_kind_tELm1EvE5beginEv, symObjAddr: 0x1B344, symBinAddr: 0x244EC, symSize: 0x34 }
  - { offset: 0x4A6D4, size: 0x8, addend: 0x0, symName: __ZNK5flecs14array_iteratorINS_12inout_kind_tEEneERKS2_, symObjAddr: 0x1B378, symBinAddr: 0x24520, symSize: 0x2C }
  - { offset: 0x4A706, size: 0x8, addend: 0x0, symName: __ZN5flecs5arrayINS_12inout_kind_tELm1EvE3endEv, symObjAddr: 0x1B3A4, symBinAddr: 0x2454C, symSize: 0x34 }
  - { offset: 0x4A72A, size: 0x8, addend: 0x0, symName: __ZNK5flecs14array_iteratorINS_12inout_kind_tEEdeEv, symObjAddr: 0x1B3D8, symBinAddr: 0x24580, symSize: 0x20 }
  - { offset: 0x4A74E, size: 0x8, addend: 0x0, symName: __ZN5flecs14array_iteratorINS_12inout_kind_tEEppEv, symObjAddr: 0x1B3F8, symBinAddr: 0x245A0, symSize: 0x20 }
  - { offset: 0x4A772, size: 0x8, addend: 0x0, symName: __ZN5flecs14array_iteratorINS_12inout_kind_tEEC1EPS1_i, symObjAddr: 0x1B418, symBinAddr: 0x245C0, symSize: 0x3C }
  - { offset: 0x4A7B6, size: 0x8, addend: 0x0, symName: __ZN5flecs14array_iteratorINS_12inout_kind_tEEC2EPS1_i, symObjAddr: 0x1B454, symBinAddr: 0x245FC, symSize: 0x2C }
  - { offset: 0x4A7FA, size: 0x8, addend: 0x0, symName: __ZN5flecs5arrayINS_11oper_kind_tELm1EvEC2ERA1_KS1_, symObjAddr: 0x1B480, symBinAddr: 0x24628, symSize: 0xFC }
  - { offset: 0x4A86B, size: 0x8, addend: 0x0, symName: __ZN5flecs5arrayINS_11oper_kind_tELm1EvE5beginEv, symObjAddr: 0x1B57C, symBinAddr: 0x24724, symSize: 0x34 }
  - { offset: 0x4A88F, size: 0x8, addend: 0x0, symName: __ZNK5flecs14array_iteratorINS_11oper_kind_tEEneERKS2_, symObjAddr: 0x1B5B0, symBinAddr: 0x24758, symSize: 0x2C }
  - { offset: 0x4A8C1, size: 0x8, addend: 0x0, symName: __ZN5flecs5arrayINS_11oper_kind_tELm1EvE3endEv, symObjAddr: 0x1B5DC, symBinAddr: 0x24784, symSize: 0x34 }
  - { offset: 0x4A8E5, size: 0x8, addend: 0x0, symName: __ZNK5flecs14array_iteratorINS_11oper_kind_tEEdeEv, symObjAddr: 0x1B610, symBinAddr: 0x247B8, symSize: 0x20 }
  - { offset: 0x4A909, size: 0x8, addend: 0x0, symName: __ZN5flecs14array_iteratorINS_11oper_kind_tEEppEv, symObjAddr: 0x1B630, symBinAddr: 0x247D8, symSize: 0x20 }
  - { offset: 0x4A92D, size: 0x8, addend: 0x0, symName: __ZN5flecs14array_iteratorINS_11oper_kind_tEEC1EPS1_i, symObjAddr: 0x1B650, symBinAddr: 0x247F8, symSize: 0x3C }
  - { offset: 0x4A971, size: 0x8, addend: 0x0, symName: __ZN5flecs14array_iteratorINS_11oper_kind_tEEC2EPS1_i, symObjAddr: 0x1B68C, symBinAddr: 0x24834, symSize: 0x2C }
  - { offset: 0x4A9B5, size: 0x8, addend: 0x0, symName: __ZN5flecs15query_builder_iINS_16observer_builderIJN7Entropy3ECS4Tags2D2EEEEJS5_EE4withEy, symObjAddr: 0x1B6B8, symBinAddr: 0x24860, symSize: 0xA4 }
  - { offset: 0x4A9E7, size: 0x8, addend: 0x0, symName: __ZN5flecs14term_builder_iINS_16observer_builderIJN7Entropy3ECS4Tags2D2EEEEE5inoutENS_12inout_kind_tE, symObjAddr: 0x1B75C, symBinAddr: 0x24904, symSize: 0x40 }
  - { offset: 0x4AA1A, size: 0x8, addend: 0x0, symName: __ZN5flecs5arrayINS_12inout_kind_tELm1EvEixEm, symObjAddr: 0x1B79C, symBinAddr: 0x24944, symSize: 0x20 }
  - { offset: 0x4AA4C, size: 0x8, addend: 0x0, symName: __ZN5flecs14term_builder_iINS_16observer_builderIJN7Entropy3ECS4Tags2D2EEEEE4operENS_11oper_kind_tE, symObjAddr: 0x1B7BC, symBinAddr: 0x24964, symSize: 0x40 }
  - { offset: 0x4AA7F, size: 0x8, addend: 0x0, symName: __ZN5flecs5arrayINS_11oper_kind_tELm1EvEixEm, symObjAddr: 0x1B7FC, symBinAddr: 0x249A4, symSize: 0x20 }
  - { offset: 0x4AAB1, size: 0x8, addend: 0x0, symName: __ZN5flecs15query_builder_iINS_16observer_builderIJN7Entropy3ECS4Tags2D2EEEEJS5_EE4termEv, symObjAddr: 0x1B81C, symBinAddr: 0x249C4, symSize: 0x178 }
  - { offset: 0x4AAE5, size: 0x8, addend: 0x0, symName: __ZN5flecs4termC1Ey, symObjAddr: 0x1B994, symBinAddr: 0x24B3C, symSize: 0x34 }
  - { offset: 0x4AB1B, size: 0x8, addend: 0x0, symName: __ZNK5flecs4termcv10ecs_term_tEv, symObjAddr: 0x1B9C8, symBinAddr: 0x24B70, symSize: 0x38 }
  - { offset: 0x4AB3F, size: 0x8, addend: 0x0, symName: __ZN5flecs4termD1Ev, symObjAddr: 0x1BA00, symBinAddr: 0x24BA8, symSize: 0x2C }
  - { offset: 0x4AB69, size: 0x8, addend: 0x0, symName: __ZN5flecs15query_builder_iINS_16observer_builderIJN7Entropy3ECS4Tags2D2EEEEJS5_EEcvRS6_Ev, symObjAddr: 0x1BA2C, symBinAddr: 0x24BD4, symSize: 0x14 }
  - { offset: 0x4AB8D, size: 0x8, addend: 0x0, symName: __ZN5flecs14term_builder_iINS_16observer_builderIJN7Entropy3ECS4Tags2D2EEEEE8set_termEP10ecs_term_t, symObjAddr: 0x1BA40, symBinAddr: 0x24BE8, symSize: 0x50 }
  - { offset: 0x4ABC0, size: 0x8, addend: 0x0, symName: __ZN5flecs4termC2Ey, symObjAddr: 0x1BA90, symBinAddr: 0x24C38, symSize: 0xA8 }
  - { offset: 0x4ABF6, size: 0x8, addend: 0x0, symName: __ZN5flecs14term_builder_iINS_4termEEC2EP10ecs_term_t, symObjAddr: 0x1BB38, symBinAddr: 0x24CE0, symSize: 0x74 }
  - { offset: 0x4AC2C, size: 0x8, addend: 0x0, symName: __ZN5flecs4termD0Ev, symObjAddr: 0x1BBAC, symBinAddr: 0x24D54, symSize: 0x30 }
  - { offset: 0x4AC56, size: 0x8, addend: 0x0, symName: __ZN5flecs4term7world_vEv, symObjAddr: 0x1BBDC, symBinAddr: 0x24D84, symSize: 0x18 }
  - { offset: 0x4AC7A, size: 0x8, addend: 0x0, symName: __ZN5flecs18term_ref_builder_iINS_4termEEC2Ev, symObjAddr: 0x1BBF4, symBinAddr: 0x24D9C, symSize: 0x28 }
  - { offset: 0x4ACA2, size: 0x8, addend: 0x0, symName: __ZN5flecs14term_builder_iINS_4termEE8set_termEP10ecs_term_t, symObjAddr: 0x1BC1C, symBinAddr: 0x24DC4, symSize: 0x50 }
  - { offset: 0x4ACD5, size: 0x8, addend: 0x0, symName: __ZN5flecs18term_ref_builder_iINS_4termEED2Ev, symObjAddr: 0x1BC6C, symBinAddr: 0x24E14, symSize: 0x14 }
  - { offset: 0x4ACFD, size: 0x8, addend: 0x0, symName: __ZN5flecs14term_builder_iINS_4termEED1Ev, symObjAddr: 0x1BC80, symBinAddr: 0x24E28, symSize: 0x14 }
  - { offset: 0x4AD27, size: 0x8, addend: 0x0, symName: __ZN5flecs14term_builder_iINS_4termEED0Ev, symObjAddr: 0x1BC94, symBinAddr: 0x24E3C, symSize: 0xC }
  - { offset: 0x4AD51, size: 0x8, addend: 0x0, symName: __ZN5flecs18term_ref_builder_iINS_4termEED1Ev, symObjAddr: 0x1BCA0, symBinAddr: 0x24E48, symSize: 0x14 }
  - { offset: 0x4AD79, size: 0x8, addend: 0x0, symName: __ZN5flecs18term_ref_builder_iINS_4termEED0Ev, symObjAddr: 0x1BCB4, symBinAddr: 0x24E5C, symSize: 0xC }
  - { offset: 0x4ADA1, size: 0x8, addend: 0x0, symName: __ZN5flecs4termD2Ev, symObjAddr: 0x1BCC0, symBinAddr: 0x24E68, symSize: 0x2C }
  - { offset: 0x4ADCB, size: 0x8, addend: 0x0, symName: __ZN5flecs14term_builder_iINS_4termEED2Ev, symObjAddr: 0x1BCEC, symBinAddr: 0x24E94, symSize: 0x2C }
  - { offset: 0x4ADF5, size: 0x8, addend: 0x0, symName: __ZN5flecs14term_builder_iINS_16observer_builderIJN7Entropy3ECS4Tags2D2EEEEE11assert_termEv, symObjAddr: 0x1BD18, symBinAddr: 0x24EC0, symSize: 0x9C }
  - { offset: 0x4AE19, size: 0x8, addend: 0x0, symName: __ZN5flecs14term_builder_iINS_16observer_builderIJN7Entropy3ECS4Tags2D2EEEEEcvRS6_Ev, symObjAddr: 0x1BDB4, symBinAddr: 0x24F5C, symSize: 0x14 }
  - { offset: 0x4AE3D, size: 0x8, addend: 0x0, symName: __ZN5flecs18observer_builder_iINS_16observer_builderIJN7Entropy3ECS4Tags2D2EEEEJS5_EEcvRS6_Ev, symObjAddr: 0x1BDC8, symBinAddr: 0x24F70, symSize: 0x14 }
  - { offset: 0x4AE61, size: 0x8, addend: 0x0, symName: '__ZN5flecs1_13each_delegateIZN7Entropy3ECS5WorldC1EvE3$_0JNS3_4Tags2D2EEEC1ILi0EEEOS5_', symObjAddr: 0x1BDDC, symBinAddr: 0x24F84, symSize: 0x34 }
  - { offset: 0x4AE9D, size: 0x8, addend: 0x0, symName: '__ZN5flecs1_13each_delegateIZN7Entropy3ECS5WorldC1EvE3$_0JNS3_4Tags2D2EEE3runEP10ecs_iter_t', symObjAddr: 0x1BE10, symBinAddr: 0x24FB8, symSize: 0xA4 }
  - { offset: 0x4AED0, size: 0x8, addend: 0x0, symName: __ZN5flecs8observerC1EP11ecs_world_tP19ecs_observer_desc_t, symObjAddr: 0x1BEFC, symBinAddr: 0x250A4, symSize: 0x3C }
  - { offset: 0x4AF14, size: 0x8, addend: 0x0, symName: '__ZN5flecs1_13each_delegateIZN7Entropy3ECS5WorldC1EvE3$_0JNS3_4Tags2D2EEEC2ILi0EEEOS5_', symObjAddr: 0x1BF38, symBinAddr: 0x250E0, symSize: 0x24 }
  - { offset: 0x4AF50, size: 0x8, addend: 0x0, symName: '__ZNK5flecs1_13each_delegateIZN7Entropy3ECS5WorldC1EvE3$_0JNS3_4Tags2D2EEE6invokeEP10ecs_iter_t', symObjAddr: 0x1BF5C, symBinAddr: 0x25104, symSize: 0xAC }
  - { offset: 0x4AFD0, size: 0x8, addend: 0x0, symName: __ZN5flecs1_10field_ptrsIJN7Entropy3ECS4Tags2D2EEEC1Ev, symObjAddr: 0x1C008, symBinAddr: 0x251B0, symSize: 0x2C }
  - { offset: 0x4AFFA, size: 0x8, addend: 0x0, symName: __ZN5flecs1_10field_ptrsIJN7Entropy3ECS4Tags2D2EEE8populateEPK10ecs_iter_t, symObjAddr: 0x1C034, symBinAddr: 0x251DC, symSize: 0x34 }
  - { offset: 0x4B031, size: 0x8, addend: 0x0, symName: '__ZN5flecs1_13each_delegateIZN7Entropy3ECS5WorldC1EvE3$_0JNS3_4Tags2D2EEE13invoke_unpackINS0_14each_ref_fieldEJELi0EEEvP10ecs_iter_tRKS5_mRNS_5arrayINS0_9field_ptrELm1EvEEDpT0_', symObjAddr: 0x1C068, symBinAddr: 0x25210, symSize: 0x80 }
  - { offset: 0x4B095, size: 0x8, addend: 0x0, symName: __ZN5flecs1_10field_ptrsIJN7Entropy3ECS4Tags2D2EEE13populate_selfEPK10ecs_iter_t, symObjAddr: 0x1C0E8, symBinAddr: 0x25290, symSize: 0x34 }
  - { offset: 0x4B0C7, size: 0x8, addend: 0x0, symName: '__ZN5flecs1_13each_delegateIZN7Entropy3ECS5WorldC1EvE3$_0JNS3_4Tags2D2EEE13invoke_unpackINS0_10each_fieldEJELi0EEEvP10ecs_iter_tRKS5_mRNS_5arrayINS0_9field_ptrELm1EvEEDpT0_', symObjAddr: 0x1C11C, symBinAddr: 0x252C4, symSize: 0x80 }
  - { offset: 0x4B12B, size: 0x8, addend: 0x0, symName: __ZN5flecs1_10field_ptrsIJN7Entropy3ECS4Tags2D2EEEC2Ev, symObjAddr: 0x1C19C, symBinAddr: 0x25344, symSize: 0x2C }
  - { offset: 0x4B155, size: 0x8, addend: 0x0, symName: __ZN5flecs5arrayINS_1_9field_ptrELm1EvEC1Ev, symObjAddr: 0x1C1C8, symBinAddr: 0x25370, symSize: 0x2C }
  - { offset: 0x4B17D, size: 0x8, addend: 0x0, symName: __ZN5flecs5arrayINS_1_9field_ptrELm1EvEC2Ev, symObjAddr: 0x1C1F4, symBinAddr: 0x2539C, symSize: 0x60 }
  - { offset: 0x4B1AA, size: 0x8, addend: 0x0, symName: __ZN5flecs1_9field_ptrC1Ev, symObjAddr: 0x1C254, symBinAddr: 0x253FC, symSize: 0x2C }
  - { offset: 0x4B1D4, size: 0x8, addend: 0x0, symName: __ZN5flecs1_9field_ptrC2Ev, symObjAddr: 0x1C280, symBinAddr: 0x25428, symSize: 0x24 }
  - { offset: 0x4B1FE, size: 0x8, addend: 0x0, symName: __ZN5flecs1_10field_ptrsIJN7Entropy3ECS4Tags2D2EEE8populateIPS5_JES5_Li0EEEvPK10ecs_iter_tmT_DpT0_, symObjAddr: 0x1C2A4, symBinAddr: 0x2544C, symSize: 0x120 }
  - { offset: 0x4B265, size: 0x8, addend: 0x0, symName: __ZN5flecs5arrayINS_1_9field_ptrELm1EvEixEm, symObjAddr: 0x1C3C4, symBinAddr: 0x2556C, symSize: 0x20 }
  - { offset: 0x4B297, size: 0x8, addend: 0x0, symName: __ZN5flecs1_10field_ptrsIJN7Entropy3ECS4Tags2D2EEE8populateEPK10ecs_iter_tm, symObjAddr: 0x1C3E4, symBinAddr: 0x2558C, symSize: 0x18 }
  - { offset: 0x4B2CF, size: 0x8, addend: 0x0, symName: '__ZN5flecs1_13each_delegateIZN7Entropy3ECS5WorldC1EvE3$_0JNS3_4Tags2D2EEE13invoke_unpackINS0_14each_ref_fieldEJNS0_9field_ptrEELi0EEEvP10ecs_iter_tRKS5_mRNS_5arrayISB_Lm1EvEEDpT0_', symObjAddr: 0x1C3FC, symBinAddr: 0x255A4, symSize: 0xDC }
  - { offset: 0x4B36F, size: 0x8, addend: 0x0, symName: '__ZN5flecs1_13each_delegateIZN7Entropy3ECS5WorldC1EvE3$_0JNS3_4Tags2D2EEE15invoke_callbackINS0_14each_ref_fieldEJNS0_9field_ptrEES5_Li0EEEvP10ecs_iter_tRKS5_mDpT0_', symObjAddr: 0x1C4D8, symBinAddr: 0x25680, symSize: 0x70 }
  - { offset: 0x4B3E7, size: 0x8, addend: 0x0, symName: '__ZZN7Entropy3ECS5WorldC1EvENK3$_0clENS0_4Tags2D2E', symObjAddr: 0x1C548, symBinAddr: 0x256F0, symSize: 0x270 }
  - { offset: 0x4B444, size: 0x8, addend: 0x0, symName: __ZN5flecs1_14each_ref_fieldIN7Entropy3ECS4Tags2D2EiEC1EPK10ecs_iter_tRNS0_9field_ptrEm, symObjAddr: 0x1C7B8, symBinAddr: 0x25960, symSize: 0x44 }
  - { offset: 0x4B496, size: 0x8, addend: 0x0, symName: __ZN5flecs1_10each_fieldIN7Entropy3ECS4Tags2D2EiE7get_rowEv, symObjAddr: 0x1C7FC, symBinAddr: 0x259A4, symSize: 0x24 }
  - { offset: 0x4B4BA, size: 0x8, addend: 0x0, symName: __ZNKSt3__110shared_ptrIN7Entropy9Renderers9IRendererEEptB8de200100Ev, symObjAddr: 0x1C820, symBinAddr: 0x259C8, symSize: 0x18 }
  - { offset: 0x4B4DE, size: 0x8, addend: 0x0, symName: __ZNSt3__16vectorIN7Entropy6Vulkan4Data10TwoDVertexENS_9allocatorIS4_EEE9push_backB8de200100EOS4_, symObjAddr: 0x1C838, symBinAddr: 0x259E0, symSize: 0x2C }
  - { offset: 0x4B511, size: 0x8, addend: 0x0, symName: __ZN3glm3vecILi2EfLNS_9qualifierE0EEC1Eff, symObjAddr: 0x1C8A8, symBinAddr: 0x25A0C, symSize: 0x3C }
  - { offset: 0x4B555, size: 0x8, addend: 0x0, symName: __ZNSt3__16vectorItNS_9allocatorItEEEaSB8de200100ESt16initializer_listItE, symObjAddr: 0x1C8E4, symBinAddr: 0x25A48, symSize: 0x60 }
  - { offset: 0x4B58E, size: 0x8, addend: 0x0, symName: __ZNSt3__16vectorIN7Entropy6Vulkan4Data16InstanceDataTwoDENS_9allocatorIS4_EEE12emplace_backIJS4_EEERS4_DpOT_, symObjAddr: 0x1C944, symBinAddr: 0x25AA8, symSize: 0x88 }
  - { offset: 0x4B5DC, size: 0x8, addend: 0x0, symName: __ZN3glm3vecILi4EfLNS_9qualifierE0EEC1Effff, symObjAddr: 0x1C9CC, symBinAddr: 0x25B30, symSize: 0x4C }
  - { offset: 0x4B642, size: 0x8, addend: 0x0, symName: __ZNSt3__16vectorIN7Entropy6Vulkan4Data10TwoDVertexENS_9allocatorIS4_EEE12emplace_backIJS4_EEERS4_DpOT_, symObjAddr: 0x1CA18, symBinAddr: 0x25B7C, symSize: 0x88 }
  - { offset: 0x4B690, size: 0x8, addend: 0x0, symName: __ZNSt3__16vectorIN7Entropy6Vulkan4Data10TwoDVertexENS_9allocatorIS4_EEE22__construct_one_at_endB8de200100IJS4_EEEvDpOT_, symObjAddr: 0x1CAA0, symBinAddr: 0x25C04, symSize: 0x84 }
  - { offset: 0x4B6DE, size: 0x8, addend: 0x0, symName: __ZNSt3__16vectorIN7Entropy6Vulkan4Data10TwoDVertexENS_9allocatorIS4_EEE24__emplace_back_slow_pathIJS4_EEEPS4_DpOT_, symObjAddr: 0x1CB24, symBinAddr: 0x25C88, symSize: 0xD0 }
  - { offset: 0x4B745, size: 0x8, addend: 0x0, symName: __ZNSt3__16vectorIN7Entropy6Vulkan4Data10TwoDVertexENS_9allocatorIS4_EEE21_ConstructTransactionC1B8de200100ERS7_m, symObjAddr: 0x1CBF4, symBinAddr: 0x25D58, symSize: 0x3C }
  - { offset: 0x4B78B, size: 0x8, addend: 0x0, symName: __ZNSt3__116allocator_traitsINS_9allocatorIN7Entropy6Vulkan4Data10TwoDVertexEEEE9constructB8de200100IS5_JS5_ELi0EEEvRS6_PT_DpOT0_, symObjAddr: 0x1CC30, symBinAddr: 0x25D94, symSize: 0x34 }
  - { offset: 0x4B7E6, size: 0x8, addend: 0x0, symName: __ZNSt3__16vectorIN7Entropy6Vulkan4Data10TwoDVertexENS_9allocatorIS4_EEE21_ConstructTransactionD1B8de200100Ev, symObjAddr: 0x1CC78, symBinAddr: 0x25DDC, symSize: 0x2C }
  - { offset: 0x4B80E, size: 0x8, addend: 0x0, symName: __ZNSt3__16vectorIN7Entropy6Vulkan4Data10TwoDVertexENS_9allocatorIS4_EEE21_ConstructTransactionC2B8de200100ERS7_m, symObjAddr: 0x1CCA4, symBinAddr: 0x25E08, symSize: 0x4C }
  - { offset: 0x4B854, size: 0x8, addend: 0x0, symName: __ZNSt3__19allocatorIN7Entropy6Vulkan4Data10TwoDVertexEE9constructB8de200100IS4_JS4_EEEvPT_DpOT0_, symObjAddr: 0x1CCF0, symBinAddr: 0x25E54, symSize: 0x30 }
  - { offset: 0x4B8A8, size: 0x8, addend: 0x0, symName: __ZNSt3__16vectorIN7Entropy6Vulkan4Data10TwoDVertexENS_9allocatorIS4_EEE21_ConstructTransactionD2B8de200100Ev, symObjAddr: 0x1CD20, symBinAddr: 0x25E84, symSize: 0x20 }
  - { offset: 0x4B8D1, size: 0x8, addend: 0x0, symName: __ZNKSt3__16vectorIN7Entropy6Vulkan4Data10TwoDVertexENS_9allocatorIS4_EEE11__recommendB8de200100Em, symObjAddr: 0x1CD40, symBinAddr: 0x25EA4, symSize: 0xA8 }
  - { offset: 0x4B926, size: 0x8, addend: 0x0, symName: __ZNKSt3__16vectorIN7Entropy6Vulkan4Data10TwoDVertexENS_9allocatorIS4_EEE4sizeB8de200100Ev, symObjAddr: 0x1CDE8, symBinAddr: 0x25F4C, symSize: 0x28 }
  - { offset: 0x4B94B, size: 0x8, addend: 0x0, symName: __ZNSt3__114__split_bufferIN7Entropy6Vulkan4Data10TwoDVertexERNS_9allocatorIS4_EEEC1EmmS7_, symObjAddr: 0x1CE10, symBinAddr: 0x25F74, symSize: 0x44 }
  - { offset: 0x4B9A0, size: 0x8, addend: 0x0, symName: __ZNSt3__16vectorIN7Entropy6Vulkan4Data10TwoDVertexENS_9allocatorIS4_EEE26__swap_out_circular_bufferERNS_14__split_bufferIS4_RS6_EE, symObjAddr: 0x1CE54, symBinAddr: 0x25FB8, symSize: 0x104 }
  - { offset: 0x4B9E6, size: 0x8, addend: 0x0, symName: __ZNSt3__114__split_bufferIN7Entropy6Vulkan4Data10TwoDVertexERNS_9allocatorIS4_EEED1Ev, symObjAddr: 0x1CF58, symBinAddr: 0x260BC, symSize: 0x2C }
  - { offset: 0x4BA10, size: 0x8, addend: 0x0, symName: __ZNKSt3__16vectorIN7Entropy6Vulkan4Data10TwoDVertexENS_9allocatorIS4_EEE8max_sizeB8de200100Ev, symObjAddr: 0x1CF84, symBinAddr: 0x260E8, symSize: 0x5C }
  - { offset: 0x4BA35, size: 0x8, addend: 0x0, symName: __ZNSt3__16vectorIN7Entropy6Vulkan4Data10TwoDVertexENS_9allocatorIS4_EEE20__throw_length_errorB8de200100Ev, symObjAddr: 0x1CFE0, symBinAddr: 0x26144, symSize: 0x14 }
  - { offset: 0x4BA48, size: 0x8, addend: 0x0, symName: __ZNKSt3__16vectorIN7Entropy6Vulkan4Data10TwoDVertexENS_9allocatorIS4_EEE8capacityB8de200100Ev, symObjAddr: 0x1CFF4, symBinAddr: 0x26158, symSize: 0x28 }
  - { offset: 0x4BA76, size: 0x8, addend: 0x0, symName: __ZNSt3__116allocator_traitsINS_9allocatorIN7Entropy6Vulkan4Data10TwoDVertexEEEE8max_sizeB8de200100IS6_Li0EEEmRKS6_, symObjAddr: 0x1D074, symBinAddr: 0x261D8, symSize: 0x24 }
  - { offset: 0x4BAA9, size: 0x8, addend: 0x0, symName: __ZNSt3__114numeric_limitsIlE3maxB8de200100Ev, symObjAddr: 0x1D098, symBinAddr: 0x261FC, symSize: 0x14 }
  - { offset: 0x4BAC6, size: 0x8, addend: 0x0, symName: __ZNKSt3__16__lessIvvEclB8de200100ImmEEbRKT_RKT0_, symObjAddr: 0x1D100, symBinAddr: 0x26264, symSize: 0x30 }
  - { offset: 0x4BB18, size: 0x8, addend: 0x0, symName: __ZNKSt3__19allocatorIN7Entropy6Vulkan4Data10TwoDVertexEE8max_sizeB8de200100Ev, symObjAddr: 0x1D130, symBinAddr: 0x26294, symSize: 0x18 }
  - { offset: 0x4BB3C, size: 0x8, addend: 0x0, symName: __ZNSt3__123__libcpp_numeric_limitsIlLb1EE3maxB8de200100Ev, symObjAddr: 0x1D148, symBinAddr: 0x262AC, symSize: 0x8 }
  - { offset: 0x4BB4F, size: 0x8, addend: 0x0, symName: __ZNSt12length_errorC1B8de200100EPKc, symObjAddr: 0x1D1B4, symBinAddr: 0x26318, symSize: 0x34 }
  - { offset: 0x4BB85, size: 0x8, addend: 0x0, symName: __ZNSt12length_errorC2B8de200100EPKc, symObjAddr: 0x1D1E8, symBinAddr: 0x2634C, symSize: 0x44 }
  - { offset: 0x4BBBC, size: 0x8, addend: 0x0, symName: __ZNSt3__114__split_bufferIN7Entropy6Vulkan4Data10TwoDVertexERNS_9allocatorIS4_EEEC2EmmS7_, symObjAddr: 0x1D280, symBinAddr: 0x263E4, symSize: 0xC4 }
  - { offset: 0x4BC2F, size: 0x8, addend: 0x0, symName: __ZNSt3__19allocatorIN7Entropy6Vulkan4Data10TwoDVertexEE8allocateB8de200100Em, symObjAddr: 0x1D384, symBinAddr: 0x264E8, symSize: 0x50 }
  - { offset: 0x4BC61, size: 0x8, addend: 0x0, symName: __ZNKSt3__16vectorIN7Entropy6Vulkan4Data10TwoDVertexENS_9allocatorIS4_EEE17__annotate_deleteB8de200100Ev, symObjAddr: 0x1D494, symBinAddr: 0x265F8, symSize: 0x10 }
  - { offset: 0x4BC85, size: 0x8, addend: 0x0, symName: __ZNKSt3__16vectorIN7Entropy6Vulkan4Data10TwoDVertexENS_9allocatorIS4_EEE14__annotate_newB8de200100Em, symObjAddr: 0x1D540, symBinAddr: 0x266A4, symSize: 0x14 }
  - { offset: 0x4BCB9, size: 0x8, addend: 0x0, symName: __ZNSt3__114__split_bufferIN7Entropy6Vulkan4Data10TwoDVertexERNS_9allocatorIS4_EEED2Ev, symObjAddr: 0x1D554, symBinAddr: 0x266B8, symSize: 0x7C }
  - { offset: 0x4BCE3, size: 0x8, addend: 0x0, symName: __ZNSt3__114__split_bufferIN7Entropy6Vulkan4Data10TwoDVertexERNS_9allocatorIS4_EEE5clearB8de200100Ev, symObjAddr: 0x1D5D0, symBinAddr: 0x26734, symSize: 0x28 }
  - { offset: 0x4BD07, size: 0x8, addend: 0x0, symName: __ZNSt3__116allocator_traitsINS_9allocatorIN7Entropy6Vulkan4Data10TwoDVertexEEEE10deallocateB8de200100ERS6_PS5_m, symObjAddr: 0x1D5F8, symBinAddr: 0x2675C, symSize: 0x34 }
  - { offset: 0x4BD48, size: 0x8, addend: 0x0, symName: __ZNKSt3__114__split_bufferIN7Entropy6Vulkan4Data10TwoDVertexERNS_9allocatorIS4_EEE8capacityB8de200100Ev, symObjAddr: 0x1D62C, symBinAddr: 0x26790, symSize: 0x28 }
  - { offset: 0x4BD6C, size: 0x8, addend: 0x0, symName: __ZNSt3__114__split_bufferIN7Entropy6Vulkan4Data10TwoDVertexERNS_9allocatorIS4_EEE17__destruct_at_endB8de200100EPS4_, symObjAddr: 0x1D654, symBinAddr: 0x267B8, symSize: 0x2C }
  - { offset: 0x4BD9F, size: 0x8, addend: 0x0, symName: __ZNSt3__114__split_bufferIN7Entropy6Vulkan4Data10TwoDVertexERNS_9allocatorIS4_EEE17__destruct_at_endB8de200100EPS4_NS_17integral_constantIbLb0EEE, symObjAddr: 0x1D680, symBinAddr: 0x267E4, symSize: 0x78 }
  - { offset: 0x4BDDD, size: 0x8, addend: 0x0, symName: __ZNSt3__116allocator_traitsINS_9allocatorIN7Entropy6Vulkan4Data10TwoDVertexEEEE7destroyB8de200100IS5_Li0EEEvRS6_PT_, symObjAddr: 0x1D6F8, symBinAddr: 0x2685C, symSize: 0x2C }
  - { offset: 0x4BE1E, size: 0x8, addend: 0x0, symName: __ZNSt3__19allocatorIN7Entropy6Vulkan4Data10TwoDVertexEE7destroyB8de200100EPS4_, symObjAddr: 0x1D724, symBinAddr: 0x26888, symSize: 0x14 }
  - { offset: 0x4BE50, size: 0x8, addend: 0x0, symName: __ZNSt3__19allocatorIN7Entropy6Vulkan4Data10TwoDVertexEE10deallocateB8de200100EPS4_m, symObjAddr: 0x1D738, symBinAddr: 0x2689C, symSize: 0x34 }
  - { offset: 0x4BE90, size: 0x8, addend: 0x0, symName: __ZN3glm3vecILi2EfLNS_9qualifierE0EEC2Eff, symObjAddr: 0x1D85C, symBinAddr: 0x26988, symSize: 0x2C }
  - { offset: 0x4BED4, size: 0x8, addend: 0x0, symName: __ZNSt3__16vectorItNS_9allocatorItEEE6assignB8de200100IPKtLi0EEEvT_S7_, symObjAddr: 0x1D888, symBinAddr: 0x269B4, symSize: 0x5C }
  - { offset: 0x4BF25, size: 0x8, addend: 0x0, symName: __ZNKSt16initializer_listItE5beginB8de200100Ev, symObjAddr: 0x1D8E4, symBinAddr: 0x26A10, symSize: 0x18 }
  - { offset: 0x4BF49, size: 0x8, addend: 0x0, symName: __ZNKSt16initializer_listItE3endB8de200100Ev, symObjAddr: 0x1D8FC, symBinAddr: 0x26A28, symSize: 0x20 }
  - { offset: 0x4BF6D, size: 0x8, addend: 0x0, symName: __ZNSt3__16vectorItNS_9allocatorItEEE18__assign_with_sizeB8de200100IPKtS6_EEvT_T0_l, symObjAddr: 0x1D91C, symBinAddr: 0x26A48, symSize: 0x15C }
  - { offset: 0x4C01E, size: 0x8, addend: 0x0, symName: __ZNKSt3__16vectorItNS_9allocatorItEEE8capacityB8de200100Ev, symObjAddr: 0x1DAA4, symBinAddr: 0x26BD0, symSize: 0x28 }
  - { offset: 0x4C042, size: 0x8, addend: 0x0, symName: __ZNKSt3__16vectorItNS_9allocatorItEEE4sizeB8de200100Ev, symObjAddr: 0x1DACC, symBinAddr: 0x26BF8, symSize: 0x28 }
  - { offset: 0x4C066, size: 0x8, addend: 0x0, symName: __ZNSt3__16vectorItNS_9allocatorItEEE18__construct_at_endIPKtS6_EEvT_T0_m, symObjAddr: 0x1DB98, symBinAddr: 0x26CC4, symSize: 0x88 }
  - { offset: 0x4C0D9, size: 0x8, addend: 0x0, symName: __ZNSt3__16vectorItNS_9allocatorItEEE17__destruct_at_endB8de200100EPt, symObjAddr: 0x1DC64, symBinAddr: 0x26D90, symSize: 0x4C }
  - { offset: 0x4C11D, size: 0x8, addend: 0x0, symName: __ZNSt3__16vectorItNS_9allocatorItEEE13__vdeallocateEv, symObjAddr: 0x1DCB0, symBinAddr: 0x26DDC, symSize: 0x74 }
  - { offset: 0x4C143, size: 0x8, addend: 0x0, symName: __ZNSt3__16vectorItNS_9allocatorItEEE11__vallocateB8de200100Em, symObjAddr: 0x1DD24, symBinAddr: 0x26E50, symSize: 0x8C }
  - { offset: 0x4C187, size: 0x8, addend: 0x0, symName: __ZNKSt3__16vectorItNS_9allocatorItEEE11__recommendB8de200100Em, symObjAddr: 0x1DDB0, symBinAddr: 0x26EDC, symSize: 0xA8 }
  - { offset: 0x4C1F5, size: 0x8, addend: 0x0, symName: __ZNSt3__16vectorItNS_9allocatorItEEE21_ConstructTransactionC1B8de200100ERS3_m, symObjAddr: 0x1DF00, symBinAddr: 0x2702C, symSize: 0x3C }
  - { offset: 0x4C23B, size: 0x8, addend: 0x0, symName: __ZNSt3__16vectorItNS_9allocatorItEEE21_ConstructTransactionD1B8de200100Ev, symObjAddr: 0x1DFBC, symBinAddr: 0x270E8, symSize: 0x2C }
  - { offset: 0x4C263, size: 0x8, addend: 0x0, symName: __ZNSt3__16vectorItNS_9allocatorItEEE21_ConstructTransactionC2B8de200100ERS3_m, symObjAddr: 0x1DFE8, symBinAddr: 0x27114, symSize: 0x44 }
  - { offset: 0x4C2C9, size: 0x8, addend: 0x0, symName: __ZNSt3__14pairIPKtS2_EC1B8de200100IS2_S2_Li0EEEOT_OT0_, symObjAddr: 0x1E238, symBinAddr: 0x27364, symSize: 0x3C }
  - { offset: 0x4C325, size: 0x8, addend: 0x0, symName: __ZNSt3__14pairIPKtS2_EC2B8de200100IS2_S2_Li0EEEOT_OT0_, symObjAddr: 0x1E274, symBinAddr: 0x273A0, symSize: 0x34 }
  - { offset: 0x4C381, size: 0x8, addend: 0x0, symName: __ZNSt3__118__unwrap_iter_implIPKtLb1EE8__unwrapB8de200100ES2_, symObjAddr: 0x1E2A8, symBinAddr: 0x273D4, symSize: 0x24 }
  - { offset: 0x4C3A3, size: 0x8, addend: 0x0, symName: __ZNSt3__129_AllocatorDestroyRangeReverseINS_9allocatorItEEPtEC1B8de200100ERS2_RS3_S6_, symObjAddr: 0x1E32C, symBinAddr: 0x27458, symSize: 0x44 }
  - { offset: 0x4C3F8, size: 0x8, addend: 0x0, symName: __ZNSt3__116allocator_traitsINS_9allocatorItEEE9constructB8de200100ItJRKtELi0EEEvRS2_PT_DpOT0_, symObjAddr: 0x1E370, symBinAddr: 0x2749C, symSize: 0x34 }
  - { offset: 0x4C453, size: 0x8, addend: 0x0, symName: __ZNSt3__128__exception_guard_exceptionsINS_29_AllocatorDestroyRangeReverseINS_9allocatorItEEPtEEE10__completeB8de200100Ev, symObjAddr: 0x1E3B8, symBinAddr: 0x274E4, symSize: 0x1C }
  - { offset: 0x4C477, size: 0x8, addend: 0x0, symName: __ZNSt3__128__exception_guard_exceptionsINS_29_AllocatorDestroyRangeReverseINS_9allocatorItEEPtEEED1B8de200100Ev, symObjAddr: 0x1E3D4, symBinAddr: 0x27500, symSize: 0x2C }
  - { offset: 0x4C49F, size: 0x8, addend: 0x0, symName: __ZNSt3__128__exception_guard_exceptionsINS_29_AllocatorDestroyRangeReverseINS_9allocatorItEEPtEEEC1B8de200100ES5_, symObjAddr: 0x1E400, symBinAddr: 0x2752C, symSize: 0x34 }
  - { offset: 0x4C4D6, size: 0x8, addend: 0x0, symName: __ZNSt3__128__exception_guard_exceptionsINS_29_AllocatorDestroyRangeReverseINS_9allocatorItEEPtEEEC2B8de200100ES5_, symObjAddr: 0x1E434, symBinAddr: 0x27560, symSize: 0x30 }
  - { offset: 0x4C50D, size: 0x8, addend: 0x0, symName: __ZNSt3__129_AllocatorDestroyRangeReverseINS_9allocatorItEEPtEC2B8de200100ERS2_RS3_S6_, symObjAddr: 0x1E464, symBinAddr: 0x27590, symSize: 0x38 }
  - { offset: 0x4C562, size: 0x8, addend: 0x0, symName: __ZNSt3__19allocatorItE9constructB8de200100ItJRKtEEEvPT_DpOT0_, symObjAddr: 0x1E49C, symBinAddr: 0x275C8, symSize: 0x28 }
  - { offset: 0x4C5B6, size: 0x8, addend: 0x0, symName: __ZNSt3__128__exception_guard_exceptionsINS_29_AllocatorDestroyRangeReverseINS_9allocatorItEEPtEEED2B8de200100Ev, symObjAddr: 0x1E4C4, symBinAddr: 0x275F0, symSize: 0x50 }
  - { offset: 0x4C5DE, size: 0x8, addend: 0x0, symName: __ZNKSt3__129_AllocatorDestroyRangeReverseINS_9allocatorItEEPtEclB8de200100Ev, symObjAddr: 0x1E514, symBinAddr: 0x27640, symSize: 0x68 }
  - { offset: 0x4C602, size: 0x8, addend: 0x0, symName: __ZNSt3__116reverse_iteratorIPtEC1B8de200100ES1_, symObjAddr: 0x1E5EC, symBinAddr: 0x27718, symSize: 0x34 }
  - { offset: 0x4C638, size: 0x8, addend: 0x0, symName: __ZNSt3__116allocator_traitsINS_9allocatorItEEE7destroyB8de200100ItLi0EEEvRS2_PT_, symObjAddr: 0x1E664, symBinAddr: 0x27790, symSize: 0x2C }
  - { offset: 0x4C679, size: 0x8, addend: 0x0, symName: __ZNSt3__116reverse_iteratorIPtEppB8de200100Ev, symObjAddr: 0x1E6B4, symBinAddr: 0x277E0, symSize: 0x20 }
  - { offset: 0x4C69D, size: 0x8, addend: 0x0, symName: __ZNKSt3__116reverse_iteratorIPtE4baseB8de200100Ev, symObjAddr: 0x1E6D4, symBinAddr: 0x27800, symSize: 0x18 }
  - { offset: 0x4C6C1, size: 0x8, addend: 0x0, symName: __ZNSt3__19allocatorItE7destroyB8de200100EPt, symObjAddr: 0x1E6EC, symBinAddr: 0x27818, symSize: 0x14 }
  - { offset: 0x4C6F8, size: 0x8, addend: 0x0, symName: __ZNSt3__119__to_address_helperINS_16reverse_iteratorIPtEEvE6__callB8de200100ERKS3_, symObjAddr: 0x1E700, symBinAddr: 0x2782C, symSize: 0x38 }
  - { offset: 0x4C71A, size: 0x8, addend: 0x0, symName: __ZNKSt3__116reverse_iteratorIPtEptB8de200100Ev, symObjAddr: 0x1E738, symBinAddr: 0x27864, symSize: 0x24 }
  - { offset: 0x4C73E, size: 0x8, addend: 0x0, symName: __ZNKSt3__116reverse_iteratorIPtEdeB8de200100Ev, symObjAddr: 0x1E75C, symBinAddr: 0x27888, symSize: 0x28 }
  - { offset: 0x4C770, size: 0x8, addend: 0x0, symName: __ZNSt3__116reverse_iteratorIPtEC2B8de200100ES1_, symObjAddr: 0x1E784, symBinAddr: 0x278B0, symSize: 0x28 }
  - { offset: 0x4C7A6, size: 0x8, addend: 0x0, symName: __ZNSt3__118__unwrap_iter_implIPtLb1EE8__unwrapB8de200100ES1_, symObjAddr: 0x1E7AC, symBinAddr: 0x278D8, symSize: 0x24 }
  - { offset: 0x4C7C8, size: 0x8, addend: 0x0, symName: __ZNSt3__118__unwrap_iter_implIPtLb1EE8__rewrapB8de200100ES1_S1_, symObjAddr: 0x1E7D0, symBinAddr: 0x278FC, symSize: 0x50 }
  - { offset: 0x4C7F8, size: 0x8, addend: 0x0, symName: __ZNSt3__16vectorItNS_9allocatorItEEE21_ConstructTransactionD2B8de200100Ev, symObjAddr: 0x1E820, symBinAddr: 0x2794C, symSize: 0x20 }
  - { offset: 0x4C844, size: 0x8, addend: 0x0, symName: __ZNKSt3__111__copy_implclB8de200100IKttLi0EEENS_4pairIPT_PT0_EES5_S5_S7_, symObjAddr: 0x1E8F4, symBinAddr: 0x27A20, symSize: 0x48 }
  - { offset: 0x4C8B5, size: 0x8, addend: 0x0, symName: __ZNSt3__14pairIPKtPtEC1B8de200100IRS2_S3_Li0EEEOT_OT0_, symObjAddr: 0x1EAB8, symBinAddr: 0x27BE4, symSize: 0x3C }
  - { offset: 0x4C911, size: 0x8, addend: 0x0, symName: __ZNSt3__14pairIPKtPtEC2B8de200100IRS2_S3_Li0EEEOT_OT0_, symObjAddr: 0x1EAF4, symBinAddr: 0x27C20, symSize: 0x34 }
  - { offset: 0x4C96D, size: 0x8, addend: 0x0, symName: __ZNSt3__14pairIPKtPtEC1B8de200100IS2_S3_Li0EEEOT_OT0_, symObjAddr: 0x1EB28, symBinAddr: 0x27C54, symSize: 0x3C }
  - { offset: 0x4C9C9, size: 0x8, addend: 0x0, symName: __ZNSt3__14pairIPKtPtEC2B8de200100IS2_S3_Li0EEEOT_OT0_, symObjAddr: 0x1EB64, symBinAddr: 0x27C90, symSize: 0x34 }
  - { offset: 0x4CA25, size: 0x8, addend: 0x0, symName: __ZNSt3__118__unwrap_iter_implIPKtLb1EE8__rewrapB8de200100ES2_S2_, symObjAddr: 0x1EBD4, symBinAddr: 0x27D00, symSize: 0x50 }
  - { offset: 0x4CA55, size: 0x8, addend: 0x0, symName: __ZNSt3__16vectorItNS_9allocatorItEEE22__base_destruct_at_endB8de200100EPt, symObjAddr: 0x1EC24, symBinAddr: 0x27D50, symSize: 0x7C }
  - { offset: 0x4CA98, size: 0x8, addend: 0x0, symName: __ZNKSt3__16vectorItNS_9allocatorItEEE17__annotate_shrinkB8de200100Em, symObjAddr: 0x1ECA0, symBinAddr: 0x27DCC, symSize: 0x14 }
  - { offset: 0x4CACB, size: 0x8, addend: 0x0, symName: __ZNSt3__16vectorItNS_9allocatorItEEE5clearB8de200100Ev, symObjAddr: 0x1ECB4, symBinAddr: 0x27DE0, symSize: 0x48 }
  - { offset: 0x4CAFF, size: 0x8, addend: 0x0, symName: __ZNKSt3__16vectorItNS_9allocatorItEEE17__annotate_deleteB8de200100Ev, symObjAddr: 0x1ECFC, symBinAddr: 0x27E28, symSize: 0x10 }
  - { offset: 0x4CB23, size: 0x8, addend: 0x0, symName: __ZNSt3__116allocator_traitsINS_9allocatorItEEE10deallocateB8de200100ERS2_Ptm, symObjAddr: 0x1ED0C, symBinAddr: 0x27E38, symSize: 0x34 }
  - { offset: 0x4CB64, size: 0x8, addend: 0x0, symName: __ZNSt3__19allocatorItE10deallocateB8de200100EPtm, symObjAddr: 0x1ED40, symBinAddr: 0x27E6C, symSize: 0x34 }
  - { offset: 0x4CBA4, size: 0x8, addend: 0x0, symName: __ZNKSt3__16vectorItNS_9allocatorItEEE8max_sizeB8de200100Ev, symObjAddr: 0x1EE28, symBinAddr: 0x27F54, symSize: 0x5C }
  - { offset: 0x4CBC9, size: 0x8, addend: 0x0, symName: __ZNSt3__16vectorItNS_9allocatorItEEE20__throw_length_errorB8de200100Ev, symObjAddr: 0x1EE84, symBinAddr: 0x27FB0, symSize: 0x14 }
  - { offset: 0x4CBDC, size: 0x8, addend: 0x0, symName: __ZNKSt3__16vectorItNS_9allocatorItEEE14__annotate_newB8de200100Em, symObjAddr: 0x1EED8, symBinAddr: 0x28004, symSize: 0x14 }
  - { offset: 0x4CC19, size: 0x8, addend: 0x0, symName: __ZNSt3__116allocator_traitsINS_9allocatorItEEE8max_sizeB8de200100IS2_Li0EEEmRKS2_, symObjAddr: 0x1EEEC, symBinAddr: 0x28018, symSize: 0x24 }
  - { offset: 0x4CC4B, size: 0x8, addend: 0x0, symName: __ZNKSt3__19allocatorItE8max_sizeB8de200100Ev, symObjAddr: 0x1EF10, symBinAddr: 0x2803C, symSize: 0x14 }
  - { offset: 0x4CC6F, size: 0x8, addend: 0x0, symName: __ZNSt3__19allocatorItE8allocateB8de200100Em, symObjAddr: 0x1EF24, symBinAddr: 0x28050, symSize: 0x50 }
  - { offset: 0x4CCA1, size: 0x8, addend: 0x0, symName: __ZNSt3__16vectorIN7Entropy6Vulkan4Data16InstanceDataTwoDENS_9allocatorIS4_EEE22__construct_one_at_endB8de200100IJS4_EEEvDpOT_, symObjAddr: 0x1F058, symBinAddr: 0x28184, symSize: 0x84 }
  - { offset: 0x4CCEF, size: 0x8, addend: 0x0, symName: __ZNSt3__16vectorIN7Entropy6Vulkan4Data16InstanceDataTwoDENS_9allocatorIS4_EEE24__emplace_back_slow_pathIJS4_EEEPS4_DpOT_, symObjAddr: 0x1F0DC, symBinAddr: 0x28208, symSize: 0xD0 }
  - { offset: 0x4CD56, size: 0x8, addend: 0x0, symName: __ZNSt3__16vectorIN7Entropy6Vulkan4Data16InstanceDataTwoDENS_9allocatorIS4_EEE21_ConstructTransactionC1B8de200100ERS7_m, symObjAddr: 0x1F1AC, symBinAddr: 0x282D8, symSize: 0x3C }
  - { offset: 0x4CD9C, size: 0x8, addend: 0x0, symName: __ZNSt3__116allocator_traitsINS_9allocatorIN7Entropy6Vulkan4Data16InstanceDataTwoDEEEE9constructB8de200100IS5_JS5_ELi0EEEvRS6_PT_DpOT0_, symObjAddr: 0x1F1E8, symBinAddr: 0x28314, symSize: 0x34 }
  - { offset: 0x4CDF7, size: 0x8, addend: 0x0, symName: __ZNSt3__16vectorIN7Entropy6Vulkan4Data16InstanceDataTwoDENS_9allocatorIS4_EEE21_ConstructTransactionD1B8de200100Ev, symObjAddr: 0x1F230, symBinAddr: 0x2835C, symSize: 0x2C }
  - { offset: 0x4CE1F, size: 0x8, addend: 0x0, symName: __ZNSt3__16vectorIN7Entropy6Vulkan4Data16InstanceDataTwoDENS_9allocatorIS4_EEE21_ConstructTransactionC2B8de200100ERS7_m, symObjAddr: 0x1F25C, symBinAddr: 0x28388, symSize: 0x4C }
  - { offset: 0x4CE65, size: 0x8, addend: 0x0, symName: __ZNSt3__19allocatorIN7Entropy6Vulkan4Data16InstanceDataTwoDEE9constructB8de200100IS4_JS4_EEEvPT_DpOT0_, symObjAddr: 0x1F2A8, symBinAddr: 0x283D4, symSize: 0x34 }
  - { offset: 0x4CEB9, size: 0x8, addend: 0x0, symName: __ZNSt3__16vectorIN7Entropy6Vulkan4Data16InstanceDataTwoDENS_9allocatorIS4_EEE21_ConstructTransactionD2B8de200100Ev, symObjAddr: 0x1F2DC, symBinAddr: 0x28408, symSize: 0x20 }
  - { offset: 0x4CEE2, size: 0x8, addend: 0x0, symName: __ZNKSt3__16vectorIN7Entropy6Vulkan4Data16InstanceDataTwoDENS_9allocatorIS4_EEE11__recommendB8de200100Em, symObjAddr: 0x1F2FC, symBinAddr: 0x28428, symSize: 0xA8 }
  - { offset: 0x4CF37, size: 0x8, addend: 0x0, symName: __ZNKSt3__16vectorIN7Entropy6Vulkan4Data16InstanceDataTwoDENS_9allocatorIS4_EEE4sizeB8de200100Ev, symObjAddr: 0x1F3A4, symBinAddr: 0x284D0, symSize: 0x28 }
  - { offset: 0x4CF5C, size: 0x8, addend: 0x0, symName: __ZNSt3__114__split_bufferIN7Entropy6Vulkan4Data16InstanceDataTwoDERNS_9allocatorIS4_EEEC1EmmS7_, symObjAddr: 0x1F3CC, symBinAddr: 0x284F8, symSize: 0x44 }
  - { offset: 0x4CFB1, size: 0x8, addend: 0x0, symName: __ZNSt3__16vectorIN7Entropy6Vulkan4Data16InstanceDataTwoDENS_9allocatorIS4_EEE26__swap_out_circular_bufferERNS_14__split_bufferIS4_RS6_EE, symObjAddr: 0x1F410, symBinAddr: 0x2853C, symSize: 0x104 }
  - { offset: 0x4CFF7, size: 0x8, addend: 0x0, symName: __ZNSt3__114__split_bufferIN7Entropy6Vulkan4Data16InstanceDataTwoDERNS_9allocatorIS4_EEED1Ev, symObjAddr: 0x1F514, symBinAddr: 0x28640, symSize: 0x2C }
  - { offset: 0x4D021, size: 0x8, addend: 0x0, symName: __ZNKSt3__16vectorIN7Entropy6Vulkan4Data16InstanceDataTwoDENS_9allocatorIS4_EEE8max_sizeB8de200100Ev, symObjAddr: 0x1F540, symBinAddr: 0x2866C, symSize: 0x5C }
  - { offset: 0x4D046, size: 0x8, addend: 0x0, symName: __ZNSt3__16vectorIN7Entropy6Vulkan4Data16InstanceDataTwoDENS_9allocatorIS4_EEE20__throw_length_errorB8de200100Ev, symObjAddr: 0x1F59C, symBinAddr: 0x286C8, symSize: 0x14 }
  - { offset: 0x4D059, size: 0x8, addend: 0x0, symName: __ZNKSt3__16vectorIN7Entropy6Vulkan4Data16InstanceDataTwoDENS_9allocatorIS4_EEE8capacityB8de200100Ev, symObjAddr: 0x1F5B0, symBinAddr: 0x286DC, symSize: 0x28 }
  - { offset: 0x4D087, size: 0x8, addend: 0x0, symName: __ZNSt3__116allocator_traitsINS_9allocatorIN7Entropy6Vulkan4Data16InstanceDataTwoDEEEE8max_sizeB8de200100IS6_Li0EEEmRKS6_, symObjAddr: 0x1F5D8, symBinAddr: 0x28704, symSize: 0x24 }
  - { offset: 0x4D0B9, size: 0x8, addend: 0x0, symName: __ZNKSt3__19allocatorIN7Entropy6Vulkan4Data16InstanceDataTwoDEE8max_sizeB8de200100Ev, symObjAddr: 0x1F5FC, symBinAddr: 0x28728, symSize: 0x18 }
  - { offset: 0x4D0DE, size: 0x8, addend: 0x0, symName: __ZNSt3__114__split_bufferIN7Entropy6Vulkan4Data16InstanceDataTwoDERNS_9allocatorIS4_EEEC2EmmS7_, symObjAddr: 0x1F614, symBinAddr: 0x28740, symSize: 0xC4 }
  - { offset: 0x4D151, size: 0x8, addend: 0x0, symName: __ZNSt3__19allocatorIN7Entropy6Vulkan4Data16InstanceDataTwoDEE8allocateB8de200100Em, symObjAddr: 0x1F718, symBinAddr: 0x28844, symSize: 0x50 }
  - { offset: 0x4D183, size: 0x8, addend: 0x0, symName: __ZNKSt3__16vectorIN7Entropy6Vulkan4Data16InstanceDataTwoDENS_9allocatorIS4_EEE17__annotate_deleteB8de200100Ev, symObjAddr: 0x1F828, symBinAddr: 0x28954, symSize: 0x10 }
  - { offset: 0x4D1A7, size: 0x8, addend: 0x0, symName: __ZNKSt3__16vectorIN7Entropy6Vulkan4Data16InstanceDataTwoDENS_9allocatorIS4_EEE14__annotate_newB8de200100Em, symObjAddr: 0x1F8D4, symBinAddr: 0x28A00, symSize: 0x14 }
  - { offset: 0x4D1DB, size: 0x8, addend: 0x0, symName: __ZNSt3__114__split_bufferIN7Entropy6Vulkan4Data16InstanceDataTwoDERNS_9allocatorIS4_EEED2Ev, symObjAddr: 0x1F8E8, symBinAddr: 0x28A14, symSize: 0x7C }
  - { offset: 0x4D205, size: 0x8, addend: 0x0, symName: __ZNSt3__114__split_bufferIN7Entropy6Vulkan4Data16InstanceDataTwoDERNS_9allocatorIS4_EEE5clearB8de200100Ev, symObjAddr: 0x1F964, symBinAddr: 0x28A90, symSize: 0x28 }
  - { offset: 0x4D229, size: 0x8, addend: 0x0, symName: __ZNSt3__116allocator_traitsINS_9allocatorIN7Entropy6Vulkan4Data16InstanceDataTwoDEEEE10deallocateB8de200100ERS6_PS5_m, symObjAddr: 0x1F98C, symBinAddr: 0x28AB8, symSize: 0x34 }
  - { offset: 0x4D26A, size: 0x8, addend: 0x0, symName: __ZNKSt3__114__split_bufferIN7Entropy6Vulkan4Data16InstanceDataTwoDERNS_9allocatorIS4_EEE8capacityB8de200100Ev, symObjAddr: 0x1F9C0, symBinAddr: 0x28AEC, symSize: 0x28 }
  - { offset: 0x4D28E, size: 0x8, addend: 0x0, symName: __ZNSt3__114__split_bufferIN7Entropy6Vulkan4Data16InstanceDataTwoDERNS_9allocatorIS4_EEE17__destruct_at_endB8de200100EPS4_, symObjAddr: 0x1F9E8, symBinAddr: 0x28B14, symSize: 0x2C }
  - { offset: 0x4D2C1, size: 0x8, addend: 0x0, symName: __ZNSt3__114__split_bufferIN7Entropy6Vulkan4Data16InstanceDataTwoDERNS_9allocatorIS4_EEE17__destruct_at_endB8de200100EPS4_NS_17integral_constantIbLb0EEE, symObjAddr: 0x1FA14, symBinAddr: 0x28B40, symSize: 0x78 }
  - { offset: 0x4D2FF, size: 0x8, addend: 0x0, symName: __ZNSt3__116allocator_traitsINS_9allocatorIN7Entropy6Vulkan4Data16InstanceDataTwoDEEEE7destroyB8de200100IS5_Li0EEEvRS6_PT_, symObjAddr: 0x1FA8C, symBinAddr: 0x28BB8, symSize: 0x2C }
  - { offset: 0x4D340, size: 0x8, addend: 0x0, symName: __ZNSt3__19allocatorIN7Entropy6Vulkan4Data16InstanceDataTwoDEE7destroyB8de200100EPS4_, symObjAddr: 0x1FAB8, symBinAddr: 0x28BE4, symSize: 0x14 }
  - { offset: 0x4D372, size: 0x8, addend: 0x0, symName: __ZNSt3__19allocatorIN7Entropy6Vulkan4Data16InstanceDataTwoDEE10deallocateB8de200100EPS4_m, symObjAddr: 0x1FACC, symBinAddr: 0x28BF8, symSize: 0x34 }
  - { offset: 0x4D3B2, size: 0x8, addend: 0x0, symName: __ZN3glm3vecILi4EfLNS_9qualifierE0EEC2Effff, symObjAddr: 0x1FBB8, symBinAddr: 0x28CE4, symSize: 0x44 }
  - { offset: 0x4D412, size: 0x8, addend: 0x0, symName: __ZN5flecs1_14each_ref_fieldIN7Entropy3ECS4Tags2D2EiEC2EPK10ecs_iter_tRNS0_9field_ptrEm, symObjAddr: 0x1FBFC, symBinAddr: 0x28D28, symSize: 0xA0 }
  - { offset: 0x4D464, size: 0x8, addend: 0x0, symName: __ZN5flecs1_10each_fieldIN7Entropy3ECS4Tags2D2EiEC2EPK10ecs_iter_tRNS0_9field_ptrEm, symObjAddr: 0x1FC9C, symBinAddr: 0x28DC8, symSize: 0x40 }
  - { offset: 0x4D4B2, size: 0x8, addend: 0x0, symName: __ZN5flecs1_16each_column_baseC2ERKNS0_9field_ptrEm, symObjAddr: 0x1FCDC, symBinAddr: 0x28E08, symSize: 0x2C }
  - { offset: 0x4D4F6, size: 0x8, addend: 0x0, symName: __ZN5flecs1_10field_ptrsIJN7Entropy3ECS4Tags2D2EEE13populate_selfIPS5_JES5_Li0EEEvPK10ecs_iter_tmT_DpT0_, symObjAddr: 0x1FD08, symBinAddr: 0x28E34, symSize: 0x110 }
  - { offset: 0x4D55D, size: 0x8, addend: 0x0, symName: __ZN5flecs1_10field_ptrsIJN7Entropy3ECS4Tags2D2EEE13populate_selfEPK10ecs_iter_tm, symObjAddr: 0x1FE18, symBinAddr: 0x28F44, symSize: 0x18 }
  - { offset: 0x4D595, size: 0x8, addend: 0x0, symName: '__ZN5flecs1_13each_delegateIZN7Entropy3ECS5WorldC1EvE3$_0JNS3_4Tags2D2EEE13invoke_unpackINS0_10each_fieldEJNS0_9field_ptrEELi0EEEvP10ecs_iter_tRKS5_mRNS_5arrayISB_Lm1EvEEDpT0_', symObjAddr: 0x1FE30, symBinAddr: 0x28F5C, symSize: 0xDC }
  - { offset: 0x4D635, size: 0x8, addend: 0x0, symName: '__ZN5flecs1_13each_delegateIZN7Entropy3ECS5WorldC1EvE3$_0JNS3_4Tags2D2EEE15invoke_callbackINS0_10each_fieldEJNS0_9field_ptrEES5_Li0EEEvP10ecs_iter_tRKS5_mDpT0_', symObjAddr: 0x1FF0C, symBinAddr: 0x29038, symSize: 0x70 }
  - { offset: 0x4D6A8, size: 0x8, addend: 0x0, symName: __ZN5flecs1_10each_fieldIN7Entropy3ECS4Tags2D2EiEC1EPK10ecs_iter_tRNS0_9field_ptrEm, symObjAddr: 0x1FF7C, symBinAddr: 0x290A8, symSize: 0x44 }
  - { offset: 0x4D6F6, size: 0x8, addend: 0x0, symName: __ZN5flecs8observerC2EP11ecs_world_tP19ecs_observer_desc_t, symObjAddr: 0x1FFD0, symBinAddr: 0x290FC, symSize: 0x54 }
  - { offset: 0x4D73A, size: 0x8, addend: 0x0, symName: __ZN5flecs14system_builderIJN7Entropy3ECS4Tags2D2ENS2_10Components8PositionENS5_9DimensionENS5_8RotationENS5_5ColorENS5_16TextureComponentEEEC1EP11ecs_world_tPKc, symObjAddr: 0x20024, symBinAddr: 0x29150, symSize: 0x3C }
  - { offset: 0x4D77E, size: 0x8, addend: 0x0, symName: __ZN5flecs14system_builderIJN7Entropy3ECS4Tags2D2ENS2_10Components8PositionENS5_9DimensionENS5_8RotationENS5_5ColorENS5_16TextureComponentEEEC2EP11ecs_world_tPKc, symObjAddr: 0x20060, symBinAddr: 0x2918C, symSize: 0xF8 }
  - { offset: 0x4D7C2, size: 0x8, addend: 0x0, symName: __ZN5flecs1_12node_builderINS_6systemE17ecs_system_desc_tNS_14system_builderIJN7Entropy3ECS4Tags2D2ENS6_10Components8PositionENS9_9DimensionENS9_8RotationENS9_5ColorENS9_16TextureComponentEEEENS_16system_builder_iEJS8_SA_SB_SC_SD_SE_EEC2EP11ecs_world_tPKc, symObjAddr: 0x20158, symBinAddr: 0x29284, symSize: 0x124 }
  - { offset: 0x4D81A, size: 0x8, addend: 0x0, symName: __ZN5flecs1_3sigIJN7Entropy3ECS4Tags2D2ENS3_10Components8PositionENS6_9DimensionENS6_8RotationENS6_5ColorENS6_16TextureComponentEEEC1EP11ecs_world_t, symObjAddr: 0x2027C, symBinAddr: 0x293A8, symSize: 0x34 }
  - { offset: 0x4D85A, size: 0x8, addend: 0x0, symName: __ZN5flecs1_3sigIJN7Entropy3ECS4Tags2D2ENS3_10Components8PositionENS6_9DimensionENS6_8RotationENS6_5ColorENS6_16TextureComponentEEE8populateIPNS_14system_builderIJS5_S7_S8_S9_SA_SB_EEEEEvRKT_, symObjAddr: 0x202B0, symBinAddr: 0x293DC, symSize: 0x140 }
  - { offset: 0x4D8F7, size: 0x8, addend: 0x0, symName: __ZN5flecs14system_builderIJN7Entropy3ECS4Tags2D2ENS2_10Components8PositionENS5_9DimensionENS5_8RotationENS5_5ColorENS5_16TextureComponentEEED0Ev, symObjAddr: 0x203F0, symBinAddr: 0x2951C, symSize: 0x30 }
  - { offset: 0x4D921, size: 0x8, addend: 0x0, symName: __ZN5flecs1_12node_builderINS_6systemE17ecs_system_desc_tNS_14system_builderIJN7Entropy3ECS4Tags2D2ENS6_10Components8PositionENS9_9DimensionENS9_8RotationENS9_5ColorENS9_16TextureComponentEEEENS_16system_builder_iEJS8_SA_SB_SC_SD_SE_EE7world_vEv, symObjAddr: 0x20420, symBinAddr: 0x2954C, symSize: 0x18 }
  - { offset: 0x4D945, size: 0x8, addend: 0x0, symName: __ZN5flecs16system_builder_iINS_14system_builderIJN7Entropy3ECS4Tags2D2ENS3_10Components8PositionENS6_9DimensionENS6_8RotationENS6_5ColorENS6_16TextureComponentEEEEJS5_S7_S8_S9_SA_SB_EEC2EP17ecs_system_desc_t, symObjAddr: 0x20438, symBinAddr: 0x29564, symSize: 0x54 }
  - { offset: 0x4D97B, size: 0x8, addend: 0x0, symName: __ZN5flecs1_12node_builderINS_6systemE17ecs_system_desc_tNS_14system_builderIJN7Entropy3ECS4Tags2D2ENS6_10Components8PositionENS9_9DimensionENS9_8RotationENS9_5ColorENS9_16TextureComponentEEEENS_16system_builder_iEJS8_SA_SB_SC_SD_SE_EED1Ev, symObjAddr: 0x2048C, symBinAddr: 0x295B8, symSize: 0x2C }
  - { offset: 0x4D9A5, size: 0x8, addend: 0x0, symName: __ZN5flecs1_12node_builderINS_6systemE17ecs_system_desc_tNS_14system_builderIJN7Entropy3ECS4Tags2D2ENS6_10Components8PositionENS9_9DimensionENS9_8RotationENS9_5ColorENS9_16TextureComponentEEEENS_16system_builder_iEJS8_SA_SB_SC_SD_SE_EED0Ev, symObjAddr: 0x204B8, symBinAddr: 0x295E4, symSize: 0x30 }
  - { offset: 0x4D9CF, size: 0x8, addend: 0x0, symName: __ZN5flecs15query_builder_iINS_14system_builderIJN7Entropy3ECS4Tags2D2ENS3_10Components8PositionENS6_9DimensionENS6_8RotationENS6_5ColorENS6_16TextureComponentEEEEJS5_S7_S8_S9_SA_SB_EEC2EP16ecs_query_desc_ti, symObjAddr: 0x204E8, symBinAddr: 0x29614, symSize: 0x58 }
  - { offset: 0x4DA13, size: 0x8, addend: 0x0, symName: __ZN5flecs16system_builder_iINS_14system_builderIJN7Entropy3ECS4Tags2D2ENS3_10Components8PositionENS6_9DimensionENS6_8RotationENS6_5ColorENS6_16TextureComponentEEEEJS5_S7_S8_S9_SA_SB_EED1Ev, symObjAddr: 0x20540, symBinAddr: 0x2966C, symSize: 0x14 }
  - { offset: 0x4DA3D, size: 0x8, addend: 0x0, symName: __ZN5flecs16system_builder_iINS_14system_builderIJN7Entropy3ECS4Tags2D2ENS3_10Components8PositionENS6_9DimensionENS6_8RotationENS6_5ColorENS6_16TextureComponentEEEEJS5_S7_S8_S9_SA_SB_EED0Ev, symObjAddr: 0x20554, symBinAddr: 0x29680, symSize: 0xC }
  - { offset: 0x4DA67, size: 0x8, addend: 0x0, symName: __ZN5flecs14term_builder_iINS_14system_builderIJN7Entropy3ECS4Tags2D2ENS3_10Components8PositionENS6_9DimensionENS6_8RotationENS6_5ColorENS6_16TextureComponentEEEEEC2Ev, symObjAddr: 0x20560, symBinAddr: 0x2968C, symSize: 0x40 }
  - { offset: 0x4DA8F, size: 0x8, addend: 0x0, symName: __ZN5flecs15query_builder_iINS_14system_builderIJN7Entropy3ECS4Tags2D2ENS3_10Components8PositionENS6_9DimensionENS6_8RotationENS6_5ColorENS6_16TextureComponentEEEEJS5_S7_S8_S9_SA_SB_EED1Ev, symObjAddr: 0x205A0, symBinAddr: 0x296CC, symSize: 0x14 }
  - { offset: 0x4DAB9, size: 0x8, addend: 0x0, symName: __ZN5flecs15query_builder_iINS_14system_builderIJN7Entropy3ECS4Tags2D2ENS3_10Components8PositionENS6_9DimensionENS6_8RotationENS6_5ColorENS6_16TextureComponentEEEEJS5_S7_S8_S9_SA_SB_EED0Ev, symObjAddr: 0x205B4, symBinAddr: 0x296E0, symSize: 0xC }
  - { offset: 0x4DAE3, size: 0x8, addend: 0x0, symName: __ZN5flecs18term_ref_builder_iINS_14system_builderIJN7Entropy3ECS4Tags2D2ENS3_10Components8PositionENS6_9DimensionENS6_8RotationENS6_5ColorENS6_16TextureComponentEEEEEC2Ev, symObjAddr: 0x205C0, symBinAddr: 0x296EC, symSize: 0x28 }
  - { offset: 0x4DB0B, size: 0x8, addend: 0x0, symName: __ZN5flecs14term_builder_iINS_14system_builderIJN7Entropy3ECS4Tags2D2ENS3_10Components8PositionENS6_9DimensionENS6_8RotationENS6_5ColorENS6_16TextureComponentEEEEED1Ev, symObjAddr: 0x205E8, symBinAddr: 0x29714, symSize: 0x14 }
  - { offset: 0x4DB35, size: 0x8, addend: 0x0, symName: __ZN5flecs14term_builder_iINS_14system_builderIJN7Entropy3ECS4Tags2D2ENS3_10Components8PositionENS6_9DimensionENS6_8RotationENS6_5ColorENS6_16TextureComponentEEEEED0Ev, symObjAddr: 0x205FC, symBinAddr: 0x29728, symSize: 0xC }
  - { offset: 0x4DB5F, size: 0x8, addend: 0x0, symName: __ZN5flecs18term_ref_builder_iINS_14system_builderIJN7Entropy3ECS4Tags2D2ENS3_10Components8PositionENS6_9DimensionENS6_8RotationENS6_5ColorENS6_16TextureComponentEEEEED1Ev, symObjAddr: 0x20608, symBinAddr: 0x29734, symSize: 0x14 }
  - { offset: 0x4DB87, size: 0x8, addend: 0x0, symName: __ZN5flecs18term_ref_builder_iINS_14system_builderIJN7Entropy3ECS4Tags2D2ENS3_10Components8PositionENS6_9DimensionENS6_8RotationENS6_5ColorENS6_16TextureComponentEEEEED0Ev, symObjAddr: 0x2061C, symBinAddr: 0x29748, symSize: 0xC }
  - { offset: 0x4DBAF, size: 0x8, addend: 0x0, symName: __ZN5flecs1_3sigIJN7Entropy3ECS4Tags2D2ENS3_10Components8PositionENS6_9DimensionENS6_8RotationENS6_5ColorENS6_16TextureComponentEEEC2EP11ecs_world_t, symObjAddr: 0x20628, symBinAddr: 0x29754, symSize: 0x114 }
  - { offset: 0x4DBE5, size: 0x8, addend: 0x0, symName: __ZN5flecs1_9type_implIN7Entropy3ECS10Components8PositionEE2idEP11ecs_world_t, symObjAddr: 0x2073C, symBinAddr: 0x29868, symSize: 0x70 }
  - { offset: 0x4DC15, size: 0x8, addend: 0x0, symName: __ZN5flecs1_9type_implIN7Entropy3ECS10Components9DimensionEE2idEP11ecs_world_t, symObjAddr: 0x207AC, symBinAddr: 0x298D8, symSize: 0x70 }
  - { offset: 0x4DC45, size: 0x8, addend: 0x0, symName: __ZN5flecs1_9type_implIN7Entropy3ECS10Components8RotationEE2idEP11ecs_world_t, symObjAddr: 0x2081C, symBinAddr: 0x29948, symSize: 0x70 }
  - { offset: 0x4DC75, size: 0x8, addend: 0x0, symName: __ZN5flecs1_9type_implIN7Entropy3ECS10Components5ColorEE2idEP11ecs_world_t, symObjAddr: 0x2088C, symBinAddr: 0x299B8, symSize: 0x70 }
  - { offset: 0x4DCA5, size: 0x8, addend: 0x0, symName: __ZN5flecs1_9type_implIN7Entropy3ECS10Components16TextureComponentEE2idEP11ecs_world_t, symObjAddr: 0x208FC, symBinAddr: 0x29A28, symSize: 0x70 }
  - { offset: 0x4DCD5, size: 0x8, addend: 0x0, symName: __ZN5flecs5arrayIyLm6EvEC1ERA6_Ky, symObjAddr: 0x2096C, symBinAddr: 0x29A98, symSize: 0x34 }
  - { offset: 0x4DD0B, size: 0x8, addend: 0x0, symName: __ZN5flecs5arrayINS_12inout_kind_tELm6EvEC1ERA6_KS1_, symObjAddr: 0x209A0, symBinAddr: 0x29ACC, symSize: 0x34 }
  - { offset: 0x4DD41, size: 0x8, addend: 0x0, symName: __ZN5flecs5arrayINS_11oper_kind_tELm6EvEC1ERA6_KS1_, symObjAddr: 0x209D4, symBinAddr: 0x29B00, symSize: 0x34 }
  - { offset: 0x4DD77, size: 0x8, addend: 0x0, symName: __ZN5flecs1_9type_implIN7Entropy3ECS10Components8PositionEE11register_idEP11ecs_world_tPKcbbby, symObjAddr: 0x20A08, symBinAddr: 0x29B34, symSize: 0x240 }
  - { offset: 0x4DE09, size: 0x8, addend: 0x0, symName: __ZN5flecs1_9type_implIN7Entropy3ECS10Components8PositionEE4initEb, symObjAddr: 0x20C48, symBinAddr: 0x29D74, symSize: 0x60 }
  - { offset: 0x4DE2C, size: 0x8, addend: 0x0, symName: __ZN5flecs1_9type_implIN7Entropy3ECS10Components8PositionEE4sizeEv, symObjAddr: 0x20E14, symBinAddr: 0x29F40, symSize: 0x9C }
  - { offset: 0x4DE40, size: 0x8, addend: 0x0, symName: __ZN5flecs1_9type_implIN7Entropy3ECS10Components8PositionEE9alignmentEv, symObjAddr: 0x20EB0, symBinAddr: 0x29FDC, symSize: 0x9C }
  - { offset: 0x4DE58, size: 0x8, addend: 0x0, symName: __ZN7Entropy3ECS10Components8PositionC1Ev, symObjAddr: 0x2124C, symBinAddr: 0x2A378, symSize: 0x2C }
  - { offset: 0x4DE82, size: 0x8, addend: 0x0, symName: __ZN7Entropy3ECS10Components8PositionC2Ev, symObjAddr: 0x21278, symBinAddr: 0x2A3A4, symSize: 0x24 }
  - { offset: 0x4DEAC, size: 0x8, addend: 0x0, symName: __ZN5flecs1_9type_implIN7Entropy3ECS10Components9DimensionEE11register_idEP11ecs_world_tPKcbbby, symObjAddr: 0x2129C, symBinAddr: 0x2A3C8, symSize: 0x240 }
  - { offset: 0x4DF3E, size: 0x8, addend: 0x0, symName: __ZN5flecs1_9type_implIN7Entropy3ECS10Components9DimensionEE4initEb, symObjAddr: 0x214DC, symBinAddr: 0x2A608, symSize: 0x60 }
  - { offset: 0x4DF61, size: 0x8, addend: 0x0, symName: __ZN5flecs1_9type_implIN7Entropy3ECS10Components9DimensionEE4sizeEv, symObjAddr: 0x216A8, symBinAddr: 0x2A7D4, symSize: 0x9C }
  - { offset: 0x4DF75, size: 0x8, addend: 0x0, symName: __ZN5flecs1_9type_implIN7Entropy3ECS10Components9DimensionEE9alignmentEv, symObjAddr: 0x21744, symBinAddr: 0x2A870, symSize: 0x9C }
  - { offset: 0x4DF8D, size: 0x8, addend: 0x0, symName: __ZN7Entropy3ECS10Components9DimensionC1Ev, symObjAddr: 0x21AE0, symBinAddr: 0x2AC0C, symSize: 0x2C }
  - { offset: 0x4DFB7, size: 0x8, addend: 0x0, symName: __ZN7Entropy3ECS10Components9DimensionC2Ev, symObjAddr: 0x21B0C, symBinAddr: 0x2AC38, symSize: 0x24 }
  - { offset: 0x4DFE1, size: 0x8, addend: 0x0, symName: __ZN5flecs1_9type_implIN7Entropy3ECS10Components8RotationEE11register_idEP11ecs_world_tPKcbbby, symObjAddr: 0x21B30, symBinAddr: 0x2AC5C, symSize: 0x240 }
  - { offset: 0x4E073, size: 0x8, addend: 0x0, symName: __ZN5flecs1_9type_implIN7Entropy3ECS10Components8RotationEE4initEb, symObjAddr: 0x21D70, symBinAddr: 0x2AE9C, symSize: 0x60 }
  - { offset: 0x4E096, size: 0x8, addend: 0x0, symName: __ZN5flecs1_9type_implIN7Entropy3ECS10Components8RotationEE4sizeEv, symObjAddr: 0x21F3C, symBinAddr: 0x2B068, symSize: 0x9C }
  - { offset: 0x4E0AA, size: 0x8, addend: 0x0, symName: __ZN5flecs1_9type_implIN7Entropy3ECS10Components8RotationEE9alignmentEv, symObjAddr: 0x21FD8, symBinAddr: 0x2B104, symSize: 0x9C }
  - { offset: 0x4E0C2, size: 0x8, addend: 0x0, symName: __ZN7Entropy3ECS10Components8RotationC1Ev, symObjAddr: 0x2236C, symBinAddr: 0x2B498, symSize: 0x2C }
  - { offset: 0x4E0EC, size: 0x8, addend: 0x0, symName: __ZN7Entropy3ECS10Components8RotationC2Ev, symObjAddr: 0x22398, symBinAddr: 0x2B4C4, symSize: 0x28 }
  - { offset: 0x4E116, size: 0x8, addend: 0x0, symName: __ZN5flecs1_9type_implIN7Entropy3ECS10Components5ColorEE11register_idEP11ecs_world_tPKcbbby, symObjAddr: 0x223C0, symBinAddr: 0x2B4EC, symSize: 0x240 }
  - { offset: 0x4E1A8, size: 0x8, addend: 0x0, symName: __ZN5flecs1_9type_implIN7Entropy3ECS10Components5ColorEE4initEb, symObjAddr: 0x22600, symBinAddr: 0x2B72C, symSize: 0x60 }
  - { offset: 0x4E1CB, size: 0x8, addend: 0x0, symName: __ZN5flecs1_9type_implIN7Entropy3ECS10Components5ColorEE4sizeEv, symObjAddr: 0x227CC, symBinAddr: 0x2B8F8, symSize: 0x9C }
  - { offset: 0x4E1DF, size: 0x8, addend: 0x0, symName: __ZN5flecs1_9type_implIN7Entropy3ECS10Components5ColorEE9alignmentEv, symObjAddr: 0x22868, symBinAddr: 0x2B994, symSize: 0x9C }
  - { offset: 0x4E1F7, size: 0x8, addend: 0x0, symName: __ZN7Entropy3ECS10Components5ColorC1Ev, symObjAddr: 0x22BFC, symBinAddr: 0x2BD28, symSize: 0x2C }
  - { offset: 0x4E221, size: 0x8, addend: 0x0, symName: __ZN7Entropy3ECS10Components5ColorC2Ev, symObjAddr: 0x22C28, symBinAddr: 0x2BD54, symSize: 0x28 }
  - { offset: 0x4E24B, size: 0x8, addend: 0x0, symName: __ZN5flecs1_9type_implIN7Entropy3ECS10Components16TextureComponentEE11register_idEP11ecs_world_tPKcbbby, symObjAddr: 0x22C50, symBinAddr: 0x2BD7C, symSize: 0x240 }
  - { offset: 0x4E2DD, size: 0x8, addend: 0x0, symName: __ZN5flecs1_9type_implIN7Entropy3ECS10Components16TextureComponentEE4initEb, symObjAddr: 0x22E90, symBinAddr: 0x2BFBC, symSize: 0x60 }
  - { offset: 0x4E300, size: 0x8, addend: 0x0, symName: __ZN5flecs1_9type_implIN7Entropy3ECS10Components16TextureComponentEE4sizeEv, symObjAddr: 0x2305C, symBinAddr: 0x2C188, symSize: 0x9C }
  - { offset: 0x4E314, size: 0x8, addend: 0x0, symName: __ZN5flecs1_9type_implIN7Entropy3ECS10Components16TextureComponentEE9alignmentEv, symObjAddr: 0x230F8, symBinAddr: 0x2C224, symSize: 0x9C }
  - { offset: 0x4E32C, size: 0x8, addend: 0x0, symName: __ZN7Entropy3ECS10Components16TextureComponentC1Ev, symObjAddr: 0x23494, symBinAddr: 0x2C5C0, symSize: 0x2C }
  - { offset: 0x4E356, size: 0x8, addend: 0x0, symName: __ZN7Entropy3ECS10Components16TextureComponentC2Ev, symObjAddr: 0x234C0, symBinAddr: 0x2C5EC, symSize: 0x18 }
  - { offset: 0x4E380, size: 0x8, addend: 0x0, symName: __ZN5flecs5arrayIyLm6EvEC2ERA6_Ky, symObjAddr: 0x234D8, symBinAddr: 0x2C604, symSize: 0xFC }
  - { offset: 0x4E3F1, size: 0x8, addend: 0x0, symName: __ZN5flecs5arrayIyLm6EvE5beginEv, symObjAddr: 0x235D4, symBinAddr: 0x2C700, symSize: 0x34 }
  - { offset: 0x4E415, size: 0x8, addend: 0x0, symName: __ZN5flecs5arrayIyLm6EvE3endEv, symObjAddr: 0x23608, symBinAddr: 0x2C734, symSize: 0x34 }
  - { offset: 0x4E439, size: 0x8, addend: 0x0, symName: __ZN5flecs5arrayINS_12inout_kind_tELm6EvEC2ERA6_KS1_, symObjAddr: 0x2363C, symBinAddr: 0x2C768, symSize: 0xFC }
  - { offset: 0x4E4AA, size: 0x8, addend: 0x0, symName: __ZN5flecs5arrayINS_12inout_kind_tELm6EvE5beginEv, symObjAddr: 0x23738, symBinAddr: 0x2C864, symSize: 0x34 }
  - { offset: 0x4E4CE, size: 0x8, addend: 0x0, symName: __ZN5flecs5arrayINS_12inout_kind_tELm6EvE3endEv, symObjAddr: 0x2376C, symBinAddr: 0x2C898, symSize: 0x34 }
  - { offset: 0x4E4F2, size: 0x8, addend: 0x0, symName: __ZN5flecs5arrayINS_11oper_kind_tELm6EvEC2ERA6_KS1_, symObjAddr: 0x237A0, symBinAddr: 0x2C8CC, symSize: 0xFC }
  - { offset: 0x4E563, size: 0x8, addend: 0x0, symName: __ZN5flecs5arrayINS_11oper_kind_tELm6EvE5beginEv, symObjAddr: 0x2389C, symBinAddr: 0x2C9C8, symSize: 0x34 }
  - { offset: 0x4E587, size: 0x8, addend: 0x0, symName: __ZN5flecs5arrayINS_11oper_kind_tELm6EvE3endEv, symObjAddr: 0x238D0, symBinAddr: 0x2C9FC, symSize: 0x34 }
  - { offset: 0x4E5AB, size: 0x8, addend: 0x0, symName: __ZN5flecs15query_builder_iINS_14system_builderIJN7Entropy3ECS4Tags2D2ENS3_10Components8PositionENS6_9DimensionENS6_8RotationENS6_5ColorENS6_16TextureComponentEEEEJS5_S7_S8_S9_SA_SB_EE4withEy, symObjAddr: 0x23904, symBinAddr: 0x2CA30, symSize: 0x70 }
  - { offset: 0x4E5DD, size: 0x8, addend: 0x0, symName: __ZN5flecs14term_builder_iINS_14system_builderIJN7Entropy3ECS4Tags2D2ENS3_10Components8PositionENS6_9DimensionENS6_8RotationENS6_5ColorENS6_16TextureComponentEEEEE5inoutENS_12inout_kind_tE, symObjAddr: 0x23974, symBinAddr: 0x2CAA0, symSize: 0x40 }
  - { offset: 0x4E610, size: 0x8, addend: 0x0, symName: __ZN5flecs5arrayINS_12inout_kind_tELm6EvEixEm, symObjAddr: 0x239B4, symBinAddr: 0x2CAE0, symSize: 0x20 }
  - { offset: 0x4E642, size: 0x8, addend: 0x0, symName: __ZN5flecs14term_builder_iINS_14system_builderIJN7Entropy3ECS4Tags2D2ENS3_10Components8PositionENS6_9DimensionENS6_8RotationENS6_5ColorENS6_16TextureComponentEEEEE4operENS_11oper_kind_tE, symObjAddr: 0x239D4, symBinAddr: 0x2CB00, symSize: 0x40 }
  - { offset: 0x4E675, size: 0x8, addend: 0x0, symName: __ZN5flecs5arrayINS_11oper_kind_tELm6EvEixEm, symObjAddr: 0x23A14, symBinAddr: 0x2CB40, symSize: 0x20 }
  - { offset: 0x4E6A7, size: 0x8, addend: 0x0, symName: __ZN5flecs15query_builder_iINS_14system_builderIJN7Entropy3ECS4Tags2D2ENS3_10Components8PositionENS6_9DimensionENS6_8RotationENS6_5ColorENS6_16TextureComponentEEEEJS5_S7_S8_S9_SA_SB_EE4termEv, symObjAddr: 0x23A34, symBinAddr: 0x2CB60, symSize: 0x178 }
  - { offset: 0x4E6DB, size: 0x8, addend: 0x0, symName: __ZN5flecs15query_builder_iINS_14system_builderIJN7Entropy3ECS4Tags2D2ENS3_10Components8PositionENS6_9DimensionENS6_8RotationENS6_5ColorENS6_16TextureComponentEEEEJS5_S7_S8_S9_SA_SB_EEcvRSC_Ev, symObjAddr: 0x23BAC, symBinAddr: 0x2CCD8, symSize: 0x14 }
  - { offset: 0x4E6FF, size: 0x8, addend: 0x0, symName: __ZN5flecs14term_builder_iINS_14system_builderIJN7Entropy3ECS4Tags2D2ENS3_10Components8PositionENS6_9DimensionENS6_8RotationENS6_5ColorENS6_16TextureComponentEEEEE8set_termEP10ecs_term_t, symObjAddr: 0x23BC0, symBinAddr: 0x2CCEC, symSize: 0x50 }
  - { offset: 0x4E732, size: 0x8, addend: 0x0, symName: __ZN5flecs14term_builder_iINS_14system_builderIJN7Entropy3ECS4Tags2D2ENS3_10Components8PositionENS6_9DimensionENS6_8RotationENS6_5ColorENS6_16TextureComponentEEEEE11assert_termEv, symObjAddr: 0x23C10, symBinAddr: 0x2CD3C, symSize: 0x9C }
  - { offset: 0x4E756, size: 0x8, addend: 0x0, symName: __ZN5flecs14term_builder_iINS_14system_builderIJN7Entropy3ECS4Tags2D2ENS3_10Components8PositionENS6_9DimensionENS6_8RotationENS6_5ColorENS6_16TextureComponentEEEEEcvRSC_Ev, symObjAddr: 0x23CAC, symBinAddr: 0x2CDD8, symSize: 0x14 }
  - { offset: 0x4E77B, size: 0x8, addend: 0x0, symName: ___cxx_global_var_init.86, symObjAddr: 0x27520, symBinAddr: 0x2FDD0, symSize: 0x18 }
  - { offset: 0x4E78E, size: 0x8, addend: 0x0, symName: __ZN5flecs15query_builder_iINS_14system_builderIJN7Entropy3ECS4Tags2D2ENS3_10Components8PositionENS6_9DimensionENS6_8RotationENS6_5ColorENS6_16TextureComponentEEEEJS5_S7_S8_S9_SA_SB_EE8order_byEyPFiyPKvySF_E, symObjAddr: 0x23CC0, symBinAddr: 0x2CDEC, symSize: 0x44 }
  - { offset: 0x4E7D0, size: 0x8, addend: 0x0, symName: '__ZN5flecs1_12node_builderINS_6systemE17ecs_system_desc_tNS_14system_builderIJN7Entropy3ECS4Tags2D2ENS6_10Components8PositionENS9_9DimensionENS9_8RotationENS9_5ColorENS9_16TextureComponentEEEENS_16system_builder_iEJS8_SA_SB_SC_SD_SE_EE8run_eachIZNS6_5WorldC1EvE3$_1EES2_OT_', symObjAddr: 0x23D04, symBinAddr: 0x2CE30, symSize: 0xD8 }
  - { offset: 0x4E824, size: 0x8, addend: 0x0, symName: '__ZN5flecs1_13each_delegateIZN7Entropy3ECS5WorldC1EvE3$_1JNS3_4Tags2D2ENS3_10Components8PositionENS8_9DimensionENS8_8RotationENS8_5ColorENS8_16TextureComponentEEEC1ILi0EEEOS5_', symObjAddr: 0x23DDC, symBinAddr: 0x2CF08, symSize: 0x34 }
  - { offset: 0x4E860, size: 0x8, addend: 0x0, symName: '__ZN5flecs1_13each_delegateIZN7Entropy3ECS5WorldC1EvE3$_1JNS3_4Tags2D2ENS3_10Components8PositionENS8_9DimensionENS8_8RotationENS8_5ColorENS8_16TextureComponentEEE8run_eachEP10ecs_iter_t', symObjAddr: 0x23E10, symBinAddr: 0x2CF3C, symSize: 0xC4 }
  - { offset: 0x4E893, size: 0x8, addend: 0x0, symName: __ZN5flecs6systemC1EP11ecs_world_tP17ecs_system_desc_t, symObjAddr: 0x23F1C, symBinAddr: 0x2D048, symSize: 0x3C }
  - { offset: 0x4E8D7, size: 0x8, addend: 0x0, symName: '__ZN5flecs1_13each_delegateIZN7Entropy3ECS5WorldC1EvE3$_1JNS3_4Tags2D2ENS3_10Components8PositionENS8_9DimensionENS8_8RotationENS8_5ColorENS8_16TextureComponentEEEC2ILi0EEEOS5_', symObjAddr: 0x23F58, symBinAddr: 0x2D084, symSize: 0x24 }
  - { offset: 0x4E913, size: 0x8, addend: 0x0, symName: '__ZNK5flecs1_13each_delegateIZN7Entropy3ECS5WorldC1EvE3$_1JNS3_4Tags2D2ENS3_10Components8PositionENS8_9DimensionENS8_8RotationENS8_5ColorENS8_16TextureComponentEEE6invokeEP10ecs_iter_t', symObjAddr: 0x23F7C, symBinAddr: 0x2D0A8, symSize: 0xAC }
  - { offset: 0x4E97A, size: 0x8, addend: 0x0, symName: __ZN5flecs1_10field_ptrsIJN7Entropy3ECS4Tags2D2ENS3_10Components8PositionENS6_9DimensionENS6_8RotationENS6_5ColorENS6_16TextureComponentEEEC1Ev, symObjAddr: 0x24028, symBinAddr: 0x2D154, symSize: 0x2C }
  - { offset: 0x4E9A4, size: 0x8, addend: 0x0, symName: __ZN5flecs1_10field_ptrsIJN7Entropy3ECS4Tags2D2ENS3_10Components8PositionENS6_9DimensionENS6_8RotationENS6_5ColorENS6_16TextureComponentEEE8populateEPK10ecs_iter_t, symObjAddr: 0x24054, symBinAddr: 0x2D180, symSize: 0x4C }
  - { offset: 0x4E9DB, size: 0x8, addend: 0x0, symName: '__ZN5flecs1_13each_delegateIZN7Entropy3ECS5WorldC1EvE3$_1JNS3_4Tags2D2ENS3_10Components8PositionENS8_9DimensionENS8_8RotationENS8_5ColorENS8_16TextureComponentEEE13invoke_unpackINS0_14each_ref_fieldEJELi0EEEvP10ecs_iter_tRKS5_mRNS_5arrayINS0_9field_ptrELm6EvEEDpT0_', symObjAddr: 0x240A0, symBinAddr: 0x2D1CC, symSize: 0x80 }
  - { offset: 0x4EA3F, size: 0x8, addend: 0x0, symName: __ZN5flecs1_10field_ptrsIJN7Entropy3ECS4Tags2D2ENS3_10Components8PositionENS6_9DimensionENS6_8RotationENS6_5ColorENS6_16TextureComponentEEE13populate_selfEPK10ecs_iter_t, symObjAddr: 0x24120, symBinAddr: 0x2D24C, symSize: 0x4C }
  - { offset: 0x4EA71, size: 0x8, addend: 0x0, symName: '__ZN5flecs1_13each_delegateIZN7Entropy3ECS5WorldC1EvE3$_1JNS3_4Tags2D2ENS3_10Components8PositionENS8_9DimensionENS8_8RotationENS8_5ColorENS8_16TextureComponentEEE13invoke_unpackINS0_10each_fieldEJELi0EEEvP10ecs_iter_tRKS5_mRNS_5arrayINS0_9field_ptrELm6EvEEDpT0_', symObjAddr: 0x2416C, symBinAddr: 0x2D298, symSize: 0x80 }
  - { offset: 0x4EAD5, size: 0x8, addend: 0x0, symName: __ZN5flecs1_10field_ptrsIJN7Entropy3ECS4Tags2D2ENS3_10Components8PositionENS6_9DimensionENS6_8RotationENS6_5ColorENS6_16TextureComponentEEEC2Ev, symObjAddr: 0x241EC, symBinAddr: 0x2D318, symSize: 0x2C }
  - { offset: 0x4EAFF, size: 0x8, addend: 0x0, symName: __ZN5flecs5arrayINS_1_9field_ptrELm6EvEC1Ev, symObjAddr: 0x24218, symBinAddr: 0x2D344, symSize: 0x2C }
  - { offset: 0x4EB27, size: 0x8, addend: 0x0, symName: __ZN5flecs5arrayINS_1_9field_ptrELm6EvEC2Ev, symObjAddr: 0x24244, symBinAddr: 0x2D370, symSize: 0x60 }
  - { offset: 0x4EB4F, size: 0x8, addend: 0x0, symName: __ZN5flecs1_10field_ptrsIJN7Entropy3ECS4Tags2D2ENS3_10Components8PositionENS6_9DimensionENS6_8RotationENS6_5ColorENS6_16TextureComponentEEE8populateIPS5_JPS7_PS8_PS9_PSA_PSB_ES5_Li0EEEvPK10ecs_iter_tmT_DpT0_, symObjAddr: 0x242A4, symBinAddr: 0x2D3D0, symSize: 0x14C }
  - { offset: 0x4EC16, size: 0x8, addend: 0x0, symName: __ZN5flecs5arrayINS_1_9field_ptrELm6EvEixEm, symObjAddr: 0x243F0, symBinAddr: 0x2D51C, symSize: 0x20 }
  - { offset: 0x4EC48, size: 0x8, addend: 0x0, symName: __ZN5flecs1_10field_ptrsIJN7Entropy3ECS4Tags2D2ENS3_10Components8PositionENS6_9DimensionENS6_8RotationENS6_5ColorENS6_16TextureComponentEEE8populateIPS7_JPS8_PS9_PSA_PSB_ES7_Li0EEEvPK10ecs_iter_tmT_DpT0_, symObjAddr: 0x24410, symBinAddr: 0x2D53C, symSize: 0x140 }
  - { offset: 0x4ECFC, size: 0x8, addend: 0x0, symName: __ZN5flecs1_10field_ptrsIJN7Entropy3ECS4Tags2D2ENS3_10Components8PositionENS6_9DimensionENS6_8RotationENS6_5ColorENS6_16TextureComponentEEE8populateIPS8_JPS9_PSA_PSB_ES8_Li0EEEvPK10ecs_iter_tmT_DpT0_, symObjAddr: 0x24550, symBinAddr: 0x2D67C, symSize: 0x138 }
  - { offset: 0x4ED9D, size: 0x8, addend: 0x0, symName: __ZN5flecs1_10field_ptrsIJN7Entropy3ECS4Tags2D2ENS3_10Components8PositionENS6_9DimensionENS6_8RotationENS6_5ColorENS6_16TextureComponentEEE8populateIPS9_JPSA_PSB_ES9_Li0EEEvPK10ecs_iter_tmT_DpT0_, symObjAddr: 0x24688, symBinAddr: 0x2D7B4, symSize: 0x130 }
  - { offset: 0x4EE2B, size: 0x8, addend: 0x0, symName: __ZN5flecs1_10field_ptrsIJN7Entropy3ECS4Tags2D2ENS3_10Components8PositionENS6_9DimensionENS6_8RotationENS6_5ColorENS6_16TextureComponentEEE8populateIPSA_JPSB_ESA_Li0EEEvPK10ecs_iter_tmT_DpT0_, symObjAddr: 0x247B8, symBinAddr: 0x2D8E4, symSize: 0x128 }
  - { offset: 0x4EEA6, size: 0x8, addend: 0x0, symName: __ZN5flecs1_10field_ptrsIJN7Entropy3ECS4Tags2D2ENS3_10Components8PositionENS6_9DimensionENS6_8RotationENS6_5ColorENS6_16TextureComponentEEE8populateIPSB_JESB_Li0EEEvPK10ecs_iter_tmT_DpT0_, symObjAddr: 0x248E0, symBinAddr: 0x2DA0C, symSize: 0x120 }
  - { offset: 0x4EF0D, size: 0x8, addend: 0x0, symName: __ZN5flecs1_10field_ptrsIJN7Entropy3ECS4Tags2D2ENS3_10Components8PositionENS6_9DimensionENS6_8RotationENS6_5ColorENS6_16TextureComponentEEE8populateEPK10ecs_iter_tm, symObjAddr: 0x24A00, symBinAddr: 0x2DB2C, symSize: 0x18 }
  - { offset: 0x4EF45, size: 0x8, addend: 0x0, symName: '__ZN5flecs1_13each_delegateIZN7Entropy3ECS5WorldC1EvE3$_1JNS3_4Tags2D2ENS3_10Components8PositionENS8_9DimensionENS8_8RotationENS8_5ColorENS8_16TextureComponentEEE13invoke_unpackINS0_14each_ref_fieldEJNS0_9field_ptrEELi0EEEvP10ecs_iter_tRKS5_mRNS_5arrayISH_Lm6EvEEDpT0_', symObjAddr: 0x24A18, symBinAddr: 0x2DB44, symSize: 0x98 }
  - { offset: 0x4EFBE, size: 0x8, addend: 0x0, symName: '__ZN5flecs1_13each_delegateIZN7Entropy3ECS5WorldC1EvE3$_1JNS3_4Tags2D2ENS3_10Components8PositionENS8_9DimensionENS8_8RotationENS8_5ColorENS8_16TextureComponentEEE13invoke_unpackINS0_14each_ref_fieldEJNS0_9field_ptrESH_ELi0EEEvP10ecs_iter_tRKS5_mRNS_5arrayISH_Lm6EvEEDpT0_', symObjAddr: 0x24AB0, symBinAddr: 0x2DBDC, symSize: 0xBC }
  - { offset: 0x4F04B, size: 0x8, addend: 0x0, symName: '__ZN5flecs1_13each_delegateIZN7Entropy3ECS5WorldC1EvE3$_1JNS3_4Tags2D2ENS3_10Components8PositionENS8_9DimensionENS8_8RotationENS8_5ColorENS8_16TextureComponentEEE13invoke_unpackINS0_14each_ref_fieldEJNS0_9field_ptrESH_SH_ELi0EEEvP10ecs_iter_tRKS5_mRNS_5arrayISH_Lm6EvEEDpT0_', symObjAddr: 0x24B6C, symBinAddr: 0x2DC98, symSize: 0xE4 }
  - { offset: 0x4F0EE, size: 0x8, addend: 0x0, symName: '__ZN5flecs1_13each_delegateIZN7Entropy3ECS5WorldC1EvE3$_1JNS3_4Tags2D2ENS3_10Components8PositionENS8_9DimensionENS8_8RotationENS8_5ColorENS8_16TextureComponentEEE13invoke_unpackINS0_14each_ref_fieldEJNS0_9field_ptrESH_SH_SH_ELi0EEEvP10ecs_iter_tRKS5_mRNS_5arrayISH_Lm6EvEEDpT0_', symObjAddr: 0x24C50, symBinAddr: 0x2DD7C, symSize: 0x114 }
  - { offset: 0x4F1A8, size: 0x8, addend: 0x0, symName: '__ZN5flecs1_13each_delegateIZN7Entropy3ECS5WorldC1EvE3$_1JNS3_4Tags2D2ENS3_10Components8PositionENS8_9DimensionENS8_8RotationENS8_5ColorENS8_16TextureComponentEEE13invoke_unpackINS0_14each_ref_fieldEJNS0_9field_ptrESH_SH_SH_SH_ELi0EEEvP10ecs_iter_tRKS5_mRNS_5arrayISH_Lm6EvEEDpT0_', symObjAddr: 0x24D64, symBinAddr: 0x2DE90, symSize: 0x13C }
  - { offset: 0x4F277, size: 0x8, addend: 0x0, symName: '__ZN5flecs1_13each_delegateIZN7Entropy3ECS5WorldC1EvE3$_1JNS3_4Tags2D2ENS3_10Components8PositionENS8_9DimensionENS8_8RotationENS8_5ColorENS8_16TextureComponentEEE13invoke_unpackINS0_14each_ref_fieldEJNS0_9field_ptrESH_SH_SH_SH_SH_ELi0EEEvP10ecs_iter_tRKS5_mRNS_5arrayISH_Lm6EvEEDpT0_', symObjAddr: 0x24EA0, symBinAddr: 0x2DFCC, symSize: 0x1A4 }
  - { offset: 0x4F384, size: 0x8, addend: 0x0, symName: '__ZN5flecs1_13each_delegateIZN7Entropy3ECS5WorldC1EvE3$_1JNS3_4Tags2D2ENS3_10Components8PositionENS8_9DimensionENS8_8RotationENS8_5ColorENS8_16TextureComponentEEE15invoke_callbackINS0_14each_ref_fieldEJNS0_9field_ptrESH_SH_SH_SH_SH_ES5_Li0EEEvP10ecs_iter_tRKS5_mDpT0_', symObjAddr: 0x25044, symBinAddr: 0x2E170, symSize: 0x1A8 }
  - { offset: 0x4F493, size: 0x8, addend: 0x0, symName: '__ZZN7Entropy3ECS5WorldC1EvENK3$_1clENS0_4Tags2D2ERKNS0_10Components8PositionERKNS5_9DimensionERKNS5_8RotationERKNS5_5ColorERKNS5_16TextureComponentE', symObjAddr: 0x251EC, symBinAddr: 0x2E318, symSize: 0x1CC }
  - { offset: 0x4F52C, size: 0x8, addend: 0x0, symName: __ZN5flecs1_14each_ref_fieldIN7Entropy3ECS10Components8PositionEiEC1EPK10ecs_iter_tRNS0_9field_ptrEm, symObjAddr: 0x253B8, symBinAddr: 0x2E4E4, symSize: 0x44 }
  - { offset: 0x4F57E, size: 0x8, addend: 0x0, symName: __ZN5flecs1_10each_fieldIN7Entropy3ECS10Components8PositionEiE7get_rowEv, symObjAddr: 0x253FC, symBinAddr: 0x2E528, symSize: 0x2C }
  - { offset: 0x4F5B1, size: 0x8, addend: 0x0, symName: __ZN5flecs1_14each_ref_fieldIN7Entropy3ECS10Components9DimensionEiEC1EPK10ecs_iter_tRNS0_9field_ptrEm, symObjAddr: 0x25428, symBinAddr: 0x2E554, symSize: 0x44 }
  - { offset: 0x4F603, size: 0x8, addend: 0x0, symName: __ZN5flecs1_10each_fieldIN7Entropy3ECS10Components9DimensionEiE7get_rowEv, symObjAddr: 0x2546C, symBinAddr: 0x2E598, symSize: 0x2C }
  - { offset: 0x4F636, size: 0x8, addend: 0x0, symName: __ZN5flecs1_14each_ref_fieldIN7Entropy3ECS10Components8RotationEiEC1EPK10ecs_iter_tRNS0_9field_ptrEm, symObjAddr: 0x25498, symBinAddr: 0x2E5C4, symSize: 0x44 }
  - { offset: 0x4F688, size: 0x8, addend: 0x0, symName: __ZN5flecs1_10each_fieldIN7Entropy3ECS10Components8RotationEiE7get_rowEv, symObjAddr: 0x254DC, symBinAddr: 0x2E608, symSize: 0x24 }
  - { offset: 0x4F6BB, size: 0x8, addend: 0x0, symName: __ZN5flecs1_14each_ref_fieldIN7Entropy3ECS10Components5ColorEiEC1EPK10ecs_iter_tRNS0_9field_ptrEm, symObjAddr: 0x25500, symBinAddr: 0x2E62C, symSize: 0x44 }
  - { offset: 0x4F70D, size: 0x8, addend: 0x0, symName: __ZN5flecs1_10each_fieldIN7Entropy3ECS10Components5ColorEiE7get_rowEv, symObjAddr: 0x25544, symBinAddr: 0x2E670, symSize: 0x24 }
  - { offset: 0x4F740, size: 0x8, addend: 0x0, symName: __ZN5flecs1_14each_ref_fieldIN7Entropy3ECS10Components16TextureComponentEiEC1EPK10ecs_iter_tRNS0_9field_ptrEm, symObjAddr: 0x25568, symBinAddr: 0x2E694, symSize: 0x44 }
  - { offset: 0x4F792, size: 0x8, addend: 0x0, symName: __ZN5flecs1_10each_fieldIN7Entropy3ECS10Components16TextureComponentEiE7get_rowEv, symObjAddr: 0x255AC, symBinAddr: 0x2E6D8, symSize: 0x2C }
  - { offset: 0x4F7B6, size: 0x8, addend: 0x0, symName: __ZNSt3__16vectorIN7Entropy6Vulkan4Data16InstanceDataTwoDENS_9allocatorIS4_EEEixB8de200100Em, symObjAddr: 0x255D8, symBinAddr: 0x2E704, symSize: 0x64 }
  - { offset: 0x4F7E9, size: 0x8, addend: 0x0, symName: __ZN5flecs1_14each_ref_fieldIN7Entropy3ECS10Components8PositionEiEC2EPK10ecs_iter_tRNS0_9field_ptrEm, symObjAddr: 0x2563C, symBinAddr: 0x2E768, symSize: 0xA0 }
  - { offset: 0x4F83B, size: 0x8, addend: 0x0, symName: __ZN5flecs1_10each_fieldIN7Entropy3ECS10Components8PositionEiEC2EPK10ecs_iter_tRNS0_9field_ptrEm, symObjAddr: 0x256DC, symBinAddr: 0x2E808, symSize: 0x40 }
  - { offset: 0x4F889, size: 0x8, addend: 0x0, symName: __ZN5flecs1_14each_ref_fieldIN7Entropy3ECS10Components9DimensionEiEC2EPK10ecs_iter_tRNS0_9field_ptrEm, symObjAddr: 0x2571C, symBinAddr: 0x2E848, symSize: 0xA0 }
  - { offset: 0x4F8DB, size: 0x8, addend: 0x0, symName: __ZN5flecs1_10each_fieldIN7Entropy3ECS10Components9DimensionEiEC2EPK10ecs_iter_tRNS0_9field_ptrEm, symObjAddr: 0x257BC, symBinAddr: 0x2E8E8, symSize: 0x40 }
  - { offset: 0x4F929, size: 0x8, addend: 0x0, symName: __ZN5flecs1_14each_ref_fieldIN7Entropy3ECS10Components8RotationEiEC2EPK10ecs_iter_tRNS0_9field_ptrEm, symObjAddr: 0x257FC, symBinAddr: 0x2E928, symSize: 0xA0 }
  - { offset: 0x4F97B, size: 0x8, addend: 0x0, symName: __ZN5flecs1_10each_fieldIN7Entropy3ECS10Components8RotationEiEC2EPK10ecs_iter_tRNS0_9field_ptrEm, symObjAddr: 0x2589C, symBinAddr: 0x2E9C8, symSize: 0x40 }
  - { offset: 0x4F9C9, size: 0x8, addend: 0x0, symName: __ZN5flecs1_14each_ref_fieldIN7Entropy3ECS10Components5ColorEiEC2EPK10ecs_iter_tRNS0_9field_ptrEm, symObjAddr: 0x258DC, symBinAddr: 0x2EA08, symSize: 0xA0 }
  - { offset: 0x4FA1B, size: 0x8, addend: 0x0, symName: __ZN5flecs1_10each_fieldIN7Entropy3ECS10Components5ColorEiEC2EPK10ecs_iter_tRNS0_9field_ptrEm, symObjAddr: 0x2597C, symBinAddr: 0x2EAA8, symSize: 0x40 }
  - { offset: 0x4FA69, size: 0x8, addend: 0x0, symName: __ZN5flecs1_14each_ref_fieldIN7Entropy3ECS10Components16TextureComponentEiEC2EPK10ecs_iter_tRNS0_9field_ptrEm, symObjAddr: 0x259BC, symBinAddr: 0x2EAE8, symSize: 0xA0 }
  - { offset: 0x4FABB, size: 0x8, addend: 0x0, symName: __ZN5flecs1_10each_fieldIN7Entropy3ECS10Components16TextureComponentEiEC2EPK10ecs_iter_tRNS0_9field_ptrEm, symObjAddr: 0x25A5C, symBinAddr: 0x2EB88, symSize: 0x40 }
  - { offset: 0x4FB09, size: 0x8, addend: 0x0, symName: __ZN5flecs1_10field_ptrsIJN7Entropy3ECS4Tags2D2ENS3_10Components8PositionENS6_9DimensionENS6_8RotationENS6_5ColorENS6_16TextureComponentEEE13populate_selfIPS5_JPS7_PS8_PS9_PSA_PSB_ES5_Li0EEEvPK10ecs_iter_tmT_DpT0_, symObjAddr: 0x25A9C, symBinAddr: 0x2EBC8, symSize: 0x13C }
  - { offset: 0x4FBD0, size: 0x8, addend: 0x0, symName: __ZN5flecs1_10field_ptrsIJN7Entropy3ECS4Tags2D2ENS3_10Components8PositionENS6_9DimensionENS6_8RotationENS6_5ColorENS6_16TextureComponentEEE13populate_selfIPS7_JPS8_PS9_PSA_PSB_ES7_Li0EEEvPK10ecs_iter_tmT_DpT0_, symObjAddr: 0x25BD8, symBinAddr: 0x2ED04, symSize: 0x130 }
  - { offset: 0x4FC84, size: 0x8, addend: 0x0, symName: __ZN5flecs1_10field_ptrsIJN7Entropy3ECS4Tags2D2ENS3_10Components8PositionENS6_9DimensionENS6_8RotationENS6_5ColorENS6_16TextureComponentEEE13populate_selfIPS8_JPS9_PSA_PSB_ES8_Li0EEEvPK10ecs_iter_tmT_DpT0_, symObjAddr: 0x25D08, symBinAddr: 0x2EE34, symSize: 0x128 }
  - { offset: 0x4FD25, size: 0x8, addend: 0x0, symName: __ZN5flecs1_10field_ptrsIJN7Entropy3ECS4Tags2D2ENS3_10Components8PositionENS6_9DimensionENS6_8RotationENS6_5ColorENS6_16TextureComponentEEE13populate_selfIPS9_JPSA_PSB_ES9_Li0EEEvPK10ecs_iter_tmT_DpT0_, symObjAddr: 0x25E30, symBinAddr: 0x2EF5C, symSize: 0x120 }
  - { offset: 0x4FDB3, size: 0x8, addend: 0x0, symName: __ZN5flecs1_10field_ptrsIJN7Entropy3ECS4Tags2D2ENS3_10Components8PositionENS6_9DimensionENS6_8RotationENS6_5ColorENS6_16TextureComponentEEE13populate_selfIPSA_JPSB_ESA_Li0EEEvPK10ecs_iter_tmT_DpT0_, symObjAddr: 0x25F50, symBinAddr: 0x2F07C, symSize: 0x118 }
  - { offset: 0x4FE2E, size: 0x8, addend: 0x0, symName: __ZN5flecs1_10field_ptrsIJN7Entropy3ECS4Tags2D2ENS3_10Components8PositionENS6_9DimensionENS6_8RotationENS6_5ColorENS6_16TextureComponentEEE13populate_selfIPSB_JESB_Li0EEEvPK10ecs_iter_tmT_DpT0_, symObjAddr: 0x26068, symBinAddr: 0x2F194, symSize: 0x110 }
  - { offset: 0x4FE95, size: 0x8, addend: 0x0, symName: __ZN5flecs1_10field_ptrsIJN7Entropy3ECS4Tags2D2ENS3_10Components8PositionENS6_9DimensionENS6_8RotationENS6_5ColorENS6_16TextureComponentEEE13populate_selfEPK10ecs_iter_tm, symObjAddr: 0x26178, symBinAddr: 0x2F2A4, symSize: 0x18 }
  - { offset: 0x4FECD, size: 0x8, addend: 0x0, symName: '__ZN5flecs1_13each_delegateIZN7Entropy3ECS5WorldC1EvE3$_1JNS3_4Tags2D2ENS3_10Components8PositionENS8_9DimensionENS8_8RotationENS8_5ColorENS8_16TextureComponentEEE13invoke_unpackINS0_10each_fieldEJNS0_9field_ptrEELi0EEEvP10ecs_iter_tRKS5_mRNS_5arrayISH_Lm6EvEEDpT0_', symObjAddr: 0x26190, symBinAddr: 0x2F2BC, symSize: 0x98 }
  - { offset: 0x4FF46, size: 0x8, addend: 0x0, symName: '__ZN5flecs1_13each_delegateIZN7Entropy3ECS5WorldC1EvE3$_1JNS3_4Tags2D2ENS3_10Components8PositionENS8_9DimensionENS8_8RotationENS8_5ColorENS8_16TextureComponentEEE13invoke_unpackINS0_10each_fieldEJNS0_9field_ptrESH_ELi0EEEvP10ecs_iter_tRKS5_mRNS_5arrayISH_Lm6EvEEDpT0_', symObjAddr: 0x26228, symBinAddr: 0x2F354, symSize: 0xBC }
  - { offset: 0x4FFD3, size: 0x8, addend: 0x0, symName: '__ZN5flecs1_13each_delegateIZN7Entropy3ECS5WorldC1EvE3$_1JNS3_4Tags2D2ENS3_10Components8PositionENS8_9DimensionENS8_8RotationENS8_5ColorENS8_16TextureComponentEEE13invoke_unpackINS0_10each_fieldEJNS0_9field_ptrESH_SH_ELi0EEEvP10ecs_iter_tRKS5_mRNS_5arrayISH_Lm6EvEEDpT0_', symObjAddr: 0x262E4, symBinAddr: 0x2F410, symSize: 0xE4 }
  - { offset: 0x50076, size: 0x8, addend: 0x0, symName: '__ZN5flecs1_13each_delegateIZN7Entropy3ECS5WorldC1EvE3$_1JNS3_4Tags2D2ENS3_10Components8PositionENS8_9DimensionENS8_8RotationENS8_5ColorENS8_16TextureComponentEEE13invoke_unpackINS0_10each_fieldEJNS0_9field_ptrESH_SH_SH_ELi0EEEvP10ecs_iter_tRKS5_mRNS_5arrayISH_Lm6EvEEDpT0_', symObjAddr: 0x263C8, symBinAddr: 0x2F4F4, symSize: 0x114 }
  - { offset: 0x50130, size: 0x8, addend: 0x0, symName: '__ZN5flecs1_13each_delegateIZN7Entropy3ECS5WorldC1EvE3$_1JNS3_4Tags2D2ENS3_10Components8PositionENS8_9DimensionENS8_8RotationENS8_5ColorENS8_16TextureComponentEEE13invoke_unpackINS0_10each_fieldEJNS0_9field_ptrESH_SH_SH_SH_ELi0EEEvP10ecs_iter_tRKS5_mRNS_5arrayISH_Lm6EvEEDpT0_', symObjAddr: 0x264DC, symBinAddr: 0x2F608, symSize: 0x13C }
  - { offset: 0x501FF, size: 0x8, addend: 0x0, symName: '__ZN5flecs1_13each_delegateIZN7Entropy3ECS5WorldC1EvE3$_1JNS3_4Tags2D2ENS3_10Components8PositionENS8_9DimensionENS8_8RotationENS8_5ColorENS8_16TextureComponentEEE13invoke_unpackINS0_10each_fieldEJNS0_9field_ptrESH_SH_SH_SH_SH_ELi0EEEvP10ecs_iter_tRKS5_mRNS_5arrayISH_Lm6EvEEDpT0_', symObjAddr: 0x26618, symBinAddr: 0x2F744, symSize: 0x1A4 }
  - { offset: 0x5030C, size: 0x8, addend: 0x0, symName: '__ZN5flecs1_13each_delegateIZN7Entropy3ECS5WorldC1EvE3$_1JNS3_4Tags2D2ENS3_10Components8PositionENS8_9DimensionENS8_8RotationENS8_5ColorENS8_16TextureComponentEEE15invoke_callbackINS0_10each_fieldEJNS0_9field_ptrESH_SH_SH_SH_SH_ES5_Li0EEEvP10ecs_iter_tRKS5_mDpT0_', symObjAddr: 0x267BC, symBinAddr: 0x2F8E8, symSize: 0x1A8 }
  - { offset: 0x503E9, size: 0x8, addend: 0x0, symName: __ZN5flecs1_10each_fieldIN7Entropy3ECS10Components8PositionEiEC1EPK10ecs_iter_tRNS0_9field_ptrEm, symObjAddr: 0x26964, symBinAddr: 0x2FA90, symSize: 0x44 }
  - { offset: 0x50437, size: 0x8, addend: 0x0, symName: __ZN5flecs1_10each_fieldIN7Entropy3ECS10Components9DimensionEiEC1EPK10ecs_iter_tRNS0_9field_ptrEm, symObjAddr: 0x269A8, symBinAddr: 0x2FAD4, symSize: 0x44 }
  - { offset: 0x50485, size: 0x8, addend: 0x0, symName: __ZN5flecs1_10each_fieldIN7Entropy3ECS10Components8RotationEiEC1EPK10ecs_iter_tRNS0_9field_ptrEm, symObjAddr: 0x269EC, symBinAddr: 0x2FB18, symSize: 0x44 }
  - { offset: 0x504D3, size: 0x8, addend: 0x0, symName: __ZN5flecs1_10each_fieldIN7Entropy3ECS10Components5ColorEiEC1EPK10ecs_iter_tRNS0_9field_ptrEm, symObjAddr: 0x26A30, symBinAddr: 0x2FB5C, symSize: 0x44 }
  - { offset: 0x50521, size: 0x8, addend: 0x0, symName: __ZN5flecs1_10each_fieldIN7Entropy3ECS10Components16TextureComponentEiEC1EPK10ecs_iter_tRNS0_9field_ptrEm, symObjAddr: 0x26A74, symBinAddr: 0x2FBA0, symSize: 0x44 }
  - { offset: 0x5056F, size: 0x8, addend: 0x0, symName: __ZN5flecs6systemC2EP11ecs_world_tP17ecs_system_desc_t, symObjAddr: 0x26AC8, symBinAddr: 0x2FBF4, symSize: 0x54 }
  - { offset: 0x505B3, size: 0x8, addend: 0x0, symName: __ZN7Entropy3ECS5WorldD2Ev, symObjAddr: 0x26B1C, symBinAddr: 0x2FC48, symSize: 0x5C }
  - { offset: 0x505DD, size: 0x8, addend: 0x0, symName: __ZNSt3__110shared_ptrIN5flecs5worldEEC1B8de200100ERKS3_, symObjAddr: 0x26B78, symBinAddr: 0x2FCA4, symSize: 0x34 }
  - { offset: 0x50614, size: 0x8, addend: 0x0, symName: __ZNSt3__110shared_ptrIN5flecs5worldEEC2B8de200100ERKS3_, symObjAddr: 0x26BAC, symBinAddr: 0x2FCD8, symSize: 0x68 }
  - { offset: 0x5064C, size: 0x8, addend: 0x0, symName: __GLOBAL__sub_I_world.cpp, symObjAddr: 0x27538, symBinAddr: 0x2FDE8, symSize: 0x2C }
  - { offset: 0x52A50, size: 0x8, addend: 0x0, symName: __ZL12g_components, symObjAddr: 0x267EA0, symBinAddr: 0x859188, symSize: 0x0 }
  - { offset: 0x59D96, size: 0x8, addend: 0x0, symName: __ZNSt3__110__function10__not_nullB8de200100IZN7Entropy6Assets13IAssetManager14RegisterLoaderINS3_12TextureAssetEEEvRKNS_8functionIFNS_10shared_ptrIT_EERKNS_12basic_stringIcNS_11char_traitsIcEENS_9allocatorIcEEEEEEEEUlSI_E_EEbRKS9_, symObjAddr: 0x1AF70, symBinAddr: 0x48FA4, symSize: 0x18 }
  - { offset: 0x59DC7, size: 0x8, addend: 0x0, symName: __ZNSt3__110__function10__not_nullB8de200100IZN7Entropy6Assets12AssetManagerC1EvEUlRKNS_12basic_stringIcNS_11char_traitsIcEENS_9allocatorIcEEEEE_EEbRKT_, symObjAddr: 0x1C820, symBinAddr: 0x4A854, symSize: 0x18 }
  - { offset: 0x79F74, size: 0x8, addend: 0x0, symName: __ZNSt3__16chronomiB8de200100IxNS_5ratioILl1ELl1000000000EEExS3_EENS_11common_typeIJNS0_8durationIT_T0_EENS5_IT1_T2_EEEE4typeERKS8_RKSB_, symObjAddr: 0x3C18, symBinAddr: 0x335D8, symSize: 0x6C }
  - { offset: 0x7A78E, size: 0x8, addend: 0x0, symName: __ZNSt3__16chronomiB8de200100INS0_12steady_clockENS0_8durationIxNS_5ratioILl1ELl1000000000EEEEES6_EENS_11common_typeIJT0_T1_EE4typeERKNS0_10time_pointIT_S8_EERKNSC_ISD_S9_EE, symObjAddr: 0x151C, symBinAddr: 0x31100, symSize: 0x58 }
  - { offset: 0x7A7E3, size: 0x8, addend: 0x0, symName: __ZNSt3__16chrono13duration_castB8de200100INS0_8durationIfNS_5ratioILl1ELl1EEEEExNS3_ILl1ELl1000000000EEELi0EEET_RKNS2_IT0_T1_EE, symObjAddr: 0x3D58, symBinAddr: 0x33718, symSize: 0x30 }
  - { offset: 0x7A830, size: 0x8, addend: 0x0, symName: __ZNSt3__16chrono13duration_castB8de200100INS0_8durationIxNS_5ratioILl1ELl1000000000EEEEExNS3_ILl1ELl1000000EEELi0EEET_RKNS2_IT0_T1_EE, symObjAddr: 0x11474, symBinAddr: 0x3F6D0, symSize: 0x30 }
  - { offset: 0x7EEA4, size: 0x8, addend: 0x0, symName: __ZNSt3__117__cxx_atomic_loadB8de200100IN5quill3v108LogLevelEEET_PKNS_22__cxx_atomic_base_implIS4_EENS_12memory_orderE, symObjAddr: 0x10E50, symBinAddr: 0x3F0AC, symSize: 0x78 }
  - { offset: 0x7EEF2, size: 0x8, addend: 0x0, symName: __ZNSt3__117__cxx_atomic_loadB8de200100IbEET_PKNS_22__cxx_atomic_base_implIS1_EENS_12memory_orderE, symObjAddr: 0x11358, symBinAddr: 0x3F5B4, symSize: 0x7C }
  - { offset: 0x7F451, size: 0x8, addend: 0x0, symName: __ZNSt3__117__cxx_atomic_loadB8de200100IPN5quill3v106detail18UnboundedSPSCQueue4NodeEEET_PKNS_22__cxx_atomic_base_implIS7_EENS_12memory_orderE, symObjAddr: 0x13B74, symBinAddr: 0x41DD0, symSize: 0x78 }
  - { offset: 0x7F49F, size: 0x8, addend: 0x0, symName: __ZNSt3__117__cxx_atomic_loadB8de200100IN5quill3v106detail8Spinlock5StateEEET_PKNS_22__cxx_atomic_base_implIS6_EENS_12memory_orderE, symObjAddr: 0x148D8, symBinAddr: 0x42B34, symSize: 0x78 }
  - { offset: 0x7F4ED, size: 0x8, addend: 0x0, symName: __ZNSt3__117__cxx_atomic_loadB8de200100ImEET_PKNS_22__cxx_atomic_base_implIS1_EENS_12memory_orderE, symObjAddr: 0x1640C, symBinAddr: 0x44440, symSize: 0x78 }
  - { offset: 0x7F53B, size: 0x8, addend: 0x0, symName: __ZNSt3__117__cxx_atomic_loadB8de200100IjEET_PKNS_22__cxx_atomic_base_implIS1_EENS_12memory_orderE, symObjAddr: 0x17B90, symBinAddr: 0x45BC4, symSize: 0x78 }
  - { offset: 0x85209, size: 0x8, addend: 0x0, symName: __ZNSt3__111make_sharedB8de200100IN7Entropy6Vulkan8Surfaces7SurfaceEJPvELi0EEENS_10shared_ptrIT_EEDpOT0_, symObjAddr: 0x94C, symBinAddr: 0x30708, symSize: 0x40 }
  - { offset: 0x85251, size: 0x8, addend: 0x0, symName: __ZNSt3__111make_sharedB8de200100IN7Entropy7Cameras18OrthographicCameraEJELi0EEENS_10shared_ptrIT_EEDpOT0_, symObjAddr: 0xB64, symBinAddr: 0x30920, symSize: 0x38 }
  - { offset: 0x8549D, size: 0x8, addend: 0x0, symName: __ZNSt3__111make_sharedB8de200100IN7Entropy9Renderers14VulkanRendererEJRjS4_ELi0EEENS_10shared_ptrIT_EEDpOT0_, symObjAddr: 0xD7C, symBinAddr: 0x30B38, symSize: 0x48 }
  - { offset: 0x8592B, size: 0x8, addend: 0x0, symName: __ZNSt3__111make_sharedB8de200100IN7Entropy6Assets12AssetManagerEJELi0EEENS_10shared_ptrIT_EEDpOT0_, symObjAddr: 0x1140, symBinAddr: 0x30D24, symSize: 0x38 }
  - { offset: 0x85B77, size: 0x8, addend: 0x0, symName: __ZNSt3__111make_sharedB8de200100IN7Entropy3ECS5WorldEJELi0EEENS_10shared_ptrIT_EEDpOT0_, symObjAddr: 0x12F0, symBinAddr: 0x30ED4, symSize: 0x38 }
  - { offset: 0x85DC3, size: 0x8, addend: 0x0, symName: __ZNSt3__111make_sharedB8de200100IN7Entropy6Vulkan9Instances14VulkanInstanceEJELi0EEENS_10shared_ptrIT_EEDpOT0_, symObjAddr: 0x1A44, symBinAddr: 0x315D4, symSize: 0x38 }
  - { offset: 0x8600F, size: 0x8, addend: 0x0, symName: __ZNSt3__111make_sharedB8de200100IN7Entropy6Vulkan7Devices14PhysicalDeviceEJELi0EEENS_10shared_ptrIT_EEDpOT0_, symObjAddr: 0x1BF4, symBinAddr: 0x31784, symSize: 0x38 }
  - { offset: 0x8625B, size: 0x8, addend: 0x0, symName: __ZNSt3__111make_sharedB8de200100IN7Entropy6Vulkan7Devices13LogicalDeviceEJELi0EEENS_10shared_ptrIT_EEDpOT0_, symObjAddr: 0x1DA4, symBinAddr: 0x31934, symSize: 0x38 }
  - { offset: 0x864A7, size: 0x8, addend: 0x0, symName: __ZNSt3__111make_sharedB8de200100IN7Entropy6Vulkan6Memory9AllocatorEJELi0EEENS_10shared_ptrIT_EEDpOT0_, symObjAddr: 0x1F54, symBinAddr: 0x31AE4, symSize: 0x38 }
  - { offset: 0x866F3, size: 0x8, addend: 0x0, symName: __ZNSt3__111make_sharedB8de200100IN7Entropy6Vulkan12CommandPools11CommandPoolEJELi0EEENS_10shared_ptrIT_EEDpOT0_, symObjAddr: 0x2104, symBinAddr: 0x31C94, symSize: 0x38 }
  - { offset: 0x8693F, size: 0x8, addend: 0x0, symName: __ZNSt3__111make_sharedB8de200100IN7Entropy6Vulkan15DescriptorPools14DescriptorPoolEJELi0EEENS_10shared_ptrIT_EEDpOT0_, symObjAddr: 0x22B4, symBinAddr: 0x31E44, symSize: 0x38 }
  - { offset: 0x86B8B, size: 0x8, addend: 0x0, symName: __ZNSt3__111make_sharedB8de200100IN7Entropy6Vulkan6Caches13PipelineCacheEJELi0EEENS_10shared_ptrIT_EEDpOT0_, symObjAddr: 0x2464, symBinAddr: 0x31FF4, symSize: 0x38 }
  - { offset: 0x86DD7, size: 0x8, addend: 0x0, symName: __ZNSt3__111make_sharedB8de200100IN7Entropy6Vulkan10SwapChains9SwapChainEJELi0EEENS_10shared_ptrIT_EEDpOT0_, symObjAddr: 0x2614, symBinAddr: 0x321A4, symSize: 0x38 }
  - { offset: 0x87023, size: 0x8, addend: 0x0, symName: __ZNSt3__111make_sharedB8de200100IN7Entropy7Cameras13CameraManagerEJELi0EEENS_10shared_ptrIT_EEDpOT0_, symObjAddr: 0x27BC, symBinAddr: 0x3234C, symSize: 0x38 }
  - { offset: 0x87056, size: 0x8, addend: 0x0, symName: __ZNSt3__14swapB8de200100IPN7Entropy7Cameras10BaseCameraEEENS_9enable_ifIXaasr21is_move_constructibleIT_EE5valuesr18is_move_assignableIS6_EE5valueEvE4typeERS6_S9_, symObjAddr: 0x3BA0, symBinAddr: 0x3359C, symSize: 0x3C }
  - { offset: 0x8713A, size: 0x8, addend: 0x0, symName: __ZNSt3__112__destroy_atB8de200100INS_11__hash_nodeINS_17__hash_value_typeIyNS_13unordered_mapIj13ComponentBlobNS_4hashIjEENS_8equal_toIjEENS_9allocatorINS_4pairIKjS4_EEEEEEEEPvEELi0EEEvPT_, symObjAddr: 0x4DB8, symBinAddr: 0x33D0C, symSize: 0x38 }
  - { offset: 0x871A4, size: 0x8, addend: 0x0, symName: __ZNSt3__112__destroy_atB8de200100INS_4pairIKyNS_13unordered_mapIj13ComponentBlobNS_4hashIjEENS_8equal_toIjEENS_9allocatorINS1_IKjS4_EEEEEEEELi0EEEvPT_, symObjAddr: 0x4E38, symBinAddr: 0x33D8C, symSize: 0x38 }
  - { offset: 0x8726E, size: 0x8, addend: 0x0, symName: __ZNSt3__112__destroy_atB8de200100INS_11__hash_nodeINS_17__hash_value_typeIj13ComponentBlobEEPvEELi0EEEvPT_, symObjAddr: 0x5108, symBinAddr: 0x3405C, symSize: 0x38 }
  - { offset: 0x872D8, size: 0x8, addend: 0x0, symName: __ZNSt3__112__destroy_atB8de200100INS_4pairIKj13ComponentBlobEELi0EEEvPT_, symObjAddr: 0x5188, symBinAddr: 0x340DC, symSize: 0x38 }
  - { offset: 0x8730F, size: 0x8, addend: 0x0, symName: __ZNSt3__112__to_addressB8de200100IhEEPT_S2_, symObjAddr: 0x5540, symBinAddr: 0x34494, symSize: 0x14 }
  - { offset: 0x87344, size: 0x8, addend: 0x0, symName: __ZNSt3__119__libcpp_deallocateB8de200100IhEEvPNS_15__type_identityIT_E4typeENS_15__element_countEm, symObjAddr: 0x559C, symBinAddr: 0x344F0, symSize: 0x64 }
  - { offset: 0x873BC, size: 0x8, addend: 0x0, symName: __ZNSt3__124__libcpp_operator_deleteB8de200100IJPhSt11align_val_tEEEvDpT_, symObjAddr: 0x561C, symBinAddr: 0x34554, symSize: 0x2C }
  - { offset: 0x87402, size: 0x8, addend: 0x0, symName: __ZNSt3__124__libcpp_operator_deleteB8de200100IJPhEEEvDpT_, symObjAddr: 0x5648, symBinAddr: 0x34580, symSize: 0x24 }
  - { offset: 0x87435, size: 0x8, addend: 0x0, symName: __ZNSt3__17launderB8de200100INS_4pairIKj13ComponentBlobEEEEPT_S6_, symObjAddr: 0x5690, symBinAddr: 0x345C8, symSize: 0x24 }
  - { offset: 0x8746A, size: 0x8, addend: 0x0, symName: __ZNSt3__19__launderB8de200100INS_4pairIKj13ComponentBlobEEEEPT_S6_, symObjAddr: 0x56B4, symBinAddr: 0x345EC, symSize: 0x14 }
  - { offset: 0x8749F, size: 0x8, addend: 0x0, symName: __ZNSt3__119__libcpp_deallocateB8de200100INS_11__hash_nodeINS_17__hash_value_typeIj13ComponentBlobEEPvEEEEvPNS_15__type_identityIT_E4typeENS_15__element_countEm, symObjAddr: 0x573C, symBinAddr: 0x34674, symSize: 0x68 }
  - { offset: 0x87517, size: 0x8, addend: 0x0, symName: __ZNSt3__124__libcpp_operator_deleteB8de200100IJPNS_11__hash_nodeINS_17__hash_value_typeIj13ComponentBlobEEPvEESt11align_val_tEEEvDpT_, symObjAddr: 0x57A4, symBinAddr: 0x346DC, symSize: 0x2C }
  - { offset: 0x8755D, size: 0x8, addend: 0x0, symName: __ZNSt3__124__libcpp_operator_deleteB8de200100IJPNS_11__hash_nodeINS_17__hash_value_typeIj13ComponentBlobEEPvEEEEEvDpT_, symObjAddr: 0x57D0, symBinAddr: 0x34708, symSize: 0x24 }
  - { offset: 0x87590, size: 0x8, addend: 0x0, symName: __ZNSt3__119__libcpp_deallocateB8de200100IPNS_16__hash_node_baseIPNS_11__hash_nodeINS_17__hash_value_typeIj13ComponentBlobEEPvEEEEEEvPNS_15__type_identityIT_E4typeENS_15__element_countEm, symObjAddr: 0x5960, symBinAddr: 0x34898, symSize: 0x64 }
  - { offset: 0x87608, size: 0x8, addend: 0x0, symName: __ZNSt3__124__libcpp_operator_deleteB8de200100IJPPNS_16__hash_node_baseIPNS_11__hash_nodeINS_17__hash_value_typeIj13ComponentBlobEEPvEEEESt11align_val_tEEEvDpT_, symObjAddr: 0x59C4, symBinAddr: 0x348FC, symSize: 0x2C }
  - { offset: 0x8764E, size: 0x8, addend: 0x0, symName: __ZNSt3__124__libcpp_operator_deleteB8de200100IJPPNS_16__hash_node_baseIPNS_11__hash_nodeINS_17__hash_value_typeIj13ComponentBlobEEPvEEEEEEEvDpT_, symObjAddr: 0x59F0, symBinAddr: 0x34928, symSize: 0x24 }
  - { offset: 0x87681, size: 0x8, addend: 0x0, symName: __ZNSt3__17launderB8de200100INS_4pairIKyNS_13unordered_mapIj13ComponentBlobNS_4hashIjEENS_8equal_toIjEENS_9allocatorINS1_IKjS4_EEEEEEEEEEPT_SG_, symObjAddr: 0x5A38, symBinAddr: 0x34970, symSize: 0x24 }
  - { offset: 0x876B6, size: 0x8, addend: 0x0, symName: __ZNSt3__19__launderB8de200100INS_4pairIKyNS_13unordered_mapIj13ComponentBlobNS_4hashIjEENS_8equal_toIjEENS_9allocatorINS1_IKjS4_EEEEEEEEEEPT_SG_, symObjAddr: 0x5A5C, symBinAddr: 0x34994, symSize: 0x14 }
  - { offset: 0x876EB, size: 0x8, addend: 0x0, symName: __ZNSt3__119__libcpp_deallocateB8de200100INS_11__hash_nodeINS_17__hash_value_typeIyNS_13unordered_mapIj13ComponentBlobNS_4hashIjEENS_8equal_toIjEENS_9allocatorINS_4pairIKjS4_EEEEEEEEPvEEEEvPNS_15__type_identityIT_E4typeENS_15__element_countEm, symObjAddr: 0x5AE4, symBinAddr: 0x34A1C, symSize: 0x64 }
  - { offset: 0x87763, size: 0x8, addend: 0x0, symName: __ZNSt3__124__libcpp_operator_deleteB8de200100IJPNS_11__hash_nodeINS_17__hash_value_typeIyNS_13unordered_mapIj13ComponentBlobNS_4hashIjEENS_8equal_toIjEENS_9allocatorINS_4pairIKjS4_EEEEEEEEPvEESt11align_val_tEEEvDpT_, symObjAddr: 0x5B48, symBinAddr: 0x34A80, symSize: 0x2C }
  - { offset: 0x877A9, size: 0x8, addend: 0x0, symName: __ZNSt3__124__libcpp_operator_deleteB8de200100IJPNS_11__hash_nodeINS_17__hash_value_typeIyNS_13unordered_mapIj13ComponentBlobNS_4hashIjEENS_8equal_toIjEENS_9allocatorINS_4pairIKjS4_EEEEEEEEPvEEEEEvDpT_, symObjAddr: 0x5B74, symBinAddr: 0x34AAC, symSize: 0x24 }
  - { offset: 0x877DC, size: 0x8, addend: 0x0, symName: __ZNSt3__119__libcpp_deallocateB8de200100IPNS_16__hash_node_baseIPNS_11__hash_nodeINS_17__hash_value_typeIyNS_13unordered_mapIj13ComponentBlobNS_4hashIjEENS_8equal_toIjEENS_9allocatorINS_4pairIKjS5_EEEEEEEEPvEEEEEEvPNS_15__type_identityIT_E4typeENS_15__element_countEm, symObjAddr: 0x5D04, symBinAddr: 0x34C3C, symSize: 0x64 }
  - { offset: 0x87854, size: 0x8, addend: 0x0, symName: __ZNSt3__124__libcpp_operator_deleteB8de200100IJPPNS_16__hash_node_baseIPNS_11__hash_nodeINS_17__hash_value_typeIyNS_13unordered_mapIj13ComponentBlobNS_4hashIjEENS_8equal_toIjEENS_9allocatorINS_4pairIKjS5_EEEEEEEEPvEEEESt11align_val_tEEEvDpT_, symObjAddr: 0x5D68, symBinAddr: 0x34CA0, symSize: 0x2C }
  - { offset: 0x8789A, size: 0x8, addend: 0x0, symName: __ZNSt3__124__libcpp_operator_deleteB8de200100IJPPNS_16__hash_node_baseIPNS_11__hash_nodeINS_17__hash_value_typeIyNS_13unordered_mapIj13ComponentBlobNS_4hashIjEENS_8equal_toIjEENS_9allocatorINS_4pairIKjS5_EEEEEEEEPvEEEEEEEvDpT_, symObjAddr: 0x5D94, symBinAddr: 0x34CCC, symSize: 0x24 }
  - { offset: 0x87960, size: 0x8, addend: 0x0, symName: __ZNSt3__112__destroy_atB8de200100INS_11__hash_nodeINS_17__hash_value_typeIjNS_8functionIFvyPKviEEEEEPvEELi0EEEvPT_, symObjAddr: 0x62D4, symBinAddr: 0x3520C, symSize: 0x38 }
  - { offset: 0x879CA, size: 0x8, addend: 0x0, symName: __ZNSt3__112__destroy_atB8de200100INS_4pairIKjNS_8functionIFvyPKviEEEEELi0EEEvPT_, symObjAddr: 0x6354, symBinAddr: 0x3528C, symSize: 0x38 }
  - { offset: 0x87A01, size: 0x8, addend: 0x0, symName: __ZNSt3__17launderB8de200100INS_4pairIKjNS_8functionIFvyPKviEEEEEEEPT_SA_, symObjAddr: 0x6514, symBinAddr: 0x3544C, symSize: 0x24 }
  - { offset: 0x87A36, size: 0x8, addend: 0x0, symName: __ZNSt3__19__launderB8de200100INS_4pairIKjNS_8functionIFvyPKviEEEEEEEPT_SA_, symObjAddr: 0x6538, symBinAddr: 0x35470, symSize: 0x14 }
  - { offset: 0x87A6B, size: 0x8, addend: 0x0, symName: __ZNSt3__119__libcpp_deallocateB8de200100INS_11__hash_nodeINS_17__hash_value_typeIjNS_8functionIFvyPKviEEEEEPvEEEEvPNS_15__type_identityIT_E4typeENS_15__element_countEm, symObjAddr: 0x65C0, symBinAddr: 0x354F8, symSize: 0x68 }
  - { offset: 0x87AE3, size: 0x8, addend: 0x0, symName: __ZNSt3__124__libcpp_operator_deleteB8de200100IJPNS_11__hash_nodeINS_17__hash_value_typeIjNS_8functionIFvyPKviEEEEEPvEESt11align_val_tEEEvDpT_, symObjAddr: 0x6628, symBinAddr: 0x35560, symSize: 0x2C }
  - { offset: 0x87B29, size: 0x8, addend: 0x0, symName: __ZNSt3__124__libcpp_operator_deleteB8de200100IJPNS_11__hash_nodeINS_17__hash_value_typeIjNS_8functionIFvyPKviEEEEEPvEEEEEvDpT_, symObjAddr: 0x6654, symBinAddr: 0x3558C, symSize: 0x24 }
  - { offset: 0x87B5C, size: 0x8, addend: 0x0, symName: __ZNSt3__119__libcpp_deallocateB8de200100IPNS_16__hash_node_baseIPNS_11__hash_nodeINS_17__hash_value_typeIjNS_8functionIFvyPKviEEEEEPvEEEEEEvPNS_15__type_identityIT_E4typeENS_15__element_countEm, symObjAddr: 0x67E4, symBinAddr: 0x3571C, symSize: 0x64 }
  - { offset: 0x87BD4, size: 0x8, addend: 0x0, symName: __ZNSt3__124__libcpp_operator_deleteB8de200100IJPPNS_16__hash_node_baseIPNS_11__hash_nodeINS_17__hash_value_typeIjNS_8functionIFvyPKviEEEEEPvEEEESt11align_val_tEEEvDpT_, symObjAddr: 0x6848, symBinAddr: 0x35780, symSize: 0x2C }
  - { offset: 0x87C1A, size: 0x8, addend: 0x0, symName: __ZNSt3__124__libcpp_operator_deleteB8de200100IJPPNS_16__hash_node_baseIPNS_11__hash_nodeINS_17__hash_value_typeIjNS_8functionIFvyPKviEEEEEPvEEEEEEEvDpT_, symObjAddr: 0x6874, symBinAddr: 0x357AC, symSize: 0x24 }
  - { offset: 0x87CE0, size: 0x8, addend: 0x0, symName: __ZNSt3__112__destroy_atB8de200100INS_11__hash_nodeINS_17__hash_value_typeIjNS_8functionIFbyPviEEEEES4_EELi0EEEvPT_, symObjAddr: 0x6DB4, symBinAddr: 0x35CEC, symSize: 0x38 }
  - { offset: 0x87D4A, size: 0x8, addend: 0x0, symName: __ZNSt3__112__destroy_atB8de200100INS_4pairIKjNS_8functionIFbyPviEEEEELi0EEEvPT_, symObjAddr: 0x6E34, symBinAddr: 0x35D6C, symSize: 0x38 }
  - { offset: 0x87D81, size: 0x8, addend: 0x0, symName: __ZNSt3__17launderB8de200100INS_4pairIKjNS_8functionIFbyPviEEEEEEEPT_S9_, symObjAddr: 0x6FF4, symBinAddr: 0x35F2C, symSize: 0x24 }
  - { offset: 0x87DB6, size: 0x8, addend: 0x0, symName: __ZNSt3__19__launderB8de200100INS_4pairIKjNS_8functionIFbyPviEEEEEEEPT_S9_, symObjAddr: 0x7018, symBinAddr: 0x35F50, symSize: 0x14 }
  - { offset: 0x87DEB, size: 0x8, addend: 0x0, symName: __ZNSt3__119__libcpp_deallocateB8de200100INS_11__hash_nodeINS_17__hash_value_typeIjNS_8functionIFbyPviEEEEES4_EEEEvPNS_15__type_identityIT_E4typeENS_15__element_countEm, symObjAddr: 0x70A0, symBinAddr: 0x35FD8, symSize: 0x68 }
  - { offset: 0x87E63, size: 0x8, addend: 0x0, symName: __ZNSt3__124__libcpp_operator_deleteB8de200100IJPNS_11__hash_nodeINS_17__hash_value_typeIjNS_8functionIFbyPviEEEEES4_EESt11align_val_tEEEvDpT_, symObjAddr: 0x7108, symBinAddr: 0x36040, symSize: 0x2C }
  - { offset: 0x87EA9, size: 0x8, addend: 0x0, symName: __ZNSt3__124__libcpp_operator_deleteB8de200100IJPNS_11__hash_nodeINS_17__hash_value_typeIjNS_8functionIFbyPviEEEEES4_EEEEEvDpT_, symObjAddr: 0x7134, symBinAddr: 0x3606C, symSize: 0x24 }
  - { offset: 0x87EDC, size: 0x8, addend: 0x0, symName: __ZNSt3__119__libcpp_deallocateB8de200100IPNS_16__hash_node_baseIPNS_11__hash_nodeINS_17__hash_value_typeIjNS_8functionIFbyPviEEEEES5_EEEEEEvPNS_15__type_identityIT_E4typeENS_15__element_countEm, symObjAddr: 0x72C4, symBinAddr: 0x361FC, symSize: 0x64 }
  - { offset: 0x87F54, size: 0x8, addend: 0x0, symName: __ZNSt3__124__libcpp_operator_deleteB8de200100IJPPNS_16__hash_node_baseIPNS_11__hash_nodeINS_17__hash_value_typeIjNS_8functionIFbyPviEEEEES5_EEEESt11align_val_tEEEvDpT_, symObjAddr: 0x7328, symBinAddr: 0x36260, symSize: 0x2C }
  - { offset: 0x87F9A, size: 0x8, addend: 0x0, symName: __ZNSt3__124__libcpp_operator_deleteB8de200100IJPPNS_16__hash_node_baseIPNS_11__hash_nodeINS_17__hash_value_typeIjNS_8functionIFbyPviEEEEES5_EEEEEEEvDpT_, symObjAddr: 0x7354, symBinAddr: 0x3628C, symSize: 0x24 }
  - { offset: 0x88060, size: 0x8, addend: 0x0, symName: __ZNSt3__112__destroy_atB8de200100INS_11__hash_nodeINS_17__hash_value_typeIjNS_8functionIFvyEEEEEPvEELi0EEEvPT_, symObjAddr: 0x7894, symBinAddr: 0x367CC, symSize: 0x38 }
  - { offset: 0x880CA, size: 0x8, addend: 0x0, symName: __ZNSt3__112__destroy_atB8de200100INS_4pairIKjNS_8functionIFvyEEEEELi0EEEvPT_, symObjAddr: 0x7914, symBinAddr: 0x3684C, symSize: 0x38 }
  - { offset: 0x88101, size: 0x8, addend: 0x0, symName: __ZNSt3__17launderB8de200100INS_4pairIKjNS_8functionIFvyEEEEEEEPT_S8_, symObjAddr: 0x7AD4, symBinAddr: 0x36A0C, symSize: 0x24 }
  - { offset: 0x88136, size: 0x8, addend: 0x0, symName: __ZNSt3__19__launderB8de200100INS_4pairIKjNS_8functionIFvyEEEEEEEPT_S8_, symObjAddr: 0x7AF8, symBinAddr: 0x36A30, symSize: 0x14 }
  - { offset: 0x8816B, size: 0x8, addend: 0x0, symName: __ZNSt3__119__libcpp_deallocateB8de200100INS_11__hash_nodeINS_17__hash_value_typeIjNS_8functionIFvyEEEEEPvEEEEvPNS_15__type_identityIT_E4typeENS_15__element_countEm, symObjAddr: 0x7B80, symBinAddr: 0x36AB8, symSize: 0x68 }
  - { offset: 0x881E3, size: 0x8, addend: 0x0, symName: __ZNSt3__124__libcpp_operator_deleteB8de200100IJPNS_11__hash_nodeINS_17__hash_value_typeIjNS_8functionIFvyEEEEEPvEESt11align_val_tEEEvDpT_, symObjAddr: 0x7BE8, symBinAddr: 0x36B20, symSize: 0x2C }
  - { offset: 0x88229, size: 0x8, addend: 0x0, symName: __ZNSt3__124__libcpp_operator_deleteB8de200100IJPNS_11__hash_nodeINS_17__hash_value_typeIjNS_8functionIFvyEEEEEPvEEEEEvDpT_, symObjAddr: 0x7C14, symBinAddr: 0x36B4C, symSize: 0x24 }
  - { offset: 0x8825C, size: 0x8, addend: 0x0, symName: __ZNSt3__119__libcpp_deallocateB8de200100IPNS_16__hash_node_baseIPNS_11__hash_nodeINS_17__hash_value_typeIjNS_8functionIFvyEEEEEPvEEEEEEvPNS_15__type_identityIT_E4typeENS_15__element_countEm, symObjAddr: 0x7DA4, symBinAddr: 0x36CDC, symSize: 0x64 }
  - { offset: 0x882D4, size: 0x8, addend: 0x0, symName: __ZNSt3__124__libcpp_operator_deleteB8de200100IJPPNS_16__hash_node_baseIPNS_11__hash_nodeINS_17__hash_value_typeIjNS_8functionIFvyEEEEEPvEEEESt11align_val_tEEEvDpT_, symObjAddr: 0x7E08, symBinAddr: 0x36D40, symSize: 0x2C }
  - { offset: 0x8831A, size: 0x8, addend: 0x0, symName: __ZNSt3__124__libcpp_operator_deleteB8de200100IJPPNS_16__hash_node_baseIPNS_11__hash_nodeINS_17__hash_value_typeIjNS_8functionIFvyEEEEEPvEEEEEEEvDpT_, symObjAddr: 0x7E34, symBinAddr: 0x36D6C, symSize: 0x24 }
  - { offset: 0x8834D, size: 0x8, addend: 0x0, symName: __ZNSt3__119static_pointer_castB8de200100IN7Entropy6Vulkan10SwapChains10ISwapChainE8IServiceEENS_10shared_ptrIT_EERKNS6_IT0_EE, symObjAddr: 0x7FA4, symBinAddr: 0x36EDC, symSize: 0x44 }
  - { offset: 0x8838D, size: 0x8, addend: 0x0, symName: __ZNSt3__115allocate_sharedB8de200100IN7Entropy6Vulkan8Surfaces7SurfaceENS_9allocatorIS4_EEJPvELi0EEENS_10shared_ptrIT_EERKT0_DpOT1_, symObjAddr: 0x80D8, symBinAddr: 0x37010, symSize: 0xDC }
  - { offset: 0x88709, size: 0x8, addend: 0x0, symName: __ZNSt3__117__libcpp_allocateB8de200100INS_20__shared_ptr_emplaceIN7Entropy6Vulkan8Surfaces7SurfaceENS_9allocatorIS5_EEEEEEPT_NS_15__element_countEm, symObjAddr: 0x8518, symBinAddr: 0x3741C, symSize: 0x70 }
  - { offset: 0x88777, size: 0x8, addend: 0x0, symName: __ZNSt3__121__libcpp_operator_newB8de200100INS_20__shared_ptr_emplaceIN7Entropy6Vulkan8Surfaces7SurfaceENS_9allocatorIS5_EEEEJmSt11align_val_tEEEPvDpT0_, symObjAddr: 0x85A0, symBinAddr: 0x374A4, symSize: 0x2C }
  - { offset: 0x887CA, size: 0x8, addend: 0x0, symName: __ZNSt3__121__libcpp_operator_newB8de200100INS_20__shared_ptr_emplaceIN7Entropy6Vulkan8Surfaces7SurfaceENS_9allocatorIS5_EEEEEEPvm, symObjAddr: 0x85CC, symBinAddr: 0x374D0, symSize: 0x24 }
  - { offset: 0x888F9, size: 0x8, addend: 0x0, symName: __ZNSt3__119__libcpp_deallocateB8de200100INS_20__shared_ptr_emplaceIN7Entropy6Vulkan8Surfaces7SurfaceENS_9allocatorIS5_EEEEEEvPNS_15__type_identityIT_E4typeENS_15__element_countEm, symObjAddr: 0x8AC0, symBinAddr: 0x37948, symSize: 0x68 }
  - { offset: 0x88971, size: 0x8, addend: 0x0, symName: __ZNSt3__124__libcpp_operator_deleteB8de200100IJPNS_20__shared_ptr_emplaceIN7Entropy6Vulkan8Surfaces7SurfaceENS_9allocatorIS5_EEEESt11align_val_tEEEvDpT_, symObjAddr: 0x8B28, symBinAddr: 0x379B0, symSize: 0x2C }
  - { offset: 0x889B7, size: 0x8, addend: 0x0, symName: __ZNSt3__124__libcpp_operator_deleteB8de200100IJPNS_20__shared_ptr_emplaceIN7Entropy6Vulkan8Surfaces7SurfaceENS_9allocatorIS5_EEEEEEEvDpT_, symObjAddr: 0x8B54, symBinAddr: 0x379DC, symSize: 0x24 }
  - { offset: 0x889EA, size: 0x8, addend: 0x0, symName: __ZNSt3__119static_pointer_castB8de200100IN7Entropy7Cameras14ICameraManagerE8IServiceEENS_10shared_ptrIT_EERKNS5_IT0_EE, symObjAddr: 0x8CE0, symBinAddr: 0x37B68, symSize: 0x44 }
  - { offset: 0x88A2A, size: 0x8, addend: 0x0, symName: __ZNSt3__115allocate_sharedB8de200100IN7Entropy7Cameras18OrthographicCameraENS_9allocatorIS3_EEJELi0EEENS_10shared_ptrIT_EERKT0_DpOT1_, symObjAddr: 0x8E14, symBinAddr: 0x37C9C, symSize: 0xD4 }
  - { offset: 0x88D91, size: 0x8, addend: 0x0, symName: __ZNSt3__117__libcpp_allocateB8de200100INS_20__shared_ptr_emplaceIN7Entropy7Cameras18OrthographicCameraENS_9allocatorIS4_EEEEEEPT_NS_15__element_countEm, symObjAddr: 0x9210, symBinAddr: 0x38098, symSize: 0x70 }
  - { offset: 0x88DFF, size: 0x8, addend: 0x0, symName: __ZNSt3__121__libcpp_operator_newB8de200100INS_20__shared_ptr_emplaceIN7Entropy7Cameras18OrthographicCameraENS_9allocatorIS4_EEEEJmSt11align_val_tEEEPvDpT0_, symObjAddr: 0x92A0, symBinAddr: 0x38128, symSize: 0x2C }
  - { offset: 0x88E52, size: 0x8, addend: 0x0, symName: __ZNSt3__121__libcpp_operator_newB8de200100INS_20__shared_ptr_emplaceIN7Entropy7Cameras18OrthographicCameraENS_9allocatorIS4_EEEEEEPvm, symObjAddr: 0x92CC, symBinAddr: 0x38154, symSize: 0x24 }
  - { offset: 0x88F76, size: 0x8, addend: 0x0, symName: __ZNSt3__119__libcpp_deallocateB8de200100INS_20__shared_ptr_emplaceIN7Entropy7Cameras18OrthographicCameraENS_9allocatorIS4_EEEEEEvPNS_15__type_identityIT_E4typeENS_15__element_countEm, symObjAddr: 0x9794, symBinAddr: 0x385B0, symSize: 0x68 }
  - { offset: 0x88FEE, size: 0x8, addend: 0x0, symName: __ZNSt3__124__libcpp_operator_deleteB8de200100IJPNS_20__shared_ptr_emplaceIN7Entropy7Cameras18OrthographicCameraENS_9allocatorIS4_EEEESt11align_val_tEEEvDpT_, symObjAddr: 0x97FC, symBinAddr: 0x38618, symSize: 0x2C }
  - { offset: 0x89034, size: 0x8, addend: 0x0, symName: __ZNSt3__124__libcpp_operator_deleteB8de200100IJPNS_20__shared_ptr_emplaceIN7Entropy7Cameras18OrthographicCameraENS_9allocatorIS4_EEEEEEEvDpT_, symObjAddr: 0x9828, symBinAddr: 0x38644, symSize: 0x24 }
  - { offset: 0x89067, size: 0x8, addend: 0x0, symName: __ZNSt3__115allocate_sharedB8de200100IN7Entropy9Renderers14VulkanRendererENS_9allocatorIS3_EEJRjS6_ELi0EEENS_10shared_ptrIT_EERKT0_DpOT1_, symObjAddr: 0x9A40, symBinAddr: 0x3885C, symSize: 0xE4 }
  - { offset: 0x893F8, size: 0x8, addend: 0x0, symName: __ZNSt3__117__libcpp_allocateB8de200100INS_20__shared_ptr_emplaceIN7Entropy9Renderers14VulkanRendererENS_9allocatorIS4_EEEEEEPT_NS_15__element_countEm, symObjAddr: 0x9E5C, symBinAddr: 0x38C78, symSize: 0x70 }
  - { offset: 0x89466, size: 0x8, addend: 0x0, symName: __ZNSt3__121__libcpp_operator_newB8de200100INS_20__shared_ptr_emplaceIN7Entropy9Renderers14VulkanRendererENS_9allocatorIS4_EEEEJmSt11align_val_tEEEPvDpT0_, symObjAddr: 0x9EEC, symBinAddr: 0x38D08, symSize: 0x2C }
  - { offset: 0x894B9, size: 0x8, addend: 0x0, symName: __ZNSt3__121__libcpp_operator_newB8de200100INS_20__shared_ptr_emplaceIN7Entropy9Renderers14VulkanRendererENS_9allocatorIS4_EEEEEEPvm, symObjAddr: 0x9F18, symBinAddr: 0x38D34, symSize: 0x24 }
  - { offset: 0x895BF, size: 0x8, addend: 0x0, symName: __ZNSt3__112__to_addressB8de200100INS_6vectorIhNS_9allocatorIhEEEEEEPT_S6_, symObjAddr: 0xB03C, symBinAddr: 0x39DE0, symSize: 0x14 }
  - { offset: 0x895F4, size: 0x8, addend: 0x0, symName: __ZNSt3__119__libcpp_deallocateB8de200100INS_6vectorIhNS_9allocatorIhEEEEEEvPNS_15__type_identityIT_E4typeENS_15__element_countEm, symObjAddr: 0xB0AC, symBinAddr: 0x39E50, symSize: 0x68 }
  - { offset: 0x8966C, size: 0x8, addend: 0x0, symName: __ZNSt3__124__libcpp_operator_deleteB8de200100IJPNS_6vectorIhNS_9allocatorIhEEEESt11align_val_tEEEvDpT_, symObjAddr: 0xB114, symBinAddr: 0x39EB8, symSize: 0x2C }
  - { offset: 0x896B2, size: 0x8, addend: 0x0, symName: __ZNSt3__124__libcpp_operator_deleteB8de200100IJPNS_6vectorIhNS_9allocatorIhEEEEEEEvDpT_, symObjAddr: 0xB140, symBinAddr: 0x39EE4, symSize: 0x24 }
  - { offset: 0x896E5, size: 0x8, addend: 0x0, symName: __ZNSt3__112__to_addressB8de200100INS_10shared_ptrIN7Entropy6Vulkan14CommandBuffers13CommandBufferEEEEEPT_S8_, symObjAddr: 0xB414, symBinAddr: 0x3A1B8, symSize: 0x14 }
  - { offset: 0x8971A, size: 0x8, addend: 0x0, symName: __ZNSt3__119__libcpp_deallocateB8de200100INS_10shared_ptrIN7Entropy6Vulkan14CommandBuffers13CommandBufferEEEEEvPNS_15__type_identityIT_E4typeENS_15__element_countEm, symObjAddr: 0xB4FC, symBinAddr: 0x3A2A0, symSize: 0x64 }
  - { offset: 0x89792, size: 0x8, addend: 0x0, symName: __ZNSt3__124__libcpp_operator_deleteB8de200100IJPNS_10shared_ptrIN7Entropy6Vulkan14CommandBuffers13CommandBufferEEESt11align_val_tEEEvDpT_, symObjAddr: 0xB560, symBinAddr: 0x3A304, symSize: 0x2C }
  - { offset: 0x897D8, size: 0x8, addend: 0x0, symName: __ZNSt3__124__libcpp_operator_deleteB8de200100IJPNS_10shared_ptrIN7Entropy6Vulkan14CommandBuffers13CommandBufferEEEEEEvDpT_, symObjAddr: 0xB58C, symBinAddr: 0x3A330, symSize: 0x24 }
  - { offset: 0x8983E, size: 0x8, addend: 0x0, symName: __ZNSt3__119__libcpp_deallocateB8de200100INS_20__shared_ptr_emplaceIN7Entropy9Renderers14VulkanRendererENS_9allocatorIS4_EEEEEEvPNS_15__type_identityIT_E4typeENS_15__element_countEm, symObjAddr: 0xC43C, symBinAddr: 0x3AB7C, symSize: 0x68 }
  - { offset: 0x898B6, size: 0x8, addend: 0x0, symName: __ZNSt3__124__libcpp_operator_deleteB8de200100IJPNS_20__shared_ptr_emplaceIN7Entropy9Renderers14VulkanRendererENS_9allocatorIS4_EEEESt11align_val_tEEEvDpT_, symObjAddr: 0xC4A4, symBinAddr: 0x3ABE4, symSize: 0x2C }
  - { offset: 0x898FC, size: 0x8, addend: 0x0, symName: __ZNSt3__124__libcpp_operator_deleteB8de200100IJPNS_20__shared_ptr_emplaceIN7Entropy9Renderers14VulkanRendererENS_9allocatorIS4_EEEEEEEvDpT_, symObjAddr: 0xC4D0, symBinAddr: 0x3AC10, symSize: 0x24 }
  - { offset: 0x8992F, size: 0x8, addend: 0x0, symName: __ZNSt3__1neB8de200100ERKNS_14__map_iteratorINS_15__tree_iteratorINS_12__value_typeINS_10type_indexENS_10shared_ptrI8IServiceEEEEPNS_11__tree_nodeIS7_PvEElEEEESF_, symObjAddr: 0xC65C, symBinAddr: 0x3AD9C, symSize: 0x2C }
  - { offset: 0x8996C, size: 0x8, addend: 0x0, symName: __ZNSt3__1neB8de200100ERKNS_15__tree_iteratorINS_12__value_typeINS_10type_indexENS_10shared_ptrI8IServiceEEEEPNS_11__tree_nodeIS6_PvEElEESD_, symObjAddr: 0xC814, symBinAddr: 0x3AF54, symSize: 0x30 }
  - { offset: 0x899A9, size: 0x8, addend: 0x0, symName: __ZNSt3__1eqB8de200100ERKNS_15__tree_iteratorINS_12__value_typeINS_10type_indexENS_10shared_ptrI8IServiceEEEEPNS_11__tree_nodeIS6_PvEElEESD_, symObjAddr: 0xC844, symBinAddr: 0x3AF84, symSize: 0x2C }
  - { offset: 0x89A20, size: 0x8, addend: 0x0, symName: __ZNSt3__116forward_as_tupleB8de200100IJRKNS_10type_indexEEEENS_5tupleIJDpOT_EEES7_, symObjAddr: 0xCC54, symBinAddr: 0x3B394, symSize: 0x2C }
  - { offset: 0x89A59, size: 0x8, addend: 0x0, symName: __ZNSt3__116forward_as_tupleB8de200100IJEEENS_5tupleIJDpOT_EEES4_, symObjAddr: 0xCC80, symBinAddr: 0x3B3C0, symSize: 0x4 }
  - { offset: 0x89A9B, size: 0x8, addend: 0x0, symName: __ZNSt3__117__libcpp_allocateB8de200100INS_11__tree_nodeINS_12__value_typeINS_10type_indexENS_10shared_ptrI8IServiceEEEEPvEEEEPT_NS_15__element_countEm, symObjAddr: 0xD2E8, symBinAddr: 0x3BA28, symSize: 0x70 }
  - { offset: 0x89B09, size: 0x8, addend: 0x0, symName: __ZNSt3__121__libcpp_operator_newB8de200100INS_11__tree_nodeINS_12__value_typeINS_10type_indexENS_10shared_ptrI8IServiceEEEEPvEEJmSt11align_val_tEEES8_DpT0_, symObjAddr: 0xD378, symBinAddr: 0x3BAB8, symSize: 0x2C }
  - { offset: 0x89B5C, size: 0x8, addend: 0x0, symName: __ZNSt3__121__libcpp_operator_newB8de200100INS_11__tree_nodeINS_12__value_typeINS_10type_indexENS_10shared_ptrI8IServiceEEEEPvEEEES8_m, symObjAddr: 0xD3A4, symBinAddr: 0x3BAE4, symSize: 0x24 }
  - { offset: 0x89B9D, size: 0x8, addend: 0x0, symName: __ZNSt3__13getB8de200100ILm0EJRKNS_10type_indexEEEERNS_13tuple_elementIXT_ENS_5tupleIJDpT0_EEEE4typeERS8_, symObjAddr: 0xD5CC, symBinAddr: 0x3BD0C, symSize: 0x24 }
  - { offset: 0x89BE1, size: 0x8, addend: 0x0, symName: __ZNSt3__127__tree_balance_after_insertB8de200100IPNS_16__tree_node_baseIPvEEEEvT_S5_, symObjAddr: 0xD664, symBinAddr: 0x3BDA4, symSize: 0x334 }
  - { offset: 0x89C61, size: 0x8, addend: 0x0, symName: __ZNSt3__120__tree_is_left_childB8de200100IPNS_16__tree_node_baseIPvEEEEbT_, symObjAddr: 0xD9C8, symBinAddr: 0x3C108, symSize: 0x28 }
  - { offset: 0x89C96, size: 0x8, addend: 0x0, symName: __ZNSt3__118__tree_left_rotateB8de200100IPNS_16__tree_node_baseIPvEEEEvT_, symObjAddr: 0xD9F0, symBinAddr: 0x3C130, symSize: 0xFC }
  - { offset: 0x89CD5, size: 0x8, addend: 0x0, symName: __ZNSt3__119__tree_right_rotateB8de200100IPNS_16__tree_node_baseIPvEEEEvT_, symObjAddr: 0xDAEC, symBinAddr: 0x3C22C, symSize: 0xF0 }
  - { offset: 0x89D16, size: 0x8, addend: 0x0, symName: __ZNSt3__112__destroy_atB8de200100INS_4pairIKNS_10type_indexENS_10shared_ptrI8IServiceEEEELi0EEEvPT_, symObjAddr: 0xDD70, symBinAddr: 0x3C4B0, symSize: 0x38 }
  - { offset: 0x89D4D, size: 0x8, addend: 0x0, symName: __ZNSt3__119__libcpp_deallocateB8de200100INS_11__tree_nodeINS_12__value_typeINS_10type_indexENS_10shared_ptrI8IServiceEEEEPvEEEEvPNS_15__type_identityIT_E4typeENS_15__element_countEm, symObjAddr: 0xDEB0, symBinAddr: 0x3C5F0, symSize: 0x68 }
  - { offset: 0x89DC5, size: 0x8, addend: 0x0, symName: __ZNSt3__124__libcpp_operator_deleteB8de200100IJPNS_11__tree_nodeINS_12__value_typeINS_10type_indexENS_10shared_ptrI8IServiceEEEEPvEESt11align_val_tEEEvDpT_, symObjAddr: 0xDF18, symBinAddr: 0x3C658, symSize: 0x2C }
  - { offset: 0x89E0B, size: 0x8, addend: 0x0, symName: __ZNSt3__124__libcpp_operator_deleteB8de200100IJPNS_11__tree_nodeINS_12__value_typeINS_10type_indexENS_10shared_ptrI8IServiceEEEEPvEEEEEvDpT_, symObjAddr: 0xDF44, symBinAddr: 0x3C684, symSize: 0x24 }
  - { offset: 0x89E95, size: 0x8, addend: 0x0, symName: __ZNSt3__17launderB8de200100INS_4pairIKNS_10type_indexENS_10shared_ptrI8IServiceEEEEEEPT_S9_, symObjAddr: 0xE0C4, symBinAddr: 0x3C804, symSize: 0x24 }
  - { offset: 0x89ECA, size: 0x8, addend: 0x0, symName: __ZNSt3__19__launderB8de200100INS_4pairIKNS_10type_indexENS_10shared_ptrI8IServiceEEEEEEPT_S9_, symObjAddr: 0xE0E8, symBinAddr: 0x3C828, symSize: 0x14 }
  - { offset: 0x89EFF, size: 0x8, addend: 0x0, symName: __ZNSt3__14swapB8de200100IP8IServiceEENS_9enable_ifIXaasr21is_move_constructibleIT_EE5valuesr18is_move_assignableIS4_EE5valueEvE4typeERS4_S7_, symObjAddr: 0xE1DC, symBinAddr: 0x3C91C, symSize: 0x3C }
  - { offset: 0x89F50, size: 0x8, addend: 0x0, symName: __ZNSt3__115allocate_sharedB8de200100IN7Entropy6Assets12AssetManagerENS_9allocatorIS3_EEJELi0EEENS_10shared_ptrIT_EERKT0_DpOT1_, symObjAddr: 0xE34C, symBinAddr: 0x3C998, symSize: 0xD4 }
  - { offset: 0x8A2B7, size: 0x8, addend: 0x0, symName: __ZNSt3__117__libcpp_allocateB8de200100INS_20__shared_ptr_emplaceIN7Entropy6Assets12AssetManagerENS_9allocatorIS4_EEEEEEPT_NS_15__element_countEm, symObjAddr: 0xE748, symBinAddr: 0x3CD94, symSize: 0x70 }
  - { offset: 0x8A325, size: 0x8, addend: 0x0, symName: __ZNSt3__121__libcpp_operator_newB8de200100INS_20__shared_ptr_emplaceIN7Entropy6Assets12AssetManagerENS_9allocatorIS4_EEEEJmSt11align_val_tEEEPvDpT0_, symObjAddr: 0xE7D8, symBinAddr: 0x3CE24, symSize: 0x2C }
  - { offset: 0x8A378, size: 0x8, addend: 0x0, symName: __ZNSt3__121__libcpp_operator_newB8de200100INS_20__shared_ptr_emplaceIN7Entropy6Assets12AssetManagerENS_9allocatorIS4_EEEEEEPvm, symObjAddr: 0xE804, symBinAddr: 0x3CE50, symSize: 0x24 }
  - { offset: 0x8A469, size: 0x8, addend: 0x0, symName: __ZNSt3__111make_uniqueB8de200100IN7Entropy6Vulkan8Textures7TextureEJiiELi0EEENS_10unique_ptrIT_NS_14default_deleteIS6_EEEEDpOT0_, symObjAddr: 0xED20, symBinAddr: 0x3D340, symSize: 0x7C }
  - { offset: 0x8A4C5, size: 0x8, addend: 0x0, symName: __ZNSt3__119static_pointer_castB8de200100IN7Entropy6Vulkan7Devices15IPhysicalDeviceE8IServiceEENS_10shared_ptrIT_EERKNS6_IT0_EE, symObjAddr: 0x10D10, symBinAddr: 0x3EF6C, symSize: 0x44 }
  - { offset: 0x8A505, size: 0x8, addend: 0x0, symName: __ZNSt3__111make_sharedB8de200100IN5quill3v106detail13ThreadContextEJRNS2_9QueueTypeERmS7_RNS2_15HugePagesPolicyEELi0EEENS_10shared_ptrIT_EEDpOT0_, symObjAddr: 0x11744, symBinAddr: 0x3F9A0, symSize: 0x58 }
  - { offset: 0x8A589, size: 0x8, addend: 0x0, symName: __ZNSt3__115allocate_sharedB8de200100IN5quill3v106detail13ThreadContextENS_9allocatorIS4_EEJRNS2_9QueueTypeERmS9_RNS2_15HugePagesPolicyEELi0EEENS_10shared_ptrIT_EERKT0_DpOT1_, symObjAddr: 0x118A8, symBinAddr: 0x3FB04, symSize: 0xF4 }
  - { offset: 0x8A943, size: 0x8, addend: 0x0, symName: __ZNSt3__117__libcpp_allocateB8de200100INS_20__shared_ptr_emplaceIN5quill3v106detail13ThreadContextENS_9allocatorIS5_EEEEEEPT_NS_15__element_countEm, symObjAddr: 0x11CE4, symBinAddr: 0x3FF40, symSize: 0x70 }
  - { offset: 0x8A9B1, size: 0x8, addend: 0x0, symName: __ZNSt3__121__libcpp_operator_newB8de200100INS_20__shared_ptr_emplaceIN5quill3v106detail13ThreadContextENS_9allocatorIS5_EEEEJmSt11align_val_tEEEPvDpT0_, symObjAddr: 0x11D74, symBinAddr: 0x3FFD0, symSize: 0x2C }
  - { offset: 0x8AA04, size: 0x8, addend: 0x0, symName: __ZNSt3__121__libcpp_operator_newB8de200100INS_20__shared_ptr_emplaceIN5quill3v106detail13ThreadContextENS_9allocatorIS5_EEEEEEPvm, symObjAddr: 0x11DA0, symBinAddr: 0x3FFFC, symSize: 0x24 }
  - { offset: 0x8AB1E, size: 0x8, addend: 0x0, symName: __ZNSt3__1plB8de200100IcNS_11char_traitsIcEENS_9allocatorIcEEEENS_12basic_stringIT_T0_T1_EEOS9_PKS6_, symObjAddr: 0x12F68, symBinAddr: 0x411C4, symSize: 0x40 }
  - { offset: 0x8AB76, size: 0x8, addend: 0x0, symName: __ZNSt3__1plB8de200100IcNS_11char_traitsIcEENS_9allocatorIcEEEENS_12basic_stringIT_T0_T1_EEOS9_SA_, symObjAddr: 0x12FA8, symBinAddr: 0x41204, symSize: 0x40 }
  - { offset: 0x8ABCE, size: 0x8, addend: 0x0, symName: __ZNSt3__112__to_addressB8de200100IKcEEPT_S3_, symObjAddr: 0x133EC, symBinAddr: 0x41648, symSize: 0x14 }
  - { offset: 0x8AC36, size: 0x8, addend: 0x0, symName: __ZNSt3__118__constexpr_strlenB8de200100IcEEmPKT_, symObjAddr: 0x135C8, symBinAddr: 0x41824, symSize: 0x24 }
  - { offset: 0x8AC6B, size: 0x8, addend: 0x0, symName: __ZNSt3__118__cxx_atomic_storeB8de200100ImEEvPNS_22__cxx_atomic_base_implIT_EES2_NS_12memory_orderE, symObjAddr: 0x13704, symBinAddr: 0x41960, symSize: 0x7C }
  - { offset: 0x8ACEB, size: 0x8, addend: 0x0, symName: __ZNSt3__119__libcpp_deallocateB8de200100INS_20__shared_ptr_emplaceIN5quill3v106detail13ThreadContextENS_9allocatorIS5_EEEEEEvPNS_15__type_identityIT_E4typeENS_15__element_countEm, symObjAddr: 0x13D20, symBinAddr: 0x41F7C, symSize: 0x68 }
  - { offset: 0x8AD63, size: 0x8, addend: 0x0, symName: __ZNSt3__124__libcpp_operator_deleteB8de200100IJPNS_20__shared_ptr_emplaceIN5quill3v106detail13ThreadContextENS_9allocatorIS5_EEEESt11align_val_tEEEvDpT_, symObjAddr: 0x13D88, symBinAddr: 0x41FE4, symSize: 0x2C }
  - { offset: 0x8ADA9, size: 0x8, addend: 0x0, symName: __ZNSt3__124__libcpp_operator_deleteB8de200100IJPNS_20__shared_ptr_emplaceIN5quill3v106detail13ThreadContextENS_9allocatorIS5_EEEEEEEvDpT_, symObjAddr: 0x13DB4, symBinAddr: 0x42010, symSize: 0x24 }
  - { offset: 0x8ADDC, size: 0x8, addend: 0x0, symName: __ZNSt3__112__to_addressB8de200100INS_10shared_ptrIN5quill3v106detail13ThreadContextEEEEEPT_S8_, symObjAddr: 0x1465C, symBinAddr: 0x428B8, symSize: 0x14 }
  - { offset: 0x8AE11, size: 0x8, addend: 0x0, symName: __ZNSt3__119__libcpp_deallocateB8de200100INS_10shared_ptrIN5quill3v106detail13ThreadContextEEEEEvPNS_15__type_identityIT_E4typeENS_15__element_countEm, symObjAddr: 0x146CC, symBinAddr: 0x42928, symSize: 0x64 }
  - { offset: 0x8AE89, size: 0x8, addend: 0x0, symName: __ZNSt3__124__libcpp_operator_deleteB8de200100IJPNS_10shared_ptrIN5quill3v106detail13ThreadContextEEESt11align_val_tEEEvDpT_, symObjAddr: 0x14730, symBinAddr: 0x4298C, symSize: 0x2C }
  - { offset: 0x8AECF, size: 0x8, addend: 0x0, symName: __ZNSt3__124__libcpp_operator_deleteB8de200100IJPNS_10shared_ptrIN5quill3v106detail13ThreadContextEEEEEEvDpT_, symObjAddr: 0x1475C, symBinAddr: 0x429B8, symSize: 0x24 }
  - { offset: 0x8AF02, size: 0x8, addend: 0x0, symName: __ZNSt3__121__cxx_atomic_exchangeB8de200100IN5quill3v106detail8Spinlock5StateEEET_PNS_22__cxx_atomic_base_implIS6_EES6_NS_12memory_orderE, symObjAddr: 0x14950, symBinAddr: 0x42BAC, symSize: 0x254 }
  - { offset: 0x8AF56, size: 0x8, addend: 0x0, symName: __ZNSt3__119__allocate_at_leastB8de200100INS_9allocatorINS_10shared_ptrIN5quill3v106detail13ThreadContextEEEEEEENS_19__allocation_resultINS_16allocator_traitsIT_E7pointerEEERSB_m, symObjAddr: 0x154F0, symBinAddr: 0x43524, symSize: 0x40 }
  - { offset: 0x8AF99, size: 0x8, addend: 0x0, symName: __ZNSt3__117__libcpp_allocateB8de200100INS_10shared_ptrIN5quill3v106detail13ThreadContextEEEEEPT_NS_15__element_countEm, symObjAddr: 0x15580, symBinAddr: 0x435B4, symSize: 0x6C }
  - { offset: 0x8B007, size: 0x8, addend: 0x0, symName: __ZNSt3__121__libcpp_operator_newB8de200100INS_10shared_ptrIN5quill3v106detail13ThreadContextEEEJmSt11align_val_tEEEPvDpT0_, symObjAddr: 0x155EC, symBinAddr: 0x43620, symSize: 0x2C }
  - { offset: 0x8B05A, size: 0x8, addend: 0x0, symName: __ZNSt3__121__libcpp_operator_newB8de200100INS_10shared_ptrIN5quill3v106detail13ThreadContextEEEEEPvm, symObjAddr: 0x15618, symBinAddr: 0x4364C, symSize: 0x24 }
  - { offset: 0x8B090, size: 0x8, addend: 0x0, symName: __ZNSt3__134__uninitialized_allocator_relocateB8de200100INS_9allocatorINS_10shared_ptrIN5quill3v106detail13ThreadContextEEEEEPS7_EEvRT_T0_SC_SC_, symObjAddr: 0x1563C, symBinAddr: 0x43670, symSize: 0x60 }
  - { offset: 0x8B0F9, size: 0x8, addend: 0x0, symName: __ZNSt3__14swapB8de200100IPNS_10shared_ptrIN5quill3v106detail13ThreadContextEEEEENS_9enable_ifIXaasr21is_move_constructibleIT_EE5valuesr18is_move_assignableIS9_EE5valueEvE4typeERS9_SC_, symObjAddr: 0x1569C, symBinAddr: 0x436D0, symSize: 0x3C }
  - { offset: 0x8B14A, size: 0x8, addend: 0x0, symName: __ZNSt3__118__cxx_atomic_storeB8de200100IN5quill3v106detail8Spinlock5StateEEEvPNS_22__cxx_atomic_base_implIT_EES7_NS_12memory_orderE, symObjAddr: 0x15890, symBinAddr: 0x438C4, symSize: 0x7C }
  - { offset: 0x8B197, size: 0x8, addend: 0x0, symName: __ZNSt3__118__cxx_atomic_storeB8de200100IbEEvPNS_22__cxx_atomic_base_implIT_EES2_NS_12memory_orderE, symObjAddr: 0x1590C, symBinAddr: 0x43940, symSize: 0x80 }
  - { offset: 0x8B1E4, size: 0x8, addend: 0x0, symName: __ZNSt3__122__cxx_atomic_fetch_addB8de200100IhEET_PNS_22__cxx_atomic_base_implIS1_EES1_NS_12memory_orderE, symObjAddr: 0x15AC4, symBinAddr: 0x43AF8, symSize: 0x268 }
  - { offset: 0x8B238, size: 0x8, addend: 0x0, symName: __ZNSt3__1plB8de200100IcNS_11char_traitsIcEENS_9allocatorIcEEEENS_12basic_stringIT_T0_T1_EEPKS6_OS9_, symObjAddr: 0x1649C, symBinAddr: 0x444D0, symSize: 0x44 }
  - { offset: 0x8B290, size: 0x8, addend: 0x0, symName: __ZNSt3__118__cxx_atomic_storeB8de200100IPN5quill3v106detail18UnboundedSPSCQueue4NodeEEEvPNS_22__cxx_atomic_base_implIT_EES8_NS_12memory_orderE, symObjAddr: 0x1655C, symBinAddr: 0x44590, symSize: 0x7C }
  - { offset: 0x8B2DD, size: 0x8, addend: 0x0, symName: __ZNSt3__122__cxx_atomic_fetch_addB8de200100ImEET_PNS_22__cxx_atomic_base_implIS1_EES1_NS_12memory_orderE, symObjAddr: 0x1660C, symBinAddr: 0x44640, symSize: 0x254 }
  - { offset: 0x8B331, size: 0x8, addend: 0x0, symName: __ZNSt3__112__to_addressB8de200100IN8fmtquill3v1116basic_format_argINS2_7contextEEEEEPT_S7_, symObjAddr: 0x16DAC, symBinAddr: 0x44DE0, symSize: 0x14 }
  - { offset: 0x8B366, size: 0x8, addend: 0x0, symName: __ZNSt3__119__allocate_at_leastB8de200100INS_9allocatorIN8fmtquill3v1116basic_format_argINS3_7contextEEEEEEENS_19__allocation_resultINS_16allocator_traitsIT_E7pointerEEERSA_m, symObjAddr: 0x173BC, symBinAddr: 0x453F0, symSize: 0x40 }
  - { offset: 0x8B3A9, size: 0x8, addend: 0x0, symName: __ZNSt3__117__libcpp_allocateB8de200100IN8fmtquill3v1116basic_format_argINS2_7contextEEEEEPT_NS_15__element_countEm, symObjAddr: 0x1744C, symBinAddr: 0x45480, symSize: 0x6C }
  - { offset: 0x8B417, size: 0x8, addend: 0x0, symName: __ZNSt3__121__libcpp_operator_newB8de200100IN8fmtquill3v1116basic_format_argINS2_7contextEEEJmSt11align_val_tEEEPvDpT0_, symObjAddr: 0x174B8, symBinAddr: 0x454EC, symSize: 0x2C }
  - { offset: 0x8B46A, size: 0x8, addend: 0x0, symName: __ZNSt3__121__libcpp_operator_newB8de200100IN8fmtquill3v1116basic_format_argINS2_7contextEEEEEPvm, symObjAddr: 0x174E4, symBinAddr: 0x45518, symSize: 0x24 }
  - { offset: 0x8B4A0, size: 0x8, addend: 0x0, symName: __ZNSt3__134__uninitialized_allocator_relocateB8de200100INS_9allocatorIN8fmtquill3v1116basic_format_argINS3_7contextEEEEEPS6_EEvRT_T0_SB_SB_, symObjAddr: 0x17518, symBinAddr: 0x4554C, symSize: 0x60 }
  - { offset: 0x8B509, size: 0x8, addend: 0x0, symName: __ZNSt3__14swapB8de200100IPN8fmtquill3v1116basic_format_argINS2_7contextEEEEENS_9enable_ifIXaasr21is_move_constructibleIT_EE5valuesr18is_move_assignableIS8_EE5valueEvE4typeERS8_SB_, symObjAddr: 0x17578, symBinAddr: 0x455AC, symSize: 0x3C }
  - { offset: 0x8B55A, size: 0x8, addend: 0x0, symName: __ZNSt3__119__libcpp_deallocateB8de200100IN8fmtquill3v1116basic_format_argINS2_7contextEEEEEvPNS_15__type_identityIT_E4typeENS_15__element_countEm, symObjAddr: 0x177E0, symBinAddr: 0x45814, symSize: 0x64 }
  - { offset: 0x8B5D2, size: 0x8, addend: 0x0, symName: __ZNSt3__124__libcpp_operator_deleteB8de200100IJPN8fmtquill3v1116basic_format_argINS2_7contextEEESt11align_val_tEEEvDpT_, symObjAddr: 0x17844, symBinAddr: 0x45878, symSize: 0x2C }
  - { offset: 0x8B618, size: 0x8, addend: 0x0, symName: __ZNSt3__124__libcpp_operator_deleteB8de200100IJPN8fmtquill3v1116basic_format_argINS2_7contextEEEEEEvDpT_, symObjAddr: 0x17870, symBinAddr: 0x458A4, symSize: 0x24 }
  - { offset: 0x8B64B, size: 0x8, addend: 0x0, symName: __ZNSt3__122__cxx_atomic_fetch_addB8de200100IjEET_PNS_22__cxx_atomic_base_implIS1_EES1_NS_12memory_orderE, symObjAddr: 0x17C08, symBinAddr: 0x45C3C, symSize: 0x254 }
  - { offset: 0x8B69F, size: 0x8, addend: 0x0, symName: __ZNSt3__118__cxx_atomic_storeB8de200100IjEEvPNS_22__cxx_atomic_base_implIT_EES2_NS_12memory_orderE, symObjAddr: 0x17E5C, symBinAddr: 0x45E90, symSize: 0x7C }
  - { offset: 0x8B6F2, size: 0x8, addend: 0x0, symName: __ZNSt3__111this_thread5yieldB8de200100Ev, symObjAddr: 0x18324, symBinAddr: 0x46358, symSize: 0x1C }
  - { offset: 0x8B70D, size: 0x8, addend: 0x0, symName: __ZNSt3__121__libcpp_thread_yieldB8de200100Ev, symObjAddr: 0x18858, symBinAddr: 0x4688C, symSize: 0x14 }
  - { offset: 0x8B726, size: 0x8, addend: 0x0, symName: __ZNSt3__116forward_as_tupleB8de200100IJmEEENS_5tupleIJDpOT_EEES4_, symObjAddr: 0x19134, symBinAddr: 0x47168, symSize: 0x2C }
  - { offset: 0x8B75F, size: 0x8, addend: 0x0, symName: __ZNSt3__116__constrain_hashB8de200100Emm, symObjAddr: 0x1923C, symBinAddr: 0x47270, symSize: 0x90 }
  - { offset: 0x8B799, size: 0x8, addend: 0x0, symName: __ZNSt3__116__is_hash_power2B8de200100Em, symObjAddr: 0x1957C, symBinAddr: 0x475B0, symSize: 0x4C }
  - { offset: 0x8B7CA, size: 0x8, addend: 0x0, symName: __ZNSt3__16__math4ceilB8de200100Ef, symObjAddr: 0x195C8, symBinAddr: 0x475FC, symSize: 0x18 }
  - { offset: 0x8B86F, size: 0x8, addend: 0x0, symName: __ZNSt3__112__to_addressB8de200100IPNS_16__hash_node_baseIPNS_11__hash_nodeINS_17__hash_value_typeImNS_8functionIFNS_10shared_ptrIN7Entropy6Assets6IAssetEEERKNS_12basic_stringIcNS_11char_traitsIcEENS_9allocatorIcEEEEEEEEEPvEEEEEEPT_SR_, symObjAddr: 0x1975C, symBinAddr: 0x47790, symSize: 0x14 }
  - { offset: 0x8B8A4, size: 0x8, addend: 0x0, symName: __ZNSt3__17launderB8de200100IKNS_4pairIKmNS_8functionIFNS_10shared_ptrIN7Entropy6Assets6IAssetEEERKNS_12basic_stringIcNS_11char_traitsIcEENS_9allocatorIcEEEEEEEEEEEPT_SM_, symObjAddr: 0x197C4, symBinAddr: 0x477F8, symSize: 0x24 }
  - { offset: 0x8B8D9, size: 0x8, addend: 0x0, symName: __ZNSt3__19__launderB8de200100IKNS_4pairIKmNS_8functionIFNS_10shared_ptrIN7Entropy6Assets6IAssetEEERKNS_12basic_stringIcNS_11char_traitsIcEENS_9allocatorIcEEEEEEEEEEEPT_SM_, symObjAddr: 0x197E8, symBinAddr: 0x4781C, symSize: 0x14 }
  - { offset: 0x8B95F, size: 0x8, addend: 0x0, symName: __ZNSt3__114__construct_atB8de200100INS_11__hash_nodeINS_17__hash_value_typeImNS_8functionIFNS_10shared_ptrIN7Entropy6Assets6IAssetEEERKNS_12basic_stringIcNS_11char_traitsIcEENS_9allocatorIcEEEEEEEEEPvEEJDnRmEPSL_EEPT_SP_DpOT0_, symObjAddr: 0x198CC, symBinAddr: 0x47900, symSize: 0x54 }
  - { offset: 0x8B9C5, size: 0x8, addend: 0x0, symName: __ZNSt3__117__libcpp_allocateB8de200100INS_11__hash_nodeINS_17__hash_value_typeImNS_8functionIFNS_10shared_ptrIN7Entropy6Assets6IAssetEEERKNS_12basic_stringIcNS_11char_traitsIcEENS_9allocatorIcEEEEEEEEEPvEEEEPT_NS_15__element_countEm, symObjAddr: 0x19A2C, symBinAddr: 0x47A60, symSize: 0x70 }
  - { offset: 0x8BA33, size: 0x8, addend: 0x0, symName: __ZNSt3__121__libcpp_operator_newB8de200100INS_11__hash_nodeINS_17__hash_value_typeImNS_8functionIFNS_10shared_ptrIN7Entropy6Assets6IAssetEEERKNS_12basic_stringIcNS_11char_traitsIcEENS_9allocatorIcEEEEEEEEEPvEEJmSt11align_val_tEEESK_DpT0_, symObjAddr: 0x19ABC, symBinAddr: 0x47AF0, symSize: 0x2C }
  - { offset: 0x8BA86, size: 0x8, addend: 0x0, symName: __ZNSt3__121__libcpp_operator_newB8de200100INS_11__hash_nodeINS_17__hash_value_typeImNS_8functionIFNS_10shared_ptrIN7Entropy6Assets6IAssetEEERKNS_12basic_stringIcNS_11char_traitsIcEENS_9allocatorIcEEEEEEEEEPvEEEESK_m, symObjAddr: 0x19AE8, symBinAddr: 0x47B1C, symSize: 0x24 }
  - { offset: 0x8BABB, size: 0x8, addend: 0x0, symName: __ZNSt3__13getB8de200100ILm0EJOmEEERNS_13tuple_elementIXT_ENS_5tupleIJDpT0_EEEE4typeERS6_, symObjAddr: 0x19DAC, symBinAddr: 0x47DE0, symSize: 0x24 }
  - { offset: 0x8BAFE, size: 0x8, addend: 0x0, symName: __ZNSt3__116__next_hash_pow2B8de200100Em, symObjAddr: 0x1A274, symBinAddr: 0x482A8, symSize: 0x68 }
  - { offset: 0x8BB2A, size: 0x8, addend: 0x0, symName: __ZNSt3__119__libcpp_deallocateB8de200100IPNS_16__hash_node_baseIPNS_11__hash_nodeINS_17__hash_value_typeImNS_8functionIFNS_10shared_ptrIN7Entropy6Assets6IAssetEEERKNS_12basic_stringIcNS_11char_traitsIcEENS_9allocatorIcEEEEEEEEEPvEEEEEEvPNS_15__type_identityIT_E4typeENS_15__element_countEm, symObjAddr: 0x1A460, symBinAddr: 0x48494, symSize: 0x64 }
  - { offset: 0x8BBA2, size: 0x8, addend: 0x0, symName: __ZNSt3__124__libcpp_operator_deleteB8de200100IJPPNS_16__hash_node_baseIPNS_11__hash_nodeINS_17__hash_value_typeImNS_8functionIFNS_10shared_ptrIN7Entropy6Assets6IAssetEEERKNS_12basic_stringIcNS_11char_traitsIcEENS_9allocatorIcEEEEEEEEEPvEEEESt11align_val_tEEEvDpT_, symObjAddr: 0x1A4C4, symBinAddr: 0x484F8, symSize: 0x2C }
  - { offset: 0x8BBE8, size: 0x8, addend: 0x0, symName: __ZNSt3__124__libcpp_operator_deleteB8de200100IJPPNS_16__hash_node_baseIPNS_11__hash_nodeINS_17__hash_value_typeImNS_8functionIFNS_10shared_ptrIN7Entropy6Assets6IAssetEEERKNS_12basic_stringIcNS_11char_traitsIcEENS_9allocatorIcEEEEEEEEEPvEEEEEEEvDpT_, symObjAddr: 0x1A4F0, symBinAddr: 0x48524, symSize: 0x24 }
  - { offset: 0x8BC1B, size: 0x8, addend: 0x0, symName: __ZNSt3__117__libcpp_allocateB8de200100IPNS_16__hash_node_baseIPNS_11__hash_nodeINS_17__hash_value_typeImNS_8functionIFNS_10shared_ptrIN7Entropy6Assets6IAssetEEERKNS_12basic_stringIcNS_11char_traitsIcEENS_9allocatorIcEEEEEEEEEPvEEEEEEPT_NS_15__element_countEm, symObjAddr: 0x1A588, symBinAddr: 0x485BC, symSize: 0x6C }
  - { offset: 0x8BC89, size: 0x8, addend: 0x0, symName: __ZNSt3__121__libcpp_operator_newB8de200100IPNS_16__hash_node_baseIPNS_11__hash_nodeINS_17__hash_value_typeImNS_8functionIFNS_10shared_ptrIN7Entropy6Assets6IAssetEEERKNS_12basic_stringIcNS_11char_traitsIcEENS_9allocatorIcEEEEEEEEEPvEEEEJmSt11align_val_tEEESL_DpT0_, symObjAddr: 0x1A608, symBinAddr: 0x4863C, symSize: 0x2C }
  - { offset: 0x8BCDC, size: 0x8, addend: 0x0, symName: __ZNSt3__121__libcpp_operator_newB8de200100IPNS_16__hash_node_baseIPNS_11__hash_nodeINS_17__hash_value_typeImNS_8functionIFNS_10shared_ptrIN7Entropy6Assets6IAssetEEERKNS_12basic_stringIcNS_11char_traitsIcEENS_9allocatorIcEEEEEEEEEPvEEEEEESL_m, symObjAddr: 0x1A634, symBinAddr: 0x48668, symSize: 0x24 }
  - { offset: 0x8BD11, size: 0x8, addend: 0x0, symName: __ZNSt3__112__libcpp_clzB8de200100Em, symObjAddr: 0x1A658, symBinAddr: 0x4868C, symSize: 0x1C }
  - { offset: 0x8BD3D, size: 0x8, addend: 0x0, symName: __ZNSt3__112__destroy_atB8de200100INS_11__hash_nodeINS_17__hash_value_typeImNS_8functionIFNS_10shared_ptrIN7Entropy6Assets6IAssetEEERKNS_12basic_stringIcNS_11char_traitsIcEENS_9allocatorIcEEEEEEEEEPvEELi0EEEvPT_, symObjAddr: 0x1A7C0, symBinAddr: 0x487F4, symSize: 0x38 }
  - { offset: 0x8BD74, size: 0x8, addend: 0x0, symName: __ZNSt3__112__destroy_atB8de200100INS_4pairIKmNS_8functionIFNS_10shared_ptrIN7Entropy6Assets6IAssetEEERKNS_12basic_stringIcNS_11char_traitsIcEENS_9allocatorIcEEEEEEEEELi0EEEvPT_, symObjAddr: 0x1A82C, symBinAddr: 0x48860, symSize: 0x38 }
  - { offset: 0x8BDAB, size: 0x8, addend: 0x0, symName: __ZNSt3__119__libcpp_deallocateB8de200100INS_11__hash_nodeINS_17__hash_value_typeImNS_8functionIFNS_10shared_ptrIN7Entropy6Assets6IAssetEEERKNS_12basic_stringIcNS_11char_traitsIcEENS_9allocatorIcEEEEEEEEEPvEEEEvPNS_15__type_identityIT_E4typeENS_15__element_countEm, symObjAddr: 0x1AA3C, symBinAddr: 0x48A70, symSize: 0x68 }
  - { offset: 0x8BE23, size: 0x8, addend: 0x0, symName: __ZNSt3__124__libcpp_operator_deleteB8de200100IJPNS_11__hash_nodeINS_17__hash_value_typeImNS_8functionIFNS_10shared_ptrIN7Entropy6Assets6IAssetEEERKNS_12basic_stringIcNS_11char_traitsIcEENS_9allocatorIcEEEEEEEEEPvEESt11align_val_tEEEvDpT_, symObjAddr: 0x1AAA4, symBinAddr: 0x48AD8, symSize: 0x2C }
  - { offset: 0x8BE69, size: 0x8, addend: 0x0, symName: __ZNSt3__124__libcpp_operator_deleteB8de200100IJPNS_11__hash_nodeINS_17__hash_value_typeImNS_8functionIFNS_10shared_ptrIN7Entropy6Assets6IAssetEEERKNS_12basic_stringIcNS_11char_traitsIcEENS_9allocatorIcEEEEEEEEEPvEEEEEvDpT_, symObjAddr: 0x1AAD0, symBinAddr: 0x48B04, symSize: 0x24 }
  - { offset: 0x8BEE4, size: 0x8, addend: 0x0, symName: __ZNSt3__17launderB8de200100INS_4pairIKmNS_8functionIFNS_10shared_ptrIN7Entropy6Assets6IAssetEEERKNS_12basic_stringIcNS_11char_traitsIcEENS_9allocatorIcEEEEEEEEEEEPT_SL_, symObjAddr: 0x1AC50, symBinAddr: 0x48C84, symSize: 0x24 }
  - { offset: 0x8BF19, size: 0x8, addend: 0x0, symName: __ZNSt3__19__launderB8de200100INS_4pairIKmNS_8functionIFNS_10shared_ptrIN7Entropy6Assets6IAssetEEERKNS_12basic_stringIcNS_11char_traitsIcEENS_9allocatorIcEEEEEEEEEEEPT_SL_, symObjAddr: 0x1AC74, symBinAddr: 0x48CA8, symSize: 0x14 }
  - { offset: 0x8C3BA, size: 0x8, addend: 0x0, symName: __ZNSt3__117__libcpp_allocateB8de200100INS_10__function6__funcIZN7Entropy6Assets13IAssetManager14RegisterLoaderINS4_12TextureAssetEEEvRKNS_8functionIFNS_10shared_ptrIT_EERKNS_12basic_stringIcNS_11char_traitsIcEENS_9allocatorIcEEEEEEEEUlSJ_E_NSF_ISO_EEFNS9_INS4_6IAssetEEESJ_EEEEEPSA_NS_15__element_countEm, symObjAddr: 0x1B190, symBinAddr: 0x491C4, symSize: 0x70 }
  - { offset: 0x8C428, size: 0x8, addend: 0x0, symName: __ZNSt3__121__libcpp_operator_newB8de200100INS_10__function6__funcIZN7Entropy6Assets13IAssetManager14RegisterLoaderINS4_12TextureAssetEEEvRKNS_8functionIFNS_10shared_ptrIT_EERKNS_12basic_stringIcNS_11char_traitsIcEENS_9allocatorIcEEEEEEEEUlSJ_E_NSF_ISO_EEFNS9_INS4_6IAssetEEESJ_EEEJmSt11align_val_tEEEPvDpT0_, symObjAddr: 0x1B218, symBinAddr: 0x4924C, symSize: 0x2C }
  - { offset: 0x8C47B, size: 0x8, addend: 0x0, symName: __ZNSt3__121__libcpp_operator_newB8de200100INS_10__function6__funcIZN7Entropy6Assets13IAssetManager14RegisterLoaderINS4_12TextureAssetEEEvRKNS_8functionIFNS_10shared_ptrIT_EERKNS_12basic_stringIcNS_11char_traitsIcEENS_9allocatorIcEEEEEEEEUlSJ_E_NSF_ISO_EEFNS9_INS4_6IAssetEEESJ_EEEEEPvm, symObjAddr: 0x1B244, symBinAddr: 0x49278, symSize: 0x24 }
  - { offset: 0x8C666, size: 0x8, addend: 0x0, symName: __ZNSt3__119__libcpp_deallocateB8de200100INS_10__function6__funcIZN7Entropy6Assets13IAssetManager14RegisterLoaderINS4_12TextureAssetEEEvRKNS_8functionIFNS_10shared_ptrIT_EERKNS_12basic_stringIcNS_11char_traitsIcEENS_9allocatorIcEEEEEEEEUlSJ_E_NSF_ISO_EEFNS9_INS4_6IAssetEEESJ_EEEEEvPNS_15__type_identityISA_E4typeENS_15__element_countEm, symObjAddr: 0x1BBAC, symBinAddr: 0x49BE0, symSize: 0x68 }
  - { offset: 0x8C6DE, size: 0x8, addend: 0x0, symName: __ZNSt3__124__libcpp_operator_deleteB8de200100IJPNS_10__function6__funcIZN7Entropy6Assets13IAssetManager14RegisterLoaderINS4_12TextureAssetEEEvRKNS_8functionIFNS_10shared_ptrIT_EERKNS_12basic_stringIcNS_11char_traitsIcEENS_9allocatorIcEEEEEEEEUlSJ_E_NSF_ISO_EEFNS9_INS4_6IAssetEEESJ_EEESt11align_val_tEEEvDpT_, symObjAddr: 0x1BC14, symBinAddr: 0x49C48, symSize: 0x2C }
  - { offset: 0x8C724, size: 0x8, addend: 0x0, symName: __ZNSt3__124__libcpp_operator_deleteB8de200100IJPNS_10__function6__funcIZN7Entropy6Assets13IAssetManager14RegisterLoaderINS4_12TextureAssetEEEvRKNS_8functionIFNS_10shared_ptrIT_EERKNS_12basic_stringIcNS_11char_traitsIcEENS_9allocatorIcEEEEEEEEUlSJ_E_NSF_ISO_EEFNS9_INS4_6IAssetEEESJ_EEEEEEvDpT_, symObjAddr: 0x1BC40, symBinAddr: 0x49C74, symSize: 0x24 }
  - { offset: 0x8C757, size: 0x8, addend: 0x0, symName: __ZNSt3__110__invoke_rB8de200100INS_10shared_ptrIN7Entropy6Assets6IAssetEEEJRZNS3_13IAssetManager14RegisterLoaderINS3_12TextureAssetEEEvRKNS_8functionIFNS1_IT_EERKNS_12basic_stringIcNS_11char_traitsIcEENS_9allocatorIcEEEEEEEEUlSJ_E_SJ_EEESA_DpOT0_, symObjAddr: 0x1BDEC, symBinAddr: 0x49E20, symSize: 0x34 }
  - { offset: 0x8C7F1, size: 0x8, addend: 0x0, symName: __ZNSt3__18__invokeB8de200100IRZN7Entropy6Assets13IAssetManager14RegisterLoaderINS2_12TextureAssetEEEvRKNS_8functionIFNS_10shared_ptrIT_EERKNS_12basic_stringIcNS_11char_traitsIcEENS_9allocatorIcEEEEEEEEUlSH_E_JSH_EEEDTclclsr3stdE7declvalIS8_EEspclsr3stdE7declvalIT0_EEEEOS8_DpOSO_, symObjAddr: 0x1BE54, symBinAddr: 0x49E88, symSize: 0x34 }
  - { offset: 0x8C840, size: 0x8, addend: 0x0, symName: __ZNSt3__125__throw_bad_function_callB8de200100Ev, symObjAddr: 0x1BFC8, symBinAddr: 0x49FFC, symSize: 0x38 }
  - { offset: 0x8C8C2, size: 0x8, addend: 0x0, symName: __ZNSt3__14swapB8de200100IPNS_10__function6__baseIFNS_10shared_ptrIN7Entropy6Assets6IAssetEEERKNS_12basic_stringIcNS_11char_traitsIcEENS_9allocatorIcEEEEEEEEENS_9enable_ifIXaasr21is_move_constructibleIT_EE5valuesr18is_move_assignableISK_EE5valueEvE4typeERSK_SN_, symObjAddr: 0x1C5F4, symBinAddr: 0x4A628, symSize: 0x3C }
  - { offset: 0x8CD7F, size: 0x8, addend: 0x0, symName: __ZNSt3__117__libcpp_allocateB8de200100INS_10__function6__funcIZN7Entropy6Assets12AssetManagerC1EvEUlRKNS_12basic_stringIcNS_11char_traitsIcEENS_9allocatorIcEEEEE_NS9_ISE_EEFNS_10shared_ptrINS4_12TextureAssetEEESD_EEEEEPT_NS_15__element_countEm, symObjAddr: 0x1CF50, symBinAddr: 0x4AF84, symSize: 0x6C }
  - { offset: 0x8CDED, size: 0x8, addend: 0x0, symName: __ZNSt3__121__libcpp_operator_newB8de200100INS_10__function6__funcIZN7Entropy6Assets12AssetManagerC1EvEUlRKNS_12basic_stringIcNS_11char_traitsIcEENS_9allocatorIcEEEEE_NS9_ISE_EEFNS_10shared_ptrINS4_12TextureAssetEEESD_EEEJmSt11align_val_tEEEPvDpT0_, symObjAddr: 0x1CFD0, symBinAddr: 0x4B004, symSize: 0x2C }
  - { offset: 0x8CE40, size: 0x8, addend: 0x0, symName: __ZNSt3__121__libcpp_operator_newB8de200100INS_10__function6__funcIZN7Entropy6Assets12AssetManagerC1EvEUlRKNS_12basic_stringIcNS_11char_traitsIcEENS_9allocatorIcEEEEE_NS9_ISE_EEFNS_10shared_ptrINS4_12TextureAssetEEESD_EEEEEPvm, symObjAddr: 0x1CFFC, symBinAddr: 0x4B030, symSize: 0x24 }
  - { offset: 0x8CE75, size: 0x8, addend: 0x0, symName: __ZNSt3__119__libcpp_deallocateB8de200100INS_10__function6__funcIZN7Entropy6Assets12AssetManagerC1EvEUlRKNS_12basic_stringIcNS_11char_traitsIcEENS_9allocatorIcEEEEE_NS9_ISE_EEFNS_10shared_ptrINS4_12TextureAssetEEESD_EEEEEvPNS_15__type_identityIT_E4typeENS_15__element_countEm, symObjAddr: 0x1D284, symBinAddr: 0x4B2B8, symSize: 0x64 }
  - { offset: 0x8CEED, size: 0x8, addend: 0x0, symName: __ZNSt3__124__libcpp_operator_deleteB8de200100IJPNS_10__function6__funcIZN7Entropy6Assets12AssetManagerC1EvEUlRKNS_12basic_stringIcNS_11char_traitsIcEENS_9allocatorIcEEEEE_NS9_ISE_EEFNS_10shared_ptrINS4_12TextureAssetEEESD_EEESt11align_val_tEEEvDpT_, symObjAddr: 0x1D2E8, symBinAddr: 0x4B31C, symSize: 0x2C }
  - { offset: 0x8CF33, size: 0x8, addend: 0x0, symName: __ZNSt3__124__libcpp_operator_deleteB8de200100IJPNS_10__function6__funcIZN7Entropy6Assets12AssetManagerC1EvEUlRKNS_12basic_stringIcNS_11char_traitsIcEENS_9allocatorIcEEEEE_NS9_ISE_EEFNS_10shared_ptrINS4_12TextureAssetEEESD_EEEEEEvDpT_, symObjAddr: 0x1D314, symBinAddr: 0x4B348, symSize: 0x24 }
  - { offset: 0x8CF66, size: 0x8, addend: 0x0, symName: __ZNSt3__110__invoke_rB8de200100INS_10shared_ptrIN7Entropy6Assets12TextureAssetEEEJRZNS3_12AssetManagerC1EvEUlRKNS_12basic_stringIcNS_11char_traitsIcEENS_9allocatorIcEEEEE_SE_EEET_DpOT0_, symObjAddr: 0x1D49C, symBinAddr: 0x4B4D0, symSize: 0x34 }
  - { offset: 0x8D000, size: 0x8, addend: 0x0, symName: __ZNSt3__18__invokeB8de200100IRZN7Entropy6Assets12AssetManagerC1EvEUlRKNS_12basic_stringIcNS_11char_traitsIcEENS_9allocatorIcEEEEE_JSB_EEEDTclclsr3stdE7declvalIT_EEspclsr3stdE7declvalIT0_EEEEOSE_DpOSF_, symObjAddr: 0x1D504, symBinAddr: 0x4B538, symSize: 0x34 }
  - { offset: 0x8D04E, size: 0x8, addend: 0x0, symName: __ZNSt3__111make_sharedB8de200100IN7Entropy6Assets12TextureAssetEJELi0EEENS_10shared_ptrIT_EEDpOT0_, symObjAddr: 0x1D758, symBinAddr: 0x4B78C, symSize: 0x38 }
  - { offset: 0x8D081, size: 0x8, addend: 0x0, symName: __ZNSt3__115allocate_sharedB8de200100IN7Entropy6Assets12TextureAssetENS_9allocatorIS3_EEJELi0EEENS_10shared_ptrIT_EERKT0_DpOT1_, symObjAddr: 0x1D8C8, symBinAddr: 0x4B8FC, symSize: 0xD4 }
  - { offset: 0x8D3E8, size: 0x8, addend: 0x0, symName: __ZNSt3__117__libcpp_allocateB8de200100INS_20__shared_ptr_emplaceIN7Entropy6Assets12TextureAssetENS_9allocatorIS4_EEEEEEPT_NS_15__element_countEm, symObjAddr: 0x1DCC4, symBinAddr: 0x4BCF8, symSize: 0x70 }
  - { offset: 0x8D456, size: 0x8, addend: 0x0, symName: __ZNSt3__121__libcpp_operator_newB8de200100INS_20__shared_ptr_emplaceIN7Entropy6Assets12TextureAssetENS_9allocatorIS4_EEEEJmSt11align_val_tEEEPvDpT0_, symObjAddr: 0x1DD54, symBinAddr: 0x4BD88, symSize: 0x2C }
  - { offset: 0x8D4A9, size: 0x8, addend: 0x0, symName: __ZNSt3__121__libcpp_operator_newB8de200100INS_20__shared_ptr_emplaceIN7Entropy6Assets12TextureAssetENS_9allocatorIS4_EEEEEEPvm, symObjAddr: 0x1DD80, symBinAddr: 0x4BDB4, symSize: 0x24 }
  - { offset: 0x8D59A, size: 0x8, addend: 0x0, symName: __ZNSt3__112__to_addressB8de200100INS_12basic_stringIcNS_11char_traitsIcEENS_9allocatorIcEEEEEEPT_S8_, symObjAddr: 0x1E6A4, symBinAddr: 0x4C6D8, symSize: 0x14 }
  - { offset: 0x8D5CF, size: 0x8, addend: 0x0, symName: __ZNSt3__119__libcpp_deallocateB8de200100INS_12basic_stringIcNS_11char_traitsIcEENS_9allocatorIcEEEEEEvPNS_15__type_identityIT_E4typeENS_15__element_countEm, symObjAddr: 0x1E714, symBinAddr: 0x4C748, symSize: 0x68 }
  - { offset: 0x8D647, size: 0x8, addend: 0x0, symName: __ZNSt3__124__libcpp_operator_deleteB8de200100IJPNS_12basic_stringIcNS_11char_traitsIcEENS_9allocatorIcEEEESt11align_val_tEEEvDpT_, symObjAddr: 0x1E77C, symBinAddr: 0x4C7B0, symSize: 0x2C }
  - { offset: 0x8D68D, size: 0x8, addend: 0x0, symName: __ZNSt3__124__libcpp_operator_deleteB8de200100IJPNS_12basic_stringIcNS_11char_traitsIcEENS_9allocatorIcEEEEEEEvDpT_, symObjAddr: 0x1E7A8, symBinAddr: 0x4C7DC, symSize: 0x24 }
  - { offset: 0x8D6F3, size: 0x8, addend: 0x0, symName: __ZNSt3__119__libcpp_deallocateB8de200100INS_20__shared_ptr_emplaceIN7Entropy6Assets12TextureAssetENS_9allocatorIS4_EEEEEEvPNS_15__type_identityIT_E4typeENS_15__element_countEm, symObjAddr: 0x1E9A8, symBinAddr: 0x4C9DC, symSize: 0x68 }
  - { offset: 0x8D76B, size: 0x8, addend: 0x0, symName: __ZNSt3__124__libcpp_operator_deleteB8de200100IJPNS_20__shared_ptr_emplaceIN7Entropy6Assets12TextureAssetENS_9allocatorIS4_EEEESt11align_val_tEEEvDpT_, symObjAddr: 0x1EA10, symBinAddr: 0x4CA44, symSize: 0x2C }
  - { offset: 0x8D7B1, size: 0x8, addend: 0x0, symName: __ZNSt3__124__libcpp_operator_deleteB8de200100IJPNS_20__shared_ptr_emplaceIN7Entropy6Assets12TextureAssetENS_9allocatorIS4_EEEEEEEvDpT_, symObjAddr: 0x1EA3C, symBinAddr: 0x4CA70, symSize: 0x24 }
  - { offset: 0x8D7E4, size: 0x8, addend: 0x0, symName: __ZNSt3__111make_sharedB8de200100IN7Entropy6Vulkan8Textures7TextureEJRKNS_12basic_stringIcNS_11char_traitsIcEENS_9allocatorIcEEEEELi0EEENS_10shared_ptrIT_EEDpOT0_, symObjAddr: 0x1EB7C, symBinAddr: 0x4CBB0, symSize: 0x40 }
  - { offset: 0x8D82C, size: 0x8, addend: 0x0, symName: __ZNSt3__115allocate_sharedB8de200100IN7Entropy6Vulkan8Textures7TextureENS_9allocatorIS4_EEJRKNS_12basic_stringIcNS_11char_traitsIcEENS5_IcEEEEELi0EEENS_10shared_ptrIT_EERKT0_DpOT1_, symObjAddr: 0x1EC0C, symBinAddr: 0x4CC40, symSize: 0xDC }
  - { offset: 0x8DBA8, size: 0x8, addend: 0x0, symName: __ZNSt3__117__libcpp_allocateB8de200100INS_20__shared_ptr_emplaceIN7Entropy6Vulkan8Textures7TextureENS_9allocatorIS5_EEEEEEPT_NS_15__element_countEm, symObjAddr: 0x1F018, symBinAddr: 0x4D04C, symSize: 0x70 }
  - { offset: 0x8DC16, size: 0x8, addend: 0x0, symName: __ZNSt3__121__libcpp_operator_newB8de200100INS_20__shared_ptr_emplaceIN7Entropy6Vulkan8Textures7TextureENS_9allocatorIS5_EEEEJmSt11align_val_tEEEPvDpT0_, symObjAddr: 0x1F0A8, symBinAddr: 0x4D0DC, symSize: 0x2C }
  - { offset: 0x8DC69, size: 0x8, addend: 0x0, symName: __ZNSt3__121__libcpp_operator_newB8de200100INS_20__shared_ptr_emplaceIN7Entropy6Vulkan8Textures7TextureENS_9allocatorIS5_EEEEEEPvm, symObjAddr: 0x1F0D4, symBinAddr: 0x4D108, symSize: 0x24 }
  - { offset: 0x8DD98, size: 0x8, addend: 0x0, symName: __ZNSt3__119__libcpp_deallocateB8de200100INS_20__shared_ptr_emplaceIN7Entropy6Vulkan8Textures7TextureENS_9allocatorIS5_EEEEEEvPNS_15__type_identityIT_E4typeENS_15__element_countEm, symObjAddr: 0x1F58C, symBinAddr: 0x4D5C0, symSize: 0x68 }
  - { offset: 0x8DE10, size: 0x8, addend: 0x0, symName: __ZNSt3__124__libcpp_operator_deleteB8de200100IJPNS_20__shared_ptr_emplaceIN7Entropy6Vulkan8Textures7TextureENS_9allocatorIS5_EEEESt11align_val_tEEEvDpT_, symObjAddr: 0x1F5F4, symBinAddr: 0x4D628, symSize: 0x2C }
  - { offset: 0x8DE56, size: 0x8, addend: 0x0, symName: __ZNSt3__124__libcpp_operator_deleteB8de200100IJPNS_20__shared_ptr_emplaceIN7Entropy6Vulkan8Textures7TextureENS_9allocatorIS5_EEEEEEEvDpT_, symObjAddr: 0x1F620, symBinAddr: 0x4D654, symSize: 0x24 }
  - { offset: 0x8DE89, size: 0x8, addend: 0x0, symName: __ZNSt3__14swapB8de200100IPN7Entropy6Vulkan8Textures7TextureEEENS_9enable_ifIXaasr21is_move_constructibleIT_EE5valuesr18is_move_assignableIS7_EE5valueEvE4typeERS7_SA_, symObjAddr: 0x1F7D0, symBinAddr: 0x4D804, symSize: 0x3C }
  - { offset: 0x8DF6D, size: 0x8, addend: 0x0, symName: __ZNSt3__112__destroy_atB8de200100INS_11__hash_nodeINS_17__hash_value_typeImNS_13unordered_mapINS_12basic_stringIcNS_11char_traitsIcEENS_9allocatorIcEEEENS_10shared_ptrIN7Entropy6Assets6IAssetEEENS_4hashIS9_EENS_8equal_toIS9_EENS7_INS_4pairIKS9_SE_EEEEEEEEPvEELi0EEEvPT_, symObjAddr: 0x1FC98, symBinAddr: 0x4DCCC, symSize: 0x38 }
  - { offset: 0x8DFD7, size: 0x8, addend: 0x0, symName: __ZNSt3__112__destroy_atB8de200100INS_4pairIKmNS_13unordered_mapINS_12basic_stringIcNS_11char_traitsIcEENS_9allocatorIcEEEENS_10shared_ptrIN7Entropy6Assets6IAssetEEENS_4hashIS9_EENS_8equal_toIS9_EENS7_INS1_IKS9_SE_EEEEEEEELi0EEEvPT_, symObjAddr: 0x1FD18, symBinAddr: 0x4DD4C, symSize: 0x38 }
  - { offset: 0x8E0A1, size: 0x8, addend: 0x0, symName: __ZNSt3__112__destroy_atB8de200100INS_11__hash_nodeINS_17__hash_value_typeINS_12basic_stringIcNS_11char_traitsIcEENS_9allocatorIcEEEENS_10shared_ptrIN7Entropy6Assets6IAssetEEEEEPvEELi0EEEvPT_, symObjAddr: 0x1FFE8, symBinAddr: 0x4E01C, symSize: 0x38 }
  - { offset: 0x8E10B, size: 0x8, addend: 0x0, symName: __ZNSt3__112__destroy_atB8de200100INS_4pairIKNS_12basic_stringIcNS_11char_traitsIcEENS_9allocatorIcEEEENS_10shared_ptrIN7Entropy6Assets6IAssetEEEEELi0EEEvPT_, symObjAddr: 0x20068, symBinAddr: 0x4E09C, symSize: 0x38 }
  - { offset: 0x8E142, size: 0x8, addend: 0x0, symName: __ZNSt3__17launderB8de200100INS_4pairIKNS_12basic_stringIcNS_11char_traitsIcEENS_9allocatorIcEEEENS_10shared_ptrIN7Entropy6Assets6IAssetEEEEEEEPT_SG_, symObjAddr: 0x201A0, symBinAddr: 0x4E1D4, symSize: 0x24 }
  - { offset: 0x8E177, size: 0x8, addend: 0x0, symName: __ZNSt3__19__launderB8de200100INS_4pairIKNS_12basic_stringIcNS_11char_traitsIcEENS_9allocatorIcEEEENS_10shared_ptrIN7Entropy6Assets6IAssetEEEEEEEPT_SG_, symObjAddr: 0x201C4, symBinAddr: 0x4E1F8, symSize: 0x14 }
  - { offset: 0x8E1AC, size: 0x8, addend: 0x0, symName: __ZNSt3__119__libcpp_deallocateB8de200100INS_11__hash_nodeINS_17__hash_value_typeINS_12basic_stringIcNS_11char_traitsIcEENS_9allocatorIcEEEENS_10shared_ptrIN7Entropy6Assets6IAssetEEEEEPvEEEEvPNS_15__type_identityIT_E4typeENS_15__element_countEm, symObjAddr: 0x2024C, symBinAddr: 0x4E280, symSize: 0x68 }
  - { offset: 0x8E224, size: 0x8, addend: 0x0, symName: __ZNSt3__124__libcpp_operator_deleteB8de200100IJPNS_11__hash_nodeINS_17__hash_value_typeINS_12basic_stringIcNS_11char_traitsIcEENS_9allocatorIcEEEENS_10shared_ptrIN7Entropy6Assets6IAssetEEEEEPvEESt11align_val_tEEEvDpT_, symObjAddr: 0x202B4, symBinAddr: 0x4E2E8, symSize: 0x2C }
  - { offset: 0x8E26A, size: 0x8, addend: 0x0, symName: __ZNSt3__124__libcpp_operator_deleteB8de200100IJPNS_11__hash_nodeINS_17__hash_value_typeINS_12basic_stringIcNS_11char_traitsIcEENS_9allocatorIcEEEENS_10shared_ptrIN7Entropy6Assets6IAssetEEEEEPvEEEEEvDpT_, symObjAddr: 0x202E0, symBinAddr: 0x4E314, symSize: 0x24 }
  - { offset: 0x8E29D, size: 0x8, addend: 0x0, symName: __ZNSt3__119__libcpp_deallocateB8de200100IPNS_16__hash_node_baseIPNS_11__hash_nodeINS_17__hash_value_typeINS_12basic_stringIcNS_11char_traitsIcEENS_9allocatorIcEEEENS_10shared_ptrIN7Entropy6Assets6IAssetEEEEEPvEEEEEEvPNS_15__type_identityIT_E4typeENS_15__element_countEm, symObjAddr: 0x20470, symBinAddr: 0x4E4A4, symSize: 0x64 }
  - { offset: 0x8E315, size: 0x8, addend: 0x0, symName: __ZNSt3__124__libcpp_operator_deleteB8de200100IJPPNS_16__hash_node_baseIPNS_11__hash_nodeINS_17__hash_value_typeINS_12basic_stringIcNS_11char_traitsIcEENS_9allocatorIcEEEENS_10shared_ptrIN7Entropy6Assets6IAssetEEEEEPvEEEESt11align_val_tEEEvDpT_, symObjAddr: 0x204D4, symBinAddr: 0x4E508, symSize: 0x2C }
  - { offset: 0x8E35B, size: 0x8, addend: 0x0, symName: __ZNSt3__124__libcpp_operator_deleteB8de200100IJPPNS_16__hash_node_baseIPNS_11__hash_nodeINS_17__hash_value_typeINS_12basic_stringIcNS_11char_traitsIcEENS_9allocatorIcEEEENS_10shared_ptrIN7Entropy6Assets6IAssetEEEEEPvEEEEEEEvDpT_, symObjAddr: 0x20500, symBinAddr: 0x4E534, symSize: 0x24 }
  - { offset: 0x8E38E, size: 0x8, addend: 0x0, symName: __ZNSt3__17launderB8de200100INS_4pairIKmNS_13unordered_mapINS_12basic_stringIcNS_11char_traitsIcEENS_9allocatorIcEEEENS_10shared_ptrIN7Entropy6Assets6IAssetEEENS_4hashIS9_EENS_8equal_toIS9_EENS7_INS1_IKS9_SE_EEEEEEEEEEPT_SP_, symObjAddr: 0x20548, symBinAddr: 0x4E57C, symSize: 0x24 }
  - { offset: 0x8E3C3, size: 0x8, addend: 0x0, symName: __ZNSt3__19__launderB8de200100INS_4pairIKmNS_13unordered_mapINS_12basic_stringIcNS_11char_traitsIcEENS_9allocatorIcEEEENS_10shared_ptrIN7Entropy6Assets6IAssetEEENS_4hashIS9_EENS_8equal_toIS9_EENS7_INS1_IKS9_SE_EEEEEEEEEEPT_SP_, symObjAddr: 0x2056C, symBinAddr: 0x4E5A0, symSize: 0x14 }
  - { offset: 0x8E3F8, size: 0x8, addend: 0x0, symName: __ZNSt3__119__libcpp_deallocateB8de200100INS_11__hash_nodeINS_17__hash_value_typeImNS_13unordered_mapINS_12basic_stringIcNS_11char_traitsIcEENS_9allocatorIcEEEENS_10shared_ptrIN7Entropy6Assets6IAssetEEENS_4hashIS9_EENS_8equal_toIS9_EENS7_INS_4pairIKS9_SE_EEEEEEEEPvEEEEvPNS_15__type_identityIT_E4typeENS_15__element_countEm, symObjAddr: 0x205F4, symBinAddr: 0x4E628, symSize: 0x64 }
  - { offset: 0x8E470, size: 0x8, addend: 0x0, symName: __ZNSt3__124__libcpp_operator_deleteB8de200100IJPNS_11__hash_nodeINS_17__hash_value_typeImNS_13unordered_mapINS_12basic_stringIcNS_11char_traitsIcEENS_9allocatorIcEEEENS_10shared_ptrIN7Entropy6Assets6IAssetEEENS_4hashIS9_EENS_8equal_toIS9_EENS7_INS_4pairIKS9_SE_EEEEEEEEPvEESt11align_val_tEEEvDpT_, symObjAddr: 0x20658, symBinAddr: 0x4E68C, symSize: 0x2C }
  - { offset: 0x8E4B6, size: 0x8, addend: 0x0, symName: __ZNSt3__124__libcpp_operator_deleteB8de200100IJPNS_11__hash_nodeINS_17__hash_value_typeImNS_13unordered_mapINS_12basic_stringIcNS_11char_traitsIcEENS_9allocatorIcEEEENS_10shared_ptrIN7Entropy6Assets6IAssetEEENS_4hashIS9_EENS_8equal_toIS9_EENS7_INS_4pairIKS9_SE_EEEEEEEEPvEEEEEvDpT_, symObjAddr: 0x20684, symBinAddr: 0x4E6B8, symSize: 0x24 }
  - { offset: 0x8E4E9, size: 0x8, addend: 0x0, symName: __ZNSt3__119__libcpp_deallocateB8de200100IPNS_16__hash_node_baseIPNS_11__hash_nodeINS_17__hash_value_typeImNS_13unordered_mapINS_12basic_stringIcNS_11char_traitsIcEENS_9allocatorIcEEEENS_10shared_ptrIN7Entropy6Assets6IAssetEEENS_4hashISA_EENS_8equal_toISA_EENS8_INS_4pairIKSA_SF_EEEEEEEEPvEEEEEEvPNS_15__type_identityIT_E4typeENS_15__element_countEm, symObjAddr: 0x20814, symBinAddr: 0x4E848, symSize: 0x64 }
  - { offset: 0x8E561, size: 0x8, addend: 0x0, symName: __ZNSt3__124__libcpp_operator_deleteB8de200100IJPPNS_16__hash_node_baseIPNS_11__hash_nodeINS_17__hash_value_typeImNS_13unordered_mapINS_12basic_stringIcNS_11char_traitsIcEENS_9allocatorIcEEEENS_10shared_ptrIN7Entropy6Assets6IAssetEEENS_4hashISA_EENS_8equal_toISA_EENS8_INS_4pairIKSA_SF_EEEEEEEEPvEEEESt11align_val_tEEEvDpT_, symObjAddr: 0x20878, symBinAddr: 0x4E8AC, symSize: 0x2C }
  - { offset: 0x8E5A7, size: 0x8, addend: 0x0, symName: __ZNSt3__124__libcpp_operator_deleteB8de200100IJPPNS_16__hash_node_baseIPNS_11__hash_nodeINS_17__hash_value_typeImNS_13unordered_mapINS_12basic_stringIcNS_11char_traitsIcEENS_9allocatorIcEEEENS_10shared_ptrIN7Entropy6Assets6IAssetEEENS_4hashISA_EENS_8equal_toISA_EENS8_INS_4pairIKSA_SF_EEEEEEEEPvEEEEEEEvDpT_, symObjAddr: 0x208A4, symBinAddr: 0x4E8D8, symSize: 0x24 }
  - { offset: 0x8E60D, size: 0x8, addend: 0x0, symName: __ZNSt3__119__libcpp_deallocateB8de200100INS_20__shared_ptr_emplaceIN7Entropy6Assets12AssetManagerENS_9allocatorIS4_EEEEEEvPNS_15__type_identityIT_E4typeENS_15__element_countEm, symObjAddr: 0x20CD4, symBinAddr: 0x4ED08, symSize: 0x68 }
  - { offset: 0x8E685, size: 0x8, addend: 0x0, symName: __ZNSt3__124__libcpp_operator_deleteB8de200100IJPNS_20__shared_ptr_emplaceIN7Entropy6Assets12AssetManagerENS_9allocatorIS4_EEEESt11align_val_tEEEvDpT_, symObjAddr: 0x20D3C, symBinAddr: 0x4ED70, symSize: 0x2C }
  - { offset: 0x8E6CB, size: 0x8, addend: 0x0, symName: __ZNSt3__124__libcpp_operator_deleteB8de200100IJPNS_20__shared_ptr_emplaceIN7Entropy6Assets12AssetManagerENS_9allocatorIS4_EEEEEEEvDpT_, symObjAddr: 0x20D68, symBinAddr: 0x4ED9C, symSize: 0x24 }
  - { offset: 0x8E6FE, size: 0x8, addend: 0x0, symName: __ZNSt3__115allocate_sharedB8de200100IN7Entropy3ECS5WorldENS_9allocatorIS3_EEJELi0EEENS_10shared_ptrIT_EERKT0_DpOT1_, symObjAddr: 0x20FF8, symBinAddr: 0x4F02C, symSize: 0xD4 }
  - { offset: 0x8EA65, size: 0x8, addend: 0x0, symName: __ZNSt3__117__libcpp_allocateB8de200100INS_20__shared_ptr_emplaceIN7Entropy3ECS5WorldENS_9allocatorIS4_EEEEEEPT_NS_15__element_countEm, symObjAddr: 0x213F4, symBinAddr: 0x4F428, symSize: 0x70 }
  - { offset: 0x8EAD3, size: 0x8, addend: 0x0, symName: __ZNSt3__121__libcpp_operator_newB8de200100INS_20__shared_ptr_emplaceIN7Entropy3ECS5WorldENS_9allocatorIS4_EEEEJmSt11align_val_tEEEPvDpT0_, symObjAddr: 0x21484, symBinAddr: 0x4F4B8, symSize: 0x2C }
  - { offset: 0x8EB26, size: 0x8, addend: 0x0, symName: __ZNSt3__121__libcpp_operator_newB8de200100INS_20__shared_ptr_emplaceIN7Entropy3ECS5WorldENS_9allocatorIS4_EEEEEEPvm, symObjAddr: 0x214B0, symBinAddr: 0x4F4E4, symSize: 0x24 }
  - { offset: 0x8EC4A, size: 0x8, addend: 0x0, symName: __ZNSt3__119__libcpp_deallocateB8de200100INS_20__shared_ptr_emplaceIN7Entropy3ECS5WorldENS_9allocatorIS4_EEEEEEvPNS_15__type_identityIT_E4typeENS_15__element_countEm, symObjAddr: 0x21BAC, symBinAddr: 0x4F940, symSize: 0x68 }
  - { offset: 0x8ECC2, size: 0x8, addend: 0x0, symName: __ZNSt3__124__libcpp_operator_deleteB8de200100IJPNS_20__shared_ptr_emplaceIN7Entropy3ECS5WorldENS_9allocatorIS4_EEEESt11align_val_tEEEvDpT_, symObjAddr: 0x21C14, symBinAddr: 0x4F9A8, symSize: 0x2C }
  - { offset: 0x8ED08, size: 0x8, addend: 0x0, symName: __ZNSt3__124__libcpp_operator_deleteB8de200100IJPNS_20__shared_ptr_emplaceIN7Entropy3ECS5WorldENS_9allocatorIS4_EEEEEEEvDpT_, symObjAddr: 0x21C40, symBinAddr: 0x4F9D4, symSize: 0x24 }
  - { offset: 0x8ED3B, size: 0x8, addend: 0x0, symName: __ZNSt3__119static_pointer_castB8de200100IN7Entropy3ECS6IWorldE8IServiceEENS_10shared_ptrIT_EERKNS5_IT0_EE, symObjAddr: 0x21F60, symBinAddr: 0x4FCC4, symSize: 0x44 }
  - { offset: 0x8ED7B, size: 0x8, addend: 0x0, symName: __ZNSt3__115allocate_sharedB8de200100IN7Entropy6Vulkan9Instances14VulkanInstanceENS_9allocatorIS4_EEJELi0EEENS_10shared_ptrIT_EERKT0_DpOT1_, symObjAddr: 0x220E0, symBinAddr: 0x4FDF8, symSize: 0xD4 }
  - { offset: 0x8F0E2, size: 0x8, addend: 0x0, symName: __ZNSt3__117__libcpp_allocateB8de200100INS_20__shared_ptr_emplaceIN7Entropy6Vulkan9Instances14VulkanInstanceENS_9allocatorIS5_EEEEEEPT_NS_15__element_countEm, symObjAddr: 0x224DC, symBinAddr: 0x501F4, symSize: 0x70 }
  - { offset: 0x8F150, size: 0x8, addend: 0x0, symName: __ZNSt3__121__libcpp_operator_newB8de200100INS_20__shared_ptr_emplaceIN7Entropy6Vulkan9Instances14VulkanInstanceENS_9allocatorIS5_EEEEJmSt11align_val_tEEEPvDpT0_, symObjAddr: 0x22564, symBinAddr: 0x5027C, symSize: 0x2C }
  - { offset: 0x8F1A3, size: 0x8, addend: 0x0, symName: __ZNSt3__121__libcpp_operator_newB8de200100INS_20__shared_ptr_emplaceIN7Entropy6Vulkan9Instances14VulkanInstanceENS_9allocatorIS5_EEEEEEPvm, symObjAddr: 0x22590, symBinAddr: 0x502A8, symSize: 0x24 }
  - { offset: 0x8F2C7, size: 0x8, addend: 0x0, symName: __ZNSt3__119__libcpp_deallocateB8de200100INS_20__shared_ptr_emplaceIN7Entropy6Vulkan9Instances14VulkanInstanceENS_9allocatorIS5_EEEEEEvPNS_15__type_identityIT_E4typeENS_15__element_countEm, symObjAddr: 0x229EC, symBinAddr: 0x50704, symSize: 0x68 }
  - { offset: 0x8F33F, size: 0x8, addend: 0x0, symName: __ZNSt3__124__libcpp_operator_deleteB8de200100IJPNS_20__shared_ptr_emplaceIN7Entropy6Vulkan9Instances14VulkanInstanceENS_9allocatorIS5_EEEESt11align_val_tEEEvDpT_, symObjAddr: 0x22A54, symBinAddr: 0x5076C, symSize: 0x2C }
  - { offset: 0x8F385, size: 0x8, addend: 0x0, symName: __ZNSt3__124__libcpp_operator_deleteB8de200100IJPNS_20__shared_ptr_emplaceIN7Entropy6Vulkan9Instances14VulkanInstanceENS_9allocatorIS5_EEEEEEEvDpT_, symObjAddr: 0x22A80, symBinAddr: 0x50798, symSize: 0x24 }
  - { offset: 0x8F3B8, size: 0x8, addend: 0x0, symName: __ZNSt3__115allocate_sharedB8de200100IN7Entropy6Vulkan7Devices14PhysicalDeviceENS_9allocatorIS4_EEJELi0EEENS_10shared_ptrIT_EERKT0_DpOT1_, symObjAddr: 0x22D40, symBinAddr: 0x50A58, symSize: 0xD4 }
  - { offset: 0x8F71F, size: 0x8, addend: 0x0, symName: __ZNSt3__117__libcpp_allocateB8de200100INS_20__shared_ptr_emplaceIN7Entropy6Vulkan7Devices14PhysicalDeviceENS_9allocatorIS5_EEEEEEPT_NS_15__element_countEm, symObjAddr: 0x2313C, symBinAddr: 0x50E54, symSize: 0x70 }
  - { offset: 0x8F78D, size: 0x8, addend: 0x0, symName: __ZNSt3__121__libcpp_operator_newB8de200100INS_20__shared_ptr_emplaceIN7Entropy6Vulkan7Devices14PhysicalDeviceENS_9allocatorIS5_EEEEJmSt11align_val_tEEEPvDpT0_, symObjAddr: 0x231C4, symBinAddr: 0x50EDC, symSize: 0x2C }
  - { offset: 0x8F7E0, size: 0x8, addend: 0x0, symName: __ZNSt3__121__libcpp_operator_newB8de200100INS_20__shared_ptr_emplaceIN7Entropy6Vulkan7Devices14PhysicalDeviceENS_9allocatorIS5_EEEEEEPvm, symObjAddr: 0x231F0, symBinAddr: 0x50F08, symSize: 0x24 }
  - { offset: 0x8F904, size: 0x8, addend: 0x0, symName: __ZNSt3__119__libcpp_deallocateB8de200100INS_20__shared_ptr_emplaceIN7Entropy6Vulkan7Devices14PhysicalDeviceENS_9allocatorIS5_EEEEEEvPNS_15__type_identityIT_E4typeENS_15__element_countEm, symObjAddr: 0x236FC, symBinAddr: 0x51414, symSize: 0x68 }
  - { offset: 0x8F97C, size: 0x8, addend: 0x0, symName: __ZNSt3__124__libcpp_operator_deleteB8de200100IJPNS_20__shared_ptr_emplaceIN7Entropy6Vulkan7Devices14PhysicalDeviceENS_9allocatorIS5_EEEESt11align_val_tEEEvDpT_, symObjAddr: 0x23764, symBinAddr: 0x5147C, symSize: 0x2C }
  - { offset: 0x8F9C2, size: 0x8, addend: 0x0, symName: __ZNSt3__124__libcpp_operator_deleteB8de200100IJPNS_20__shared_ptr_emplaceIN7Entropy6Vulkan7Devices14PhysicalDeviceENS_9allocatorIS5_EEEEEEEvDpT_, symObjAddr: 0x23790, symBinAddr: 0x514A8, symSize: 0x24 }
  - { offset: 0x8F9F5, size: 0x8, addend: 0x0, symName: __ZNSt3__115allocate_sharedB8de200100IN7Entropy6Vulkan7Devices13LogicalDeviceENS_9allocatorIS4_EEJELi0EEENS_10shared_ptrIT_EERKT0_DpOT1_, symObjAddr: 0x23A50, symBinAddr: 0x51768, symSize: 0xD4 }
  - { offset: 0x8FD5C, size: 0x8, addend: 0x0, symName: __ZNSt3__117__libcpp_allocateB8de200100INS_20__shared_ptr_emplaceIN7Entropy6Vulkan7Devices13LogicalDeviceENS_9allocatorIS5_EEEEEEPT_NS_15__element_countEm, symObjAddr: 0x23E4C, symBinAddr: 0x51B64, symSize: 0x70 }
  - { offset: 0x8FDCA, size: 0x8, addend: 0x0, symName: __ZNSt3__121__libcpp_operator_newB8de200100INS_20__shared_ptr_emplaceIN7Entropy6Vulkan7Devices13LogicalDeviceENS_9allocatorIS5_EEEEJmSt11align_val_tEEEPvDpT0_, symObjAddr: 0x23ED4, symBinAddr: 0x51BEC, symSize: 0x2C }
  - { offset: 0x8FE1D, size: 0x8, addend: 0x0, symName: __ZNSt3__121__libcpp_operator_newB8de200100INS_20__shared_ptr_emplaceIN7Entropy6Vulkan7Devices13LogicalDeviceENS_9allocatorIS5_EEEEEEPvm, symObjAddr: 0x23F00, symBinAddr: 0x51C18, symSize: 0x24 }
  - { offset: 0x8FF41, size: 0x8, addend: 0x0, symName: __ZNSt3__119__libcpp_deallocateB8de200100INS_20__shared_ptr_emplaceIN7Entropy6Vulkan7Devices13LogicalDeviceENS_9allocatorIS5_EEEEEEvPNS_15__type_identityIT_E4typeENS_15__element_countEm, symObjAddr: 0x2435C, symBinAddr: 0x52074, symSize: 0x68 }
  - { offset: 0x8FFB9, size: 0x8, addend: 0x0, symName: __ZNSt3__124__libcpp_operator_deleteB8de200100IJPNS_20__shared_ptr_emplaceIN7Entropy6Vulkan7Devices13LogicalDeviceENS_9allocatorIS5_EEEESt11align_val_tEEEvDpT_, symObjAddr: 0x243C4, symBinAddr: 0x520DC, symSize: 0x2C }
  - { offset: 0x8FFFF, size: 0x8, addend: 0x0, symName: __ZNSt3__124__libcpp_operator_deleteB8de200100IJPNS_20__shared_ptr_emplaceIN7Entropy6Vulkan7Devices13LogicalDeviceENS_9allocatorIS5_EEEEEEEvDpT_, symObjAddr: 0x243F0, symBinAddr: 0x52108, symSize: 0x24 }
  - { offset: 0x90032, size: 0x8, addend: 0x0, symName: __ZNSt3__115allocate_sharedB8de200100IN7Entropy6Vulkan6Memory9AllocatorENS_9allocatorIS4_EEJELi0EEENS_10shared_ptrIT_EERKT0_DpOT1_, symObjAddr: 0x246B0, symBinAddr: 0x523C8, symSize: 0xD4 }
  - { offset: 0x90399, size: 0x8, addend: 0x0, symName: __ZNSt3__117__libcpp_allocateB8de200100INS_20__shared_ptr_emplaceIN7Entropy6Vulkan6Memory9AllocatorENS_9allocatorIS5_EEEEEEPT_NS_15__element_countEm, symObjAddr: 0x24AAC, symBinAddr: 0x527C4, symSize: 0x70 }
  - { offset: 0x90407, size: 0x8, addend: 0x0, symName: __ZNSt3__121__libcpp_operator_newB8de200100INS_20__shared_ptr_emplaceIN7Entropy6Vulkan6Memory9AllocatorENS_9allocatorIS5_EEEEJmSt11align_val_tEEEPvDpT0_, symObjAddr: 0x24B34, symBinAddr: 0x5284C, symSize: 0x2C }
  - { offset: 0x9045A, size: 0x8, addend: 0x0, symName: __ZNSt3__121__libcpp_operator_newB8de200100INS_20__shared_ptr_emplaceIN7Entropy6Vulkan6Memory9AllocatorENS_9allocatorIS5_EEEEEEPvm, symObjAddr: 0x24B60, symBinAddr: 0x52878, symSize: 0x24 }
  - { offset: 0x9057E, size: 0x8, addend: 0x0, symName: __ZNSt3__119__libcpp_deallocateB8de200100INS_20__shared_ptr_emplaceIN7Entropy6Vulkan6Memory9AllocatorENS_9allocatorIS5_EEEEEEvPNS_15__type_identityIT_E4typeENS_15__element_countEm, symObjAddr: 0x24FBC, symBinAddr: 0x52CD4, symSize: 0x68 }
  - { offset: 0x905F6, size: 0x8, addend: 0x0, symName: __ZNSt3__124__libcpp_operator_deleteB8de200100IJPNS_20__shared_ptr_emplaceIN7Entropy6Vulkan6Memory9AllocatorENS_9allocatorIS5_EEEESt11align_val_tEEEvDpT_, symObjAddr: 0x25024, symBinAddr: 0x52D3C, symSize: 0x2C }
  - { offset: 0x9063C, size: 0x8, addend: 0x0, symName: __ZNSt3__124__libcpp_operator_deleteB8de200100IJPNS_20__shared_ptr_emplaceIN7Entropy6Vulkan6Memory9AllocatorENS_9allocatorIS5_EEEEEEEvDpT_, symObjAddr: 0x25050, symBinAddr: 0x52D68, symSize: 0x24 }
  - { offset: 0x9066F, size: 0x8, addend: 0x0, symName: __ZNSt3__115allocate_sharedB8de200100IN7Entropy6Vulkan12CommandPools11CommandPoolENS_9allocatorIS4_EEJELi0EEENS_10shared_ptrIT_EERKT0_DpOT1_, symObjAddr: 0x25310, symBinAddr: 0x53028, symSize: 0xD4 }
  - { offset: 0x909D6, size: 0x8, addend: 0x0, symName: __ZNSt3__117__libcpp_allocateB8de200100INS_20__shared_ptr_emplaceIN7Entropy6Vulkan12CommandPools11CommandPoolENS_9allocatorIS5_EEEEEEPT_NS_15__element_countEm, symObjAddr: 0x2570C, symBinAddr: 0x53424, symSize: 0x70 }
  - { offset: 0x90A44, size: 0x8, addend: 0x0, symName: __ZNSt3__121__libcpp_operator_newB8de200100INS_20__shared_ptr_emplaceIN7Entropy6Vulkan12CommandPools11CommandPoolENS_9allocatorIS5_EEEEJmSt11align_val_tEEEPvDpT0_, symObjAddr: 0x2579C, symBinAddr: 0x534B4, symSize: 0x2C }
  - { offset: 0x90A97, size: 0x8, addend: 0x0, symName: __ZNSt3__121__libcpp_operator_newB8de200100INS_20__shared_ptr_emplaceIN7Entropy6Vulkan12CommandPools11CommandPoolENS_9allocatorIS5_EEEEEEPvm, symObjAddr: 0x257C8, symBinAddr: 0x534E0, symSize: 0x24 }
  - { offset: 0x90BBB, size: 0x8, addend: 0x0, symName: __ZNSt3__119__libcpp_deallocateB8de200100INS_20__shared_ptr_emplaceIN7Entropy6Vulkan12CommandPools11CommandPoolENS_9allocatorIS5_EEEEEEvPNS_15__type_identityIT_E4typeENS_15__element_countEm, symObjAddr: 0x25C24, symBinAddr: 0x5393C, symSize: 0x68 }
  - { offset: 0x90C33, size: 0x8, addend: 0x0, symName: __ZNSt3__124__libcpp_operator_deleteB8de200100IJPNS_20__shared_ptr_emplaceIN7Entropy6Vulkan12CommandPools11CommandPoolENS_9allocatorIS5_EEEESt11align_val_tEEEvDpT_, symObjAddr: 0x25C8C, symBinAddr: 0x539A4, symSize: 0x2C }
  - { offset: 0x90C79, size: 0x8, addend: 0x0, symName: __ZNSt3__124__libcpp_operator_deleteB8de200100IJPNS_20__shared_ptr_emplaceIN7Entropy6Vulkan12CommandPools11CommandPoolENS_9allocatorIS5_EEEEEEEvDpT_, symObjAddr: 0x25CB8, symBinAddr: 0x539D0, symSize: 0x24 }
  - { offset: 0x90CAC, size: 0x8, addend: 0x0, symName: __ZNSt3__115allocate_sharedB8de200100IN7Entropy6Vulkan15DescriptorPools14DescriptorPoolENS_9allocatorIS4_EEJELi0EEENS_10shared_ptrIT_EERKT0_DpOT1_, symObjAddr: 0x25F78, symBinAddr: 0x53C90, symSize: 0xD4 }
  - { offset: 0x91013, size: 0x8, addend: 0x0, symName: __ZNSt3__117__libcpp_allocateB8de200100INS_20__shared_ptr_emplaceIN7Entropy6Vulkan15DescriptorPools14DescriptorPoolENS_9allocatorIS5_EEEEEEPT_NS_15__element_countEm, symObjAddr: 0x26374, symBinAddr: 0x5408C, symSize: 0x70 }
  - { offset: 0x91081, size: 0x8, addend: 0x0, symName: __ZNSt3__121__libcpp_operator_newB8de200100INS_20__shared_ptr_emplaceIN7Entropy6Vulkan15DescriptorPools14DescriptorPoolENS_9allocatorIS5_EEEEJmSt11align_val_tEEEPvDpT0_, symObjAddr: 0x26404, symBinAddr: 0x5411C, symSize: 0x2C }
  - { offset: 0x910D4, size: 0x8, addend: 0x0, symName: __ZNSt3__121__libcpp_operator_newB8de200100INS_20__shared_ptr_emplaceIN7Entropy6Vulkan15DescriptorPools14DescriptorPoolENS_9allocatorIS5_EEEEEEPvm, symObjAddr: 0x26430, symBinAddr: 0x54148, symSize: 0x24 }
  - { offset: 0x911F8, size: 0x8, addend: 0x0, symName: __ZNSt3__119__libcpp_deallocateB8de200100INS_20__shared_ptr_emplaceIN7Entropy6Vulkan15DescriptorPools14DescriptorPoolENS_9allocatorIS5_EEEEEEvPNS_15__type_identityIT_E4typeENS_15__element_countEm, symObjAddr: 0x2688C, symBinAddr: 0x545A4, symSize: 0x68 }
  - { offset: 0x91270, size: 0x8, addend: 0x0, symName: __ZNSt3__124__libcpp_operator_deleteB8de200100IJPNS_20__shared_ptr_emplaceIN7Entropy6Vulkan15DescriptorPools14DescriptorPoolENS_9allocatorIS5_EEEESt11align_val_tEEEvDpT_, symObjAddr: 0x268F4, symBinAddr: 0x5460C, symSize: 0x2C }
  - { offset: 0x912B6, size: 0x8, addend: 0x0, symName: __ZNSt3__124__libcpp_operator_deleteB8de200100IJPNS_20__shared_ptr_emplaceIN7Entropy6Vulkan15DescriptorPools14DescriptorPoolENS_9allocatorIS5_EEEEEEEvDpT_, symObjAddr: 0x26920, symBinAddr: 0x54638, symSize: 0x24 }
  - { offset: 0x912E9, size: 0x8, addend: 0x0, symName: __ZNSt3__115allocate_sharedB8de200100IN7Entropy6Vulkan6Caches13PipelineCacheENS_9allocatorIS4_EEJELi0EEENS_10shared_ptrIT_EERKT0_DpOT1_, symObjAddr: 0x26BE0, symBinAddr: 0x548F8, symSize: 0xD4 }
  - { offset: 0x91650, size: 0x8, addend: 0x0, symName: __ZNSt3__117__libcpp_allocateB8de200100INS_20__shared_ptr_emplaceIN7Entropy6Vulkan6Caches13PipelineCacheENS_9allocatorIS5_EEEEEEPT_NS_15__element_countEm, symObjAddr: 0x26FDC, symBinAddr: 0x54CF4, symSize: 0x70 }
  - { offset: 0x916BE, size: 0x8, addend: 0x0, symName: __ZNSt3__121__libcpp_operator_newB8de200100INS_20__shared_ptr_emplaceIN7Entropy6Vulkan6Caches13PipelineCacheENS_9allocatorIS5_EEEEJmSt11align_val_tEEEPvDpT0_, symObjAddr: 0x2706C, symBinAddr: 0x54D84, symSize: 0x2C }
  - { offset: 0x91711, size: 0x8, addend: 0x0, symName: __ZNSt3__121__libcpp_operator_newB8de200100INS_20__shared_ptr_emplaceIN7Entropy6Vulkan6Caches13PipelineCacheENS_9allocatorIS5_EEEEEEPvm, symObjAddr: 0x27098, symBinAddr: 0x54DB0, symSize: 0x24 }
  - { offset: 0x91835, size: 0x8, addend: 0x0, symName: __ZNSt3__119__libcpp_deallocateB8de200100INS_20__shared_ptr_emplaceIN7Entropy6Vulkan6Caches13PipelineCacheENS_9allocatorIS5_EEEEEEvPNS_15__type_identityIT_E4typeENS_15__element_countEm, symObjAddr: 0x274F4, symBinAddr: 0x5520C, symSize: 0x68 }
  - { offset: 0x918AD, size: 0x8, addend: 0x0, symName: __ZNSt3__124__libcpp_operator_deleteB8de200100IJPNS_20__shared_ptr_emplaceIN7Entropy6Vulkan6Caches13PipelineCacheENS_9allocatorIS5_EEEESt11align_val_tEEEvDpT_, symObjAddr: 0x2755C, symBinAddr: 0x55274, symSize: 0x2C }
  - { offset: 0x918F3, size: 0x8, addend: 0x0, symName: __ZNSt3__124__libcpp_operator_deleteB8de200100IJPNS_20__shared_ptr_emplaceIN7Entropy6Vulkan6Caches13PipelineCacheENS_9allocatorIS5_EEEEEEEvDpT_, symObjAddr: 0x27588, symBinAddr: 0x552A0, symSize: 0x24 }
  - { offset: 0x91926, size: 0x8, addend: 0x0, symName: __ZNSt3__115allocate_sharedB8de200100IN7Entropy6Vulkan10SwapChains9SwapChainENS_9allocatorIS4_EEJELi0EEENS_10shared_ptrIT_EERKT0_DpOT1_, symObjAddr: 0x27848, symBinAddr: 0x55560, symSize: 0xD4 }
  - { offset: 0x91C8D, size: 0x8, addend: 0x0, symName: __ZNSt3__117__libcpp_allocateB8de200100INS_20__shared_ptr_emplaceIN7Entropy6Vulkan10SwapChains9SwapChainENS_9allocatorIS5_EEEEEEPT_NS_15__element_countEm, symObjAddr: 0x27C44, symBinAddr: 0x5595C, symSize: 0x70 }
  - { offset: 0x91CFB, size: 0x8, addend: 0x0, symName: __ZNSt3__121__libcpp_operator_newB8de200100INS_20__shared_ptr_emplaceIN7Entropy6Vulkan10SwapChains9SwapChainENS_9allocatorIS5_EEEEJmSt11align_val_tEEEPvDpT0_, symObjAddr: 0x27CD4, symBinAddr: 0x559EC, symSize: 0x2C }
  - { offset: 0x91D4E, size: 0x8, addend: 0x0, symName: __ZNSt3__121__libcpp_operator_newB8de200100INS_20__shared_ptr_emplaceIN7Entropy6Vulkan10SwapChains9SwapChainENS_9allocatorIS5_EEEEEEPvm, symObjAddr: 0x27D00, symBinAddr: 0x55A18, symSize: 0x24 }
  - { offset: 0x91E72, size: 0x8, addend: 0x0, symName: __ZNSt3__119__libcpp_deallocateB8de200100INS_20__shared_ptr_emplaceIN7Entropy6Vulkan10SwapChains9SwapChainENS_9allocatorIS5_EEEEEEvPNS_15__type_identityIT_E4typeENS_15__element_countEm, symObjAddr: 0x2815C, symBinAddr: 0x55E74, symSize: 0x68 }
  - { offset: 0x91EEA, size: 0x8, addend: 0x0, symName: __ZNSt3__124__libcpp_operator_deleteB8de200100IJPNS_20__shared_ptr_emplaceIN7Entropy6Vulkan10SwapChains9SwapChainENS_9allocatorIS5_EEEESt11align_val_tEEEvDpT_, symObjAddr: 0x281C4, symBinAddr: 0x55EDC, symSize: 0x2C }
  - { offset: 0x91F30, size: 0x8, addend: 0x0, symName: __ZNSt3__124__libcpp_operator_deleteB8de200100IJPNS_20__shared_ptr_emplaceIN7Entropy6Vulkan10SwapChains9SwapChainENS_9allocatorIS5_EEEEEEEvDpT_, symObjAddr: 0x281F0, symBinAddr: 0x55F08, symSize: 0x24 }
  - { offset: 0x91F63, size: 0x8, addend: 0x0, symName: __ZNSt3__115allocate_sharedB8de200100IN7Entropy7Cameras13CameraManagerENS_9allocatorIS3_EEJELi0EEENS_10shared_ptrIT_EERKT0_DpOT1_, symObjAddr: 0x284B0, symBinAddr: 0x561C8, symSize: 0xD4 }
  - { offset: 0x922CA, size: 0x8, addend: 0x0, symName: __ZNSt3__117__libcpp_allocateB8de200100INS_20__shared_ptr_emplaceIN7Entropy7Cameras13CameraManagerENS_9allocatorIS4_EEEEEEPT_NS_15__element_countEm, symObjAddr: 0x288AC, symBinAddr: 0x565C4, symSize: 0x70 }
  - { offset: 0x92338, size: 0x8, addend: 0x0, symName: __ZNSt3__121__libcpp_operator_newB8de200100INS_20__shared_ptr_emplaceIN7Entropy7Cameras13CameraManagerENS_9allocatorIS4_EEEEJmSt11align_val_tEEEPvDpT0_, symObjAddr: 0x28934, symBinAddr: 0x5664C, symSize: 0x2C }
  - { offset: 0x9238B, size: 0x8, addend: 0x0, symName: __ZNSt3__121__libcpp_operator_newB8de200100INS_20__shared_ptr_emplaceIN7Entropy7Cameras13CameraManagerENS_9allocatorIS4_EEEEEEPvm, symObjAddr: 0x28960, symBinAddr: 0x56678, symSize: 0x24 }
  - { offset: 0x924AF, size: 0x8, addend: 0x0, symName: __ZNSt3__119__libcpp_deallocateB8de200100INS_20__shared_ptr_emplaceIN7Entropy7Cameras13CameraManagerENS_9allocatorIS4_EEEEEEvPNS_15__type_identityIT_E4typeENS_15__element_countEm, symObjAddr: 0x290A4, symBinAddr: 0x56DBC, symSize: 0x68 }
  - { offset: 0x92527, size: 0x8, addend: 0x0, symName: __ZNSt3__124__libcpp_operator_deleteB8de200100IJPNS_20__shared_ptr_emplaceIN7Entropy7Cameras13CameraManagerENS_9allocatorIS4_EEEESt11align_val_tEEEvDpT_, symObjAddr: 0x2910C, symBinAddr: 0x56E24, symSize: 0x2C }
  - { offset: 0x9256D, size: 0x8, addend: 0x0, symName: __ZNSt3__124__libcpp_operator_deleteB8de200100IJPNS_20__shared_ptr_emplaceIN7Entropy7Cameras13CameraManagerENS_9allocatorIS4_EEEEEEEvDpT_, symObjAddr: 0x29138, symBinAddr: 0x56E50, symSize: 0x24 }
  - { offset: 0x925A0, size: 0x8, addend: 0x0, symName: __ZNSt3__1eqB8de200100ERKNS_14__map_iteratorINS_15__tree_iteratorINS_12__value_typeINS_10type_indexENS_10shared_ptrI8IServiceEEEEPNS_11__tree_nodeIS7_PvEElEEEESF_, symObjAddr: 0x293C8, symBinAddr: 0x570E0, symSize: 0x2C }
  - { offset: 0x925DE, size: 0x8, addend: 0x0, symName: __ZNSt3__113__tree_removeB8de200100IPNS_16__tree_node_baseIPvEEEEvT_S5_, symObjAddr: 0x29B54, symBinAddr: 0x5786C, symSize: 0x6B4 }
  - { offset: 0x92660, size: 0x8, addend: 0x0, symName: __ZNSt3__116__tree_next_iterB8de200100IPNS_15__tree_end_nodeIPNS_16__tree_node_baseIPvEEEES5_EET_T0_, symObjAddr: 0x2A208, symBinAddr: 0x57F20, symSize: 0x8C }
  - { offset: 0x9269E, size: 0x8, addend: 0x0, symName: __ZNSt3__110__tree_minB8de200100IPNS_16__tree_node_baseIPvEEEET_S5_, symObjAddr: 0x2A294, symBinAddr: 0x57FAC, symSize: 0x58 }
  - { offset: 0x926D3, size: 0x8, addend: 0x0, symName: __ZNSt3__116__tree_invariantB8de200100IPNS_16__tree_node_baseIPvEEEEbT_, symObjAddr: 0x2A2EC, symBinAddr: 0x58004, symSize: 0xCC }
  - { offset: 0x92708, size: 0x8, addend: 0x0, symName: __ZNSt3__111__tree_nextB8de200100IPNS_16__tree_node_baseIPvEEEET_S5_, symObjAddr: 0x2A3B8, symBinAddr: 0x580D0, symSize: 0x8C }
  - { offset: 0x9273D, size: 0x8, addend: 0x0, symName: __ZNSt3__120__tree_sub_invariantIPNS_16__tree_node_baseIPvEEEEjT_, symObjAddr: 0x2A444, symBinAddr: 0x5815C, symSize: 0x1AC }
  - { offset: 0x9473C, size: 0x8, addend: 0x0, symName: __ZL9g_setters, symObjAddr: 0x267EC8, symBinAddr: 0x8591B0, symSize: 0x0 }
  - { offset: 0x94AA2, size: 0x8, addend: 0x0, symName: __ZL9g_getters, symObjAddr: 0x267EF0, symBinAddr: 0x8591D8, symSize: 0x0 }
  - { offset: 0x94DBE, size: 0x8, addend: 0x0, symName: __ZL10g_removers, symObjAddr: 0x267F18, symBinAddr: 0x859200, symSize: 0x0 }
  - { offset: 0x976FF, size: 0x8, addend: 0x0, symName: __ZN7Entropy6Assets12AssetManager20CreateTextureSamplerEv, symObjAddr: 0xEF6C, symBinAddr: 0x3D404, symSize: 0x34C }
  - { offset: 0x97722, size: 0x8, addend: 0x0, symName: __ZZN7Entropy6Assets12AssetManager20CreateTextureSamplerEvE14macro_metadata, symObjAddr: 0x2C718, symBinAddr: 0x7D39B8, symSize: 0x0 }
  - { offset: 0x98522, size: 0x8, addend: 0x0, symName: __ZN5quill3v106detail24get_local_thread_contextINS0_15FrontendOptionsEEEPNS1_13ThreadContextEv, symObjAddr: 0x10FA0, symBinAddr: 0x3F1FC, symSize: 0xB8 }
  - { offset: 0x9854E, size: 0x8, addend: 0x0, symName: __ZZN5quill3v106detail24get_local_thread_contextINS0_15FrontendOptionsEEEPNS1_13ThreadContextEvE21scoped_thread_context, symObjAddr: 0x2E1A3, symBinAddr: 0x858BF0, symSize: 0x0 }
  - { offset: 0x98806, size: 0x8, addend: 0x0, symName: __ZN5quill3v106detail45compute_encoded_size_and_cache_string_lengthsIJNSt3__112basic_stringIcNS3_11char_traitsIcEENS3_9allocatorIcEEEEEEEmRNS1_13InlinedVectorIjLm12EEEDpRKT_, symObjAddr: 0x11058, symBinAddr: 0x3F2B4, symSize: 0x40 }
  - { offset: 0x9885F, size: 0x8, addend: 0x0, symName: __ZN5quill3v106detail21decode_and_store_argsIJNSt3__112basic_stringIcNS3_11char_traitsIcEENS3_9allocatorIcEEEEEEEvRPSt4byteRNS0_21DynamicFormatArgStoreE, symObjAddr: 0x11214, symBinAddr: 0x3F470, symSize: 0x2C }
  - { offset: 0x988A4, size: 0x8, addend: 0x0, symName: __ZN5quill3v106detail6encodeIJNSt3__112basic_stringIcNS3_11char_traitsIcEENS3_9allocatorIcEEEEEEEvRPSt4byteRKNS1_13InlinedVectorIjLm12EEEDpRKT_, symObjAddr: 0x11240, symBinAddr: 0x3F49C, symSize: 0x3C }
  - { offset: 0x98907, size: 0x8, addend: 0x0, symName: __ZN5quill3v106detail5rdtscEv, symObjAddr: 0x113D4, symBinAddr: 0x3F630, symSize: 0x18 }
  - { offset: 0x98933, size: 0x8, addend: 0x0, symName: __ZN5quill3v106detail16get_timestamp_nsINSt3__16chrono12system_clockEEEyv, symObjAddr: 0x113EC, symBinAddr: 0x3F648, symSize: 0x2C }
  - { offset: 0x9895A, size: 0x8, addend: 0x0, symName: __ZN5quill3v106detail13get_timestampINSt3__16chrono12system_clockEEENS4_8durationIxNS3_5ratioILl1ELl1000000000EEEEEv, symObjAddr: 0x11418, symBinAddr: 0x3F674, symSize: 0x5C }
  - { offset: 0x98981, size: 0x8, addend: 0x0, symName: __ZN5quill3v106detail17next_power_of_twoImEET_S3_, symObjAddr: 0x12B7C, symBinAddr: 0x40DD8, symSize: 0x104 }
  - { offset: 0x989D2, size: 0x8, addend: 0x0, symName: __ZN5quill3v106detail15is_power_of_twoEy, symObjAddr: 0x12F20, symBinAddr: 0x4117C, symSize: 0x48 }
  - { offset: 0x989FF, size: 0x8, addend: 0x0, symName: __ZN5quill3v106detail20decode_and_store_argIJNSt3__112basic_stringIcNS3_11char_traitsIcEENS3_9allocatorIcEEEEEEEvRPSt4bytePNS0_21DynamicFormatArgStoreE, symObjAddr: 0x16884, symBinAddr: 0x448B8, symSize: 0x2C }
  - { offset: 0x98A43, size: 0x8, addend: 0x0, symName: __ZN5quill3v106detail45compute_encoded_size_and_cache_string_lengthsIJmEEEmRNS1_13InlinedVectorIjLm12EEEDpRKT_, symObjAddr: 0x18340, symBinAddr: 0x46374, symSize: 0x40 }
  - { offset: 0x98A9C, size: 0x8, addend: 0x0, symName: __ZN5quill3v106detail21decode_and_store_argsIJmEEEvRPSt4byteRNS0_21DynamicFormatArgStoreE, symObjAddr: 0x18380, symBinAddr: 0x463B4, symSize: 0x2C }
  - { offset: 0x98AE1, size: 0x8, addend: 0x0, symName: __ZN5quill3v106detail6encodeIJmEEEvRPSt4byteRKNS1_13InlinedVectorIjLm12EEEDpRKT_, symObjAddr: 0x183AC, symBinAddr: 0x463E0, symSize: 0x3C }
  - { offset: 0x98B45, size: 0x8, addend: 0x0, symName: __ZN5quill3v106detail20decode_and_store_argIJmEEEvRPSt4bytePNS0_21DynamicFormatArgStoreE, symObjAddr: 0x18440, symBinAddr: 0x46474, symSize: 0x2C }
  - { offset: 0x98B89, size: 0x8, addend: 0x0, symName: __ZN5quill3v106detail45compute_encoded_size_and_cache_string_lengthsIJEEEmRNS1_13InlinedVectorIjLm12EEEDpRKT_, symObjAddr: 0x29890, symBinAddr: 0x575A8, symSize: 0x18 }
  - { offset: 0x98BCD, size: 0x8, addend: 0x0, symName: __ZN5quill3v106detail21decode_and_store_argsIJEEEvRPSt4byteRNS0_21DynamicFormatArgStoreE, symObjAddr: 0x298A8, symBinAddr: 0x575C0, symSize: 0x2C }
  - { offset: 0x98C0C, size: 0x8, addend: 0x0, symName: __ZN5quill3v106detail6encodeIJEEEvRPSt4byteRKNS1_13InlinedVectorIjLm12EEEDpRKT_, symObjAddr: 0x298D4, symBinAddr: 0x575EC, symSize: 0x18 }
  - { offset: 0x98C5B, size: 0x8, addend: 0x0, symName: __ZN5quill3v106detail20decode_and_store_argIJEEEvRPSt4bytePNS0_21DynamicFormatArgStoreE, symObjAddr: 0x298EC, symBinAddr: 0x57604, symSize: 0x14 }
  - { offset: 0x993A5, size: 0x8, addend: 0x0, symName: __ZN5quill3v106detail10LoggerBase15_thread_contextE, symObjAddr: 0x2E18B, symBinAddr: 0x858BD8, symSize: 0x0 }
  - { offset: 0x99820, size: 0x8, addend: 0x0, symName: __ZN5quill3v106detail19ScopedThreadContextC2ENS0_9QueueTypeEmmNS0_15HugePagesPolicyE, symObjAddr: 0x1162C, symBinAddr: 0x3F888, symSize: 0x118 }
  - { offset: 0x99849, size: 0x8, addend: 0x0, symName: __ZZN5quill3v106detail19ScopedThreadContextC1ENS0_9QueueTypeEmmNS0_15HugePagesPolicyEE29thread_local_instance_created, symObjAddr: 0x2E1D3, symBinAddr: 0x858C20, symSize: 0x0 }
  - { offset: 0x99A61, size: 0x8, addend: 0x0, symName: __ZN5quill3v106detail20ThreadContextManager8instanceEv, symObjAddr: 0x1179C, symBinAddr: 0x3F9F8, symSize: 0x80 }
  - { offset: 0x99A80, size: 0x8, addend: 0x0, symName: __ZZN5quill3v106detail20ThreadContextManager8instanceEvE8instance, symObjAddr: 0x2E1F0, symBinAddr: 0x845F80, symSize: 0x0 }
  - { offset: 0x9A51D, size: 0x8, addend: 0x0, symName: __ZN8fmtquill3v116detail14to_string_viewIcEENS0_17basic_string_viewIT_EES5_, symObjAddr: 0x16F7C, symBinAddr: 0x44FB0, symSize: 0x24 }
  - { offset: 0x9AAB5, size: 0x8, addend: 0x0, symName: __ZN5quill3v1010LoggerImplINS0_15FrontendOptionsEE9flush_logEj, symObjAddr: 0x17A24, symBinAddr: 0x45A58, symSize: 0xE4 }
  - { offset: 0x9AADA, size: 0x8, addend: 0x0, symName: __ZZN5quill3v1010LoggerImplINS0_15FrontendOptionsEE9flush_logEjE14macro_metadata, symObjAddr: 0x2C7E8, symBinAddr: 0x7D3A88, symSize: 0x0 }
  - { offset: 0x9AB1F, size: 0x8, addend: 0x0, symName: __ZN7Entropy6Assets12AssetManagerC2Ev, symObjAddr: 0xEB04, symBinAddr: 0x3D150, symSize: 0x188 }
  - { offset: 0x9AC8F, size: 0x8, addend: 0x0, symName: __ZZN7Entropy6Assets12AssetManagerC1EvENKUlRKNSt3__112basic_stringIcNS2_11char_traitsIcEENS2_9allocatorIcEEEEE_clESA_, symObjAddr: 0x1D538, symBinAddr: 0x4B56C, symSize: 0x220 }
  - { offset: 0x9ACB6, size: 0x8, addend: 0x0, symName: __ZZZN7Entropy6Assets12AssetManagerC1EvENKUlRKNSt3__112basic_stringIcNS2_11char_traitsIcEENS2_9allocatorIcEEEEE_clESA_E5index, symObjAddr: 0x2E218, symBinAddr: 0x845FA8, symSize: 0x0 }
  - { offset: 0x9B9FB, size: 0x8, addend: 0x0, symName: __ZN14ServiceLocator17UnregisterServiceIN7Entropy9Renderers9IRendererEEEvv, symObjAddr: 0x2820, symBinAddr: 0x323B0, symSize: 0x170 }
  - { offset: 0x9BA1E, size: 0x8, addend: 0x0, symName: __ZZN14ServiceLocator17UnregisterServiceIN7Entropy9Renderers9IRendererEEEvvE14macro_metadata, symObjAddr: 0x2CFC0, symBinAddr: 0x7D4218, symSize: 0x0 }
  - { offset: 0x9CA6C, size: 0x8, addend: 0x0, symName: __ZN14ServiceLocator17UnregisterServiceIN7Entropy3ECS6IWorldEEEvv, symObjAddr: 0x2990, symBinAddr: 0x32520, symSize: 0x164 }
  - { offset: 0x9CA8F, size: 0x8, addend: 0x0, symName: __ZZN14ServiceLocator17UnregisterServiceIN7Entropy3ECS6IWorldEEEvvE14macro_metadata, symObjAddr: 0x2CFE8, symBinAddr: 0x7D4240, symSize: 0x0 }
  - { offset: 0x9CAF8, size: 0x8, addend: 0x0, symName: __ZN14ServiceLocator17UnregisterServiceIN7Entropy7Cameras14ICameraManagerEEEvv, symObjAddr: 0x2AF4, symBinAddr: 0x32684, symSize: 0x164 }
  - { offset: 0x9CB1B, size: 0x8, addend: 0x0, symName: __ZZN14ServiceLocator17UnregisterServiceIN7Entropy7Cameras14ICameraManagerEEEvvE14macro_metadata, symObjAddr: 0x2D010, symBinAddr: 0x7D4268, symSize: 0x0 }
  - { offset: 0x9CB56, size: 0x8, addend: 0x0, symName: __ZN14ServiceLocator17UnregisterServiceIN7Entropy6Assets13IAssetManagerEEEvv, symObjAddr: 0x2C58, symBinAddr: 0x327E8, symSize: 0x164 }
  - { offset: 0x9CB79, size: 0x8, addend: 0x0, symName: __ZZN14ServiceLocator17UnregisterServiceIN7Entropy6Assets13IAssetManagerEEEvvE14macro_metadata, symObjAddr: 0x2D038, symBinAddr: 0x7D4290, symSize: 0x0 }
  - { offset: 0x9CBB4, size: 0x8, addend: 0x0, symName: __ZN14ServiceLocator17UnregisterServiceIN7Entropy6Vulkan10SwapChains10ISwapChainEEEvv, symObjAddr: 0x2DBC, symBinAddr: 0x3294C, symSize: 0x164 }
  - { offset: 0x9CBD7, size: 0x8, addend: 0x0, symName: __ZZN14ServiceLocator17UnregisterServiceIN7Entropy6Vulkan10SwapChains10ISwapChainEEEvvE14macro_metadata, symObjAddr: 0x2D060, symBinAddr: 0x7D42B8, symSize: 0x0 }
  - { offset: 0x9CC12, size: 0x8, addend: 0x0, symName: __ZN14ServiceLocator17UnregisterServiceIN7Entropy6Vulkan6Caches14IPipelineCacheEEEvv, symObjAddr: 0x2F20, symBinAddr: 0x32AB0, symSize: 0x164 }
  - { offset: 0x9CC35, size: 0x8, addend: 0x0, symName: __ZZN14ServiceLocator17UnregisterServiceIN7Entropy6Vulkan6Caches14IPipelineCacheEEEvvE14macro_metadata, symObjAddr: 0x2D088, symBinAddr: 0x7D42E0, symSize: 0x0 }
  - { offset: 0x9CC70, size: 0x8, addend: 0x0, symName: __ZN14ServiceLocator17UnregisterServiceIN7Entropy6Vulkan15DescriptorPools15IDescriptorPoolEEEvv, symObjAddr: 0x3084, symBinAddr: 0x32C14, symSize: 0x164 }
  - { offset: 0x9CC93, size: 0x8, addend: 0x0, symName: __ZZN14ServiceLocator17UnregisterServiceIN7Entropy6Vulkan15DescriptorPools15IDescriptorPoolEEEvvE14macro_metadata, symObjAddr: 0x2D0B0, symBinAddr: 0x7D4308, symSize: 0x0 }
  - { offset: 0x9CCCE, size: 0x8, addend: 0x0, symName: __ZN14ServiceLocator17UnregisterServiceIN7Entropy6Vulkan12CommandPools12ICommandPoolEEEvv, symObjAddr: 0x31E8, symBinAddr: 0x32D78, symSize: 0x164 }
  - { offset: 0x9CCF1, size: 0x8, addend: 0x0, symName: __ZZN14ServiceLocator17UnregisterServiceIN7Entropy6Vulkan12CommandPools12ICommandPoolEEEvvE14macro_metadata, symObjAddr: 0x2D0D8, symBinAddr: 0x7D4330, symSize: 0x0 }
  - { offset: 0x9CD2C, size: 0x8, addend: 0x0, symName: __ZN14ServiceLocator17UnregisterServiceIN7Entropy6Vulkan6Memory10IAllocatorEEEvv, symObjAddr: 0x334C, symBinAddr: 0x32EDC, symSize: 0x164 }
  - { offset: 0x9CD4F, size: 0x8, addend: 0x0, symName: __ZZN14ServiceLocator17UnregisterServiceIN7Entropy6Vulkan6Memory10IAllocatorEEEvvE14macro_metadata, symObjAddr: 0x2D100, symBinAddr: 0x7D4358, symSize: 0x0 }
  - { offset: 0x9CD8A, size: 0x8, addend: 0x0, symName: __ZN14ServiceLocator17UnregisterServiceIN7Entropy6Vulkan7Devices14ILogicalDeviceEEEvv, symObjAddr: 0x34B0, symBinAddr: 0x33040, symSize: 0x164 }
  - { offset: 0x9CDAD, size: 0x8, addend: 0x0, symName: __ZZN14ServiceLocator17UnregisterServiceIN7Entropy6Vulkan7Devices14ILogicalDeviceEEEvvE14macro_metadata, symObjAddr: 0x2D128, symBinAddr: 0x7D4380, symSize: 0x0 }
  - { offset: 0x9CDE8, size: 0x8, addend: 0x0, symName: __ZN14ServiceLocator17UnregisterServiceIN7Entropy6Vulkan7Devices15IPhysicalDeviceEEEvv, symObjAddr: 0x3614, symBinAddr: 0x331A4, symSize: 0x164 }
  - { offset: 0x9CE0B, size: 0x8, addend: 0x0, symName: __ZZN14ServiceLocator17UnregisterServiceIN7Entropy6Vulkan7Devices15IPhysicalDeviceEEEvvE14macro_metadata, symObjAddr: 0x2D150, symBinAddr: 0x7D43A8, symSize: 0x0 }
  - { offset: 0x9CE46, size: 0x8, addend: 0x0, symName: __ZN14ServiceLocator17UnregisterServiceIN7Entropy6Vulkan9Instances15IVulkanInstanceEEEvv, symObjAddr: 0x3778, symBinAddr: 0x33308, symSize: 0x164 }
  - { offset: 0x9CE69, size: 0x8, addend: 0x0, symName: __ZZN14ServiceLocator17UnregisterServiceIN7Entropy6Vulkan9Instances15IVulkanInstanceEEEvvE14macro_metadata, symObjAddr: 0x2D178, symBinAddr: 0x7D43D0, symSize: 0x0 }
  - { offset: 0xA064B, size: 0x8, addend: 0x0, symName: __ZNKSt3__16chrono15__duration_castINS0_8durationIxNS_5ratioILl1ELl1000000000EEEEENS2_IfNS3_ILl1ELl1EEEEES4_Lb1ELb0EEclB8de200100ERKS5_, symObjAddr: 0x3D88, symBinAddr: 0x33748, symSize: 0x50 }
  - { offset: 0xA0C46, size: 0x8, addend: 0x0, symName: __ZNKSt3__16chrono15__duration_castINS0_8durationIxNS_5ratioILl1ELl1000000EEEEENS2_IxNS3_ILl1ELl1000000000EEEEENS3_ILl1000ELl1EEELb0ELb1EEclB8de200100ERKS5_, symObjAddr: 0x114C4, symBinAddr: 0x3F720, symSize: 0x44 }
  - { offset: 0xA0DCC, size: 0x8, addend: 0x0, symName: __ZN7Entropy6Assets13IAssetManager14RegisterLoaderINS0_12TextureAssetEEEvRKNSt3__18functionIFNS4_10shared_ptrIT_EERKNS4_12basic_stringIcNS4_11char_traitsIcEENS4_9allocatorIcEEEEEEE, symObjAddr: 0xF2B8, symBinAddr: 0x3D750, symSize: 0x11C }
  - { offset: 0xA1C8E, size: 0x8, addend: 0x0, symName: ___cxx_global_var_init, symObjAddr: 0x2A610, symBinAddr: 0x58328, symSize: 0x40 }
  - { offset: 0xA1CA1, size: 0x8, addend: 0x0, symName: __ZNSt3__113unordered_mapIyNS0_Ij13ComponentBlobNS_4hashIjEENS_8equal_toIjEENS_9allocatorINS_4pairIKjS1_EEEEEENS2_IyEENS4_IyEENS6_INS7_IKySB_EEEEEC1B8de200100Ev, symObjAddr: 0x0, symBinAddr: 0x2FE14, symSize: 0x2C }
  - { offset: 0xA1CC9, size: 0x8, addend: 0x0, symName: __ZNSt3__113unordered_mapIyNS0_Ij13ComponentBlobNS_4hashIjEENS_8equal_toIjEENS_9allocatorINS_4pairIKjS1_EEEEEENS2_IyEENS4_IyEENS6_INS7_IKySB_EEEEED1B8de200100Ev, symObjAddr: 0x2C, symBinAddr: 0x2FE40, symSize: 0x2C }
  - { offset: 0xA1CF2, size: 0x8, addend: 0x0, symName: ___cxx_global_var_init.1, symObjAddr: 0x2A650, symBinAddr: 0x58368, symSize: 0x40 }
  - { offset: 0xA1D05, size: 0x8, addend: 0x0, symName: __ZNSt3__113unordered_mapIjNS_8functionIFvyPKviEEENS_4hashIjEENS_8equal_toIjEENS_9allocatorINS_4pairIKjS5_EEEEEC1B8de200100Ev, symObjAddr: 0x58, symBinAddr: 0x2FE6C, symSize: 0x2C }
  - { offset: 0xA1D2D, size: 0x8, addend: 0x0, symName: __ZNSt3__113unordered_mapIjNS_8functionIFvyPKviEEENS_4hashIjEENS_8equal_toIjEENS_9allocatorINS_4pairIKjS5_EEEEED1B8de200100Ev, symObjAddr: 0x84, symBinAddr: 0x2FE98, symSize: 0x2C }
  - { offset: 0xA1D56, size: 0x8, addend: 0x0, symName: ___cxx_global_var_init.2, symObjAddr: 0x2A690, symBinAddr: 0x583A8, symSize: 0x40 }
  - { offset: 0xA1D69, size: 0x8, addend: 0x0, symName: __ZNSt3__113unordered_mapIjNS_8functionIFbyPviEEENS_4hashIjEENS_8equal_toIjEENS_9allocatorINS_4pairIKjS4_EEEEEC1B8de200100Ev, symObjAddr: 0xB0, symBinAddr: 0x2FEC4, symSize: 0x2C }
  - { offset: 0xA1D91, size: 0x8, addend: 0x0, symName: __ZNSt3__113unordered_mapIjNS_8functionIFbyPviEEENS_4hashIjEENS_8equal_toIjEENS_9allocatorINS_4pairIKjS4_EEEEED1B8de200100Ev, symObjAddr: 0xDC, symBinAddr: 0x2FEF0, symSize: 0x2C }
  - { offset: 0xA1DBA, size: 0x8, addend: 0x0, symName: ___cxx_global_var_init.3, symObjAddr: 0x2A6D0, symBinAddr: 0x583E8, symSize: 0x40 }
  - { offset: 0xA1DCD, size: 0x8, addend: 0x0, symName: __ZNSt3__113unordered_mapIjNS_8functionIFvyEEENS_4hashIjEENS_8equal_toIjEENS_9allocatorINS_4pairIKjS3_EEEEEC1B8de200100Ev, symObjAddr: 0x108, symBinAddr: 0x2FF1C, symSize: 0x2C }
  - { offset: 0xA1DF5, size: 0x8, addend: 0x0, symName: __ZNSt3__113unordered_mapIjNS_8functionIFvyEEENS_4hashIjEENS_8equal_toIjEENS_9allocatorINS_4pairIKjS3_EEEEED1B8de200100Ev, symObjAddr: 0x134, symBinAddr: 0x2FF48, symSize: 0x2C }
  - { offset: 0xA1F27, size: 0x8, addend: 0x0, symName: __ZN7Entropy11EntryPoints13EntropyEngineC2EPvjj, symObjAddr: 0x160, symBinAddr: 0x2FF74, symSize: 0x384 }
  - { offset: 0xA1F9E, size: 0x8, addend: 0x0, symName: __ZNSt3__18functionIFvfiEEC1B8de200100Ev, symObjAddr: 0x4E4, symBinAddr: 0x302F8, symSize: 0x2C }
  - { offset: 0xA1FC7, size: 0x8, addend: 0x0, symName: __ZN7Entropy11EntryPoints13EntropyEngine16RegisterServicesEv, symObjAddr: 0x568, symBinAddr: 0x30324, symSize: 0x294 }
  - { offset: 0xA1FF3, size: 0x8, addend: 0x0, symName: __ZNK14ServiceLocator10GetServiceIN7Entropy6Vulkan10SwapChains10ISwapChainEEENSt3__110shared_ptrIT_EEv, symObjAddr: 0x7FC, symBinAddr: 0x305B8, symSize: 0x138 }
  - { offset: 0xA204A, size: 0x8, addend: 0x0, symName: __ZNKSt3__110shared_ptrIN7Entropy6Vulkan10SwapChains10ISwapChainEEptB8de200100Ev, symObjAddr: 0x934, symBinAddr: 0x306F0, symSize: 0x18 }
  - { offset: 0xA206E, size: 0x8, addend: 0x0, symName: __ZNSt3__110shared_ptrIN7Entropy6Vulkan8Surfaces7SurfaceEED1B8de200100Ev, symObjAddr: 0x98C, symBinAddr: 0x30748, symSize: 0x2C }
  - { offset: 0xA2096, size: 0x8, addend: 0x0, symName: __ZNSt3__110shared_ptrIN7Entropy6Vulkan10SwapChains10ISwapChainEED1B8de200100Ev, symObjAddr: 0x9B8, symBinAddr: 0x30774, symSize: 0x2C }
  - { offset: 0xA20BE, size: 0x8, addend: 0x0, symName: __ZNK14ServiceLocator10GetServiceIN7Entropy7Cameras14ICameraManagerEEENSt3__110shared_ptrIT_EEv, symObjAddr: 0x9E4, symBinAddr: 0x307A0, symSize: 0x138 }
  - { offset: 0xA2115, size: 0x8, addend: 0x0, symName: __ZNKSt3__110shared_ptrIN7Entropy7Cameras14ICameraManagerEEptB8de200100Ev, symObjAddr: 0xB1C, symBinAddr: 0x308D8, symSize: 0x18 }
  - { offset: 0xA2139, size: 0x8, addend: 0x0, symName: __ZN7Entropy7Cameras14ICameraManager16SetCurrentCameraENSt3__110shared_ptrINS0_10BaseCameraEEE, symObjAddr: 0xB34, symBinAddr: 0x308F0, symSize: 0x30 }
  - { offset: 0xA2190, size: 0x8, addend: 0x0, symName: __ZNSt3__110shared_ptrIN7Entropy7Cameras10BaseCameraEEC1B8de200100INS2_18OrthographicCameraELi0EEEONS0_IT_EE, symObjAddr: 0xB9C, symBinAddr: 0x30958, symSize: 0x34 }
  - { offset: 0xA21D6, size: 0x8, addend: 0x0, symName: __ZNSt3__110shared_ptrIN7Entropy7Cameras10BaseCameraEED1B8de200100Ev, symObjAddr: 0xBD0, symBinAddr: 0x3098C, symSize: 0x2C }
  - { offset: 0xA21FE, size: 0x8, addend: 0x0, symName: __ZNSt3__110shared_ptrIN7Entropy7Cameras18OrthographicCameraEED1B8de200100Ev, symObjAddr: 0xBFC, symBinAddr: 0x309B8, symSize: 0x2C }
  - { offset: 0xA2226, size: 0x8, addend: 0x0, symName: __ZN14ServiceLocator15RegisterServiceIN7Entropy9Renderers9IRendererEEEvNSt3__110shared_ptrIT_EE, symObjAddr: 0xC28, symBinAddr: 0x309E4, symSize: 0x154 }
  - { offset: 0xA22A2, size: 0x8, addend: 0x0, symName: __ZNSt3__110shared_ptrIN7Entropy9Renderers9IRendererEEC1B8de200100INS2_14VulkanRendererELi0EEEONS0_IT_EE, symObjAddr: 0xDC4, symBinAddr: 0x30B80, symSize: 0x34 }
  - { offset: 0xA22E8, size: 0x8, addend: 0x0, symName: __ZNSt3__110shared_ptrIN7Entropy9Renderers14VulkanRendererEED1B8de200100Ev, symObjAddr: 0xE24, symBinAddr: 0x30BB4, symSize: 0x2C }
  - { offset: 0xA2334, size: 0x8, addend: 0x0, symName: __ZN14ServiceLocator15RegisterServiceIN7Entropy6Assets12AssetManagerEEEvNSt3__110shared_ptrIT_EE, symObjAddr: 0xFFC, symBinAddr: 0x30BE0, symSize: 0x144 }
  - { offset: 0xA238C, size: 0x8, addend: 0x0, symName: __ZNSt3__110shared_ptrIN7Entropy6Assets12AssetManagerEED1B8de200100Ev, symObjAddr: 0x1178, symBinAddr: 0x30D5C, symSize: 0x2C }
  - { offset: 0xA23D8, size: 0x8, addend: 0x0, symName: __ZN14ServiceLocator15RegisterServiceIN7Entropy3ECS5WorldEEEvNSt3__110shared_ptrIT_EE, symObjAddr: 0x11A4, symBinAddr: 0x30D88, symSize: 0x14C }
  - { offset: 0xA2430, size: 0x8, addend: 0x0, symName: __ZNSt3__110shared_ptrIN7Entropy3ECS5WorldEED1B8de200100Ev, symObjAddr: 0x1328, symBinAddr: 0x30F0C, symSize: 0x2C }
  - { offset: 0xA2458, size: 0x8, addend: 0x0, symName: __ZNSt3__110shared_ptrIN7Entropy7Cameras14ICameraManagerEED1B8de200100Ev, symObjAddr: 0x1354, symBinAddr: 0x30F38, symSize: 0x2C }
  - { offset: 0xA2481, size: 0x8, addend: 0x0, symName: __ZNSt3__18functionIFvfiEED1Ev, symObjAddr: 0x1380, symBinAddr: 0x30F64, symSize: 0x2C }
  - { offset: 0xA24AB, size: 0x8, addend: 0x0, symName: __ZN7Entropy11EntryPoints13EntropyEngineC1EPvjj, symObjAddr: 0x13AC, symBinAddr: 0x30F90, symSize: 0x44 }
  - { offset: 0xA24FF, size: 0x8, addend: 0x0, symName: __ZN7Entropy11EntryPoints13EntropyEngine3RunENSt3__18functionIFvfiiEEEjji, symObjAddr: 0x13F0, symBinAddr: 0x30FD4, symSize: 0x12C }
  - { offset: 0xA2597, size: 0x8, addend: 0x0, symName: __ZNSt3__16chrono8durationIfNS_5ratioILl1ELl1EEEEC1B8de200100IxNS2_ILl1ELl1000000000EEELi0EEERKNS1_IT_T0_EE, symObjAddr: 0x1574, symBinAddr: 0x31158, symSize: 0x34 }
  - { offset: 0xA25E5, size: 0x8, addend: 0x0, symName: __ZNKSt3__16chrono8durationIfNS_5ratioILl1ELl1EEEE5countB8de200100Ev, symObjAddr: 0x15A8, symBinAddr: 0x3118C, symSize: 0x18 }
  - { offset: 0xA260A, size: 0x8, addend: 0x0, symName: __ZNKSt3__18functionIFvfiiEEclEfii, symObjAddr: 0x15C0, symBinAddr: 0x311A4, symSize: 0x44 }
  - { offset: 0xA265D, size: 0x8, addend: 0x0, symName: __ZNK14ServiceLocator10GetServiceIN7Entropy3ECS6IWorldEEENSt3__110shared_ptrIT_EEv, symObjAddr: 0x1604, symBinAddr: 0x311E8, symSize: 0x138 }
  - { offset: 0xA26B4, size: 0x8, addend: 0x0, symName: __ZNKSt3__110shared_ptrIN7Entropy3ECS6IWorldEEptB8de200100Ev, symObjAddr: 0x173C, symBinAddr: 0x31320, symSize: 0x18 }
  - { offset: 0xA26D8, size: 0x8, addend: 0x0, symName: __ZNK5flecs5world8progressEf, symObjAddr: 0x176C, symBinAddr: 0x31338, symSize: 0x30 }
  - { offset: 0xA270C, size: 0x8, addend: 0x0, symName: __ZNSt3__110shared_ptrIN7Entropy3ECS6IWorldEED1B8de200100Ev, symObjAddr: 0x17C8, symBinAddr: 0x31368, symSize: 0x2C }
  - { offset: 0xA2735, size: 0x8, addend: 0x0, symName: __ZN7Entropy11EntryPoints13EntropyEngineD2Ev, symObjAddr: 0x17F4, symBinAddr: 0x31394, symSize: 0x48 }
  - { offset: 0xA2761, size: 0x8, addend: 0x0, symName: __ZN7Entropy11EntryPoints13EntropyEngine18UnRegisterServicesEv, symObjAddr: 0x183C, symBinAddr: 0x313DC, symSize: 0x80 }
  - { offset: 0xA2789, size: 0x8, addend: 0x0, symName: __ZN7Entropy11EntryPoints13EntropyEngineD1Ev, symObjAddr: 0x18CC, symBinAddr: 0x3145C, symSize: 0x2C }
  - { offset: 0xA27D8, size: 0x8, addend: 0x0, symName: __ZN14ServiceLocator15RegisterServiceIN7Entropy6Vulkan9Instances14VulkanInstanceEEEvNSt3__110shared_ptrIT_EE, symObjAddr: 0x18F8, symBinAddr: 0x31488, symSize: 0x14C }
